
/home/mech/projects/animated-bassoon/pico_2305/pico_uart_oled/build/pico_uart_oled.elf:     file format elf32-littlearm

Sections:
Idx Name          Size      VMA       LMA       File off  Algn
  0 .text         000059b8  10000000  10000000  00001000  2**3
                  CONTENTS, ALLOC, LOAD, READONLY, CODE
  1 .rodata       00000404  100059b8  100059b8  000069b8  2**3
                  CONTENTS, ALLOC, LOAD, READONLY, DATA
  2 .ARM.exidx    00000008  10005dbc  10005dbc  00006dbc  2**2
                  CONTENTS, ALLOC, LOAD, READONLY, DATA
  3 .binary_info  00000024  10005dc4  10005dc4  00006dc4  2**2
                  CONTENTS, ALLOC, LOAD, READONLY, DATA
  4 .ram_vector_table 00000110  20000000  20000000  0000a000  2**2
                  ALLOC
  5 .uninitialized_data 00000000  20000110  20000110  0000959c  2**0
                  CONTENTS
  6 .data         000017a0  20000110  10005de8  00007110  2**3
                  CONTENTS, ALLOC, LOAD, READONLY, CODE
  7 .tdata        00000000  200018b0  200018b0  0000959c  2**0
                  CONTENTS, ALLOC, LOAD, DATA, THREAD_LOCAL
  8 .tbss         00000000  200018b0  200018b0  00000000  2**0
                  ALLOC, THREAD_LOCAL
  9 .bss          00000ff0  200018b0  10007588  000098b0  2**3
                  ALLOC
 10 .heap         00000800  200028a0  10007588  000098a0  2**2
                  ALLOC, READONLY
 11 .scratch_x    00000000  20080000  20080000  0000959c  2**0
                  CONTENTS
 12 .scratch_y    00000000  20081000  20081000  0000959c  2**0
                  CONTENTS
 13 .stack_dummy  00000800  20081000  20081000  0000a000  2**5
                  ALLOC, READONLY
 14 .flash_end    00000014  10007588  10007588  00009588  2**2
                  CONTENTS, ALLOC, LOAD, READONLY, DATA
 15 .ARM.attributes 00000034  00000000  00000000  0000959c  2**0
                  CONTENTS, READONLY
 16 .comment      00000045  00000000  00000000  000095d0  2**0
                  CONTENTS, READONLY
 17 .debug_info   00039c75  00000000  00000000  00009615  2**0
                  CONTENTS, READONLY, DEBUGGING, OCTETS
 18 .debug_abbrev 0000a093  00000000  00000000  0004328a  2**0
                  CONTENTS, READONLY, DEBUGGING, OCTETS
 19 .debug_loclists 0001b6e7  00000000  00000000  0004d31d  2**0
                  CONTENTS, READONLY, DEBUGGING, OCTETS
 20 .debug_aranges 00001360  00000000  00000000  00068a08  2**3
                  CONTENTS, READONLY, DEBUGGING, OCTETS
 21 .debug_rnglists 00004cc4  00000000  00000000  00069d68  2**0
                  CONTENTS, READONLY, DEBUGGING, OCTETS
 22 .debug_line   00024823  00000000  00000000  0006ea2c  2**0
                  CONTENTS, READONLY, DEBUGGING, OCTETS
 23 .debug_str    00009c89  00000000  00000000  0009324f  2**0
                  CONTENTS, READONLY, DEBUGGING, OCTETS
 24 .debug_frame  000039f0  00000000  00000000  0009ced8  2**2
                  CONTENTS, READONLY, DEBUGGING, OCTETS
 25 .debug_line_str 00000241  00000000  00000000  000a08c8  2**0
                  CONTENTS, READONLY, DEBUGGING, OCTETS

/home/mech/projects/animated-bassoon/pico_2305/pico_uart_oled/build/pico_uart_oled.elf:     file format elf32-littlearm


Disassembly of section .text:

10000000 <__VECTOR_TABLE>:
10000000:	20082000 	.word	0x20082000
10000004:	1000015d 	.word	0x1000015d
10000008:	1000011b 	.word	0x1000011b
1000000c:	1000011d 	.word	0x1000011d
10000010:	10000111 	.word	0x10000111
10000014:	10000111 	.word	0x10000111
10000018:	10000111 	.word	0x10000111
1000001c:	10000111 	.word	0x10000111
10000020:	10000119 	.word	0x10000119
10000024:	10000119 	.word	0x10000119
10000028:	10000119 	.word	0x10000119
1000002c:	1000011f 	.word	0x1000011f
10000030:	10000111 	.word	0x10000111
10000034:	10000119 	.word	0x10000119
10000038:	10000121 	.word	0x10000121
1000003c:	10000123 	.word	0x10000123
10000040:	10000111 	.word	0x10000111
10000044:	10000111 	.word	0x10000111
10000048:	10000111 	.word	0x10000111
1000004c:	10000111 	.word	0x10000111
10000050:	10000111 	.word	0x10000111
10000054:	10000111 	.word	0x10000111
10000058:	10000111 	.word	0x10000111
1000005c:	10000111 	.word	0x10000111
10000060:	10000111 	.word	0x10000111
10000064:	10000111 	.word	0x10000111
10000068:	10000111 	.word	0x10000111
1000006c:	10000111 	.word	0x10000111
10000070:	10000111 	.word	0x10000111
10000074:	10000111 	.word	0x10000111
10000078:	10000111 	.word	0x10000111
1000007c:	10000111 	.word	0x10000111
10000080:	10000111 	.word	0x10000111
10000084:	10000111 	.word	0x10000111
10000088:	10000111 	.word	0x10000111
1000008c:	10000111 	.word	0x10000111
10000090:	10000111 	.word	0x10000111
10000094:	10000111 	.word	0x10000111
10000098:	10000111 	.word	0x10000111
1000009c:	10000111 	.word	0x10000111
100000a0:	10000111 	.word	0x10000111
100000a4:	10000111 	.word	0x10000111
100000a8:	10000111 	.word	0x10000111
100000ac:	10000111 	.word	0x10000111
100000b0:	10000111 	.word	0x10000111
100000b4:	10000111 	.word	0x10000111
100000b8:	10000111 	.word	0x10000111
100000bc:	10000111 	.word	0x10000111
100000c0:	10000111 	.word	0x10000111
100000c4:	10000111 	.word	0x10000111
100000c8:	10000111 	.word	0x10000111
100000cc:	10000111 	.word	0x10000111
100000d0:	10000111 	.word	0x10000111
100000d4:	10000111 	.word	0x10000111
100000d8:	10000111 	.word	0x10000111
100000dc:	10000111 	.word	0x10000111
100000e0:	10000111 	.word	0x10000111
100000e4:	10000111 	.word	0x10000111
100000e8:	10000111 	.word	0x10000111
100000ec:	10000111 	.word	0x10000111
100000f0:	10000111 	.word	0x10000111
100000f4:	10000111 	.word	0x10000111
100000f8:	10000111 	.word	0x10000111
100000fc:	10000111 	.word	0x10000111
10000100:	10000111 	.word	0x10000111
10000104:	10000111 	.word	0x10000111
10000108:	10000111 	.word	0x10000111
1000010c:	10000111 	.word	0x10000111

10000110 <__unhandled_user_irq>:
10000110:	f3ef 8005 	mrs	r0, IPSR
10000114:	3810      	subs	r0, #16

10000116 <unhandled_user_irq_num_in_r0>:
10000116:	be00      	bkpt	0x0000

10000118 <isr_invalid>:
10000118:	be00      	bkpt	0x0000

1000011a <isr_nmi>:
1000011a:	be00      	bkpt	0x0000

1000011c <isr_hardfault>:
1000011c:	be00      	bkpt	0x0000

1000011e <isr_svcall>:
1000011e:	be00      	bkpt	0x0000

10000120 <isr_pendsv>:
10000120:	be00      	bkpt	0x0000

10000122 <isr_systick>:
10000122:	be00      	bkpt	0x0000

10000124 <__default_isrs_end>:
10000124:	7188ebf2 	.word	0x7188ebf2
10000128:	10005dc4 	.word	0x10005dc4
1000012c:	10005de8 	.word	0x10005de8
10000130:	100001a0 	.word	0x100001a0
10000134:	e71aa390 	.word	0xe71aa390

10000138 <__binary_info_header_end>:
10000138:	ffffded3 	.word	0xffffded3
1000013c:	10210142 	.word	0x10210142
10000140:	000001ff 	.word	0x000001ff
10000144:	00007450 	.word	0x00007450
10000148:	ab123579 	.word	0xab123579

1000014c <_entry_point>:
1000014c:	f04f 0000 	mov.w	r0, #0

10000150 <_enter_vtable_in_r0>:
10000150:	491e      	ldr	r1, [pc, #120]	@ (100001cc <data_cpy_table+0x2c>)
10000152:	6008      	str	r0, [r1, #0]
10000154:	c806      	ldmia	r0!, {r1, r2}
10000156:	f381 8808 	msr	MSP, r1
1000015a:	4710      	bx	r2

1000015c <_reset_handler>:
1000015c:	f04f 4050 	mov.w	r0, #3489660928	@ 0xd0000000
10000160:	6800      	ldr	r0, [r0, #0]
10000162:	b110      	cbz	r0, 1000016a <hold_non_core0_in_bootrom+0x6>

10000164 <hold_non_core0_in_bootrom>:
10000164:	f04f 0000 	mov.w	r0, #0
10000168:	e7f2      	b.n	10000150 <_enter_vtable_in_r0>
1000016a:	a40d      	add	r4, pc, #52	@ (adr r4, 100001a0 <data_cpy_table>)
1000016c:	cc0e      	ldmia	r4!, {r1, r2, r3}
1000016e:	2900      	cmp	r1, #0
10000170:	d002      	beq.n	10000178 <hold_non_core0_in_bootrom+0x14>
10000172:	f000 f812 	bl	1000019a <data_cpy>
10000176:	e7f9      	b.n	1000016c <hold_non_core0_in_bootrom+0x8>
10000178:	4915      	ldr	r1, [pc, #84]	@ (100001d0 <data_cpy_table+0x30>)
1000017a:	4a16      	ldr	r2, [pc, #88]	@ (100001d4 <data_cpy_table+0x34>)
1000017c:	2000      	movs	r0, #0
1000017e:	e000      	b.n	10000182 <bss_fill_test>

10000180 <bss_fill_loop>:
10000180:	c101      	stmia	r1!, {r0}

10000182 <bss_fill_test>:
10000182:	4291      	cmp	r1, r2
10000184:	d1fc      	bne.n	10000180 <bss_fill_loop>

10000186 <platform_entry>:
10000186:	4914      	ldr	r1, [pc, #80]	@ (100001d8 <data_cpy_table+0x38>)
10000188:	4788      	blx	r1
1000018a:	4914      	ldr	r1, [pc, #80]	@ (100001dc <data_cpy_table+0x3c>)
1000018c:	4788      	blx	r1
1000018e:	4914      	ldr	r1, [pc, #80]	@ (100001e0 <data_cpy_table+0x40>)
10000190:	4788      	blx	r1
10000192:	be00      	bkpt	0x0000
10000194:	e7fd      	b.n	10000192 <platform_entry+0xc>

10000196 <data_cpy_loop>:
10000196:	c901      	ldmia	r1!, {r0}
10000198:	c201      	stmia	r2!, {r0}

1000019a <data_cpy>:
1000019a:	429a      	cmp	r2, r3
1000019c:	d3fb      	bcc.n	10000196 <data_cpy_loop>
1000019e:	4770      	bx	lr

100001a0 <data_cpy_table>:
100001a0:	10005de8 	.word	0x10005de8
100001a4:	20000110 	.word	0x20000110
100001a8:	200018b0 	.word	0x200018b0
100001ac:	10007588 	.word	0x10007588
100001b0:	20080000 	.word	0x20080000
100001b4:	20080000 	.word	0x20080000
100001b8:	10007588 	.word	0x10007588
100001bc:	20081000 	.word	0x20081000
100001c0:	20081000 	.word	0x20081000
100001c4:	00000000 	.word	0x00000000
100001c8:	4770      	bx	lr
100001ca:	0000      	.short	0x0000
100001cc:	e000ed08 	.word	0xe000ed08
100001d0:	200018b0 	.word	0x200018b0
100001d4:	200028a0 	.word	0x200028a0
100001d8:	10002351 	.word	0x10002351
100001dc:	10000235 	.word	0x10000235
100001e0:	10002349 	.word	0x10002349

100001e4 <_init>:
100001e4:	b5f8      	push	{r3, r4, r5, r6, r7, lr}
100001e6:	bf00      	nop

100001e8 <register_tm_clones>:
100001e8:	4b06      	ldr	r3, [pc, #24]	@ (10000204 <register_tm_clones+0x1c>)
100001ea:	4907      	ldr	r1, [pc, #28]	@ (10000208 <register_tm_clones+0x20>)
100001ec:	1ac9      	subs	r1, r1, r3
100001ee:	1089      	asrs	r1, r1, #2
100001f0:	bf48      	it	mi
100001f2:	3101      	addmi	r1, #1
100001f4:	1049      	asrs	r1, r1, #1
100001f6:	d003      	beq.n	10000200 <register_tm_clones+0x18>
100001f8:	4b04      	ldr	r3, [pc, #16]	@ (1000020c <register_tm_clones+0x24>)
100001fa:	b10b      	cbz	r3, 10000200 <register_tm_clones+0x18>
100001fc:	4801      	ldr	r0, [pc, #4]	@ (10000204 <register_tm_clones+0x1c>)
100001fe:	4718      	bx	r3
10000200:	4770      	bx	lr
10000202:	bf00      	nop
10000204:	200018b0 	.word	0x200018b0
10000208:	200018b0 	.word	0x200018b0
1000020c:	00000000 	.word	0x00000000

10000210 <frame_dummy>:
10000210:	b508      	push	{r3, lr}
10000212:	4b05      	ldr	r3, [pc, #20]	@ (10000228 <frame_dummy+0x18>)
10000214:	b11b      	cbz	r3, 1000021e <frame_dummy+0xe>
10000216:	4905      	ldr	r1, [pc, #20]	@ (1000022c <frame_dummy+0x1c>)
10000218:	4805      	ldr	r0, [pc, #20]	@ (10000230 <frame_dummy+0x20>)
1000021a:	f3af 8000 	nop.w
1000021e:	e8bd 4008 	ldmia.w	sp!, {r3, lr}
10000222:	f7ff bfe1 	b.w	100001e8 <register_tm_clones>
10000226:	bf00      	nop
10000228:	00000000 	.word	0x00000000
1000022c:	200027e8 	.word	0x200027e8
10000230:	100059b8 	.word	0x100059b8

10000234 <main>:
10000234:	e92d 4ff0 	stmdb	sp!, {r4, r5, r6, r7, r8, r9, sl, fp, lr}
10000238:	b085      	sub	sp, #20
1000023a:	f002 f981 	bl	10002540 <stdio_init_all>
1000023e:	4886      	ldr	r0, [pc, #536]	@ (10000458 <main+0x224>)
10000240:	ab03      	add	r3, sp, #12
10000242:	aa02      	add	r2, sp, #8
10000244:	a901      	add	r1, sp, #4
10000246:	f001 fd75 	bl	10001d34 <check_sys_clock_hz>
1000024a:	b918      	cbnz	r0, 10000254 <main+0x20>
1000024c:	4982      	ldr	r1, [pc, #520]	@ (10000458 <main+0x224>)
1000024e:	4883      	ldr	r0, [pc, #524]	@ (1000045c <main+0x228>)
10000250:	f000 fc1e 	bl	10000a90 <panic>
10000254:	e9dd 1202 	ldrd	r1, r2, [sp, #8]
10000258:	4681      	mov	r9, r0
1000025a:	9801      	ldr	r0, [sp, #4]
1000025c:	f001 fca8 	bl	10001bb0 <set_sys_clock_pll>
10000260:	200a      	movs	r0, #10
10000262:	f001 fa41 	bl	100016e8 <sleep_ms>
10000266:	f44f 31e1 	mov.w	r1, #115200	@ 0x1c200
1000026a:	487d      	ldr	r0, [pc, #500]	@ (10000460 <main+0x22c>)
1000026c:	f001 fb78 	bl	10001960 <uart_init>
10000270:	2102      	movs	r1, #2
10000272:	2000      	movs	r0, #0
10000274:	f000 fbb6 	bl	100009e4 <gpio_set_function>
10000278:	2102      	movs	r1, #2
1000027a:	2001      	movs	r0, #1
1000027c:	f000 fbb2 	bl	100009e4 <gpio_set_function>
10000280:	2300      	movs	r3, #0
10000282:	2201      	movs	r2, #1
10000284:	2108      	movs	r1, #8
10000286:	4876      	ldr	r0, [pc, #472]	@ (10000460 <main+0x22c>)
10000288:	f001 fbec 	bl	10001a64 <uart_set_format>
1000028c:	4975      	ldr	r1, [pc, #468]	@ (10000464 <main+0x230>)
1000028e:	4876      	ldr	r0, [pc, #472]	@ (10000468 <main+0x234>)
10000290:	f004 fdd0 	bl	10004e34 <i2c_init>
10000294:	2103      	movs	r1, #3
10000296:	2004      	movs	r0, #4
10000298:	f000 fba4 	bl	100009e4 <gpio_set_function>
1000029c:	2103      	movs	r1, #3
1000029e:	2005      	movs	r0, #5
100002a0:	f000 fba0 	bl	100009e4 <gpio_set_function>
100002a4:	2200      	movs	r2, #0
100002a6:	2101      	movs	r1, #1
100002a8:	2004      	movs	r0, #4
100002aa:	f000 fbb9 	bl	10000a20 <gpio_set_pulls>
100002ae:	2200      	movs	r2, #0
100002b0:	2101      	movs	r1, #1
100002b2:	2005      	movs	r0, #5
100002b4:	f000 fbb4 	bl	10000a20 <gpio_set_pulls>
100002b8:	200e      	movs	r0, #14
100002ba:	f000 fbc5 	bl	10000a48 <gpio_init>
100002be:	200e      	movs	r0, #14
100002c0:	f04f 0300 	mov.w	r3, #0
100002c4:	ec43 0044 	gpioc_bit_oe_put r0, r3
100002c8:	f04f 0a00 	mov.w	sl, #0
100002cc:	464e      	mov	r6, r9
100002ce:	2200      	movs	r2, #0
100002d0:	2101      	movs	r1, #1
100002d2:	f000 fba5 	bl	10000a20 <gpio_set_pulls>
100002d6:	f000 f8d1 	bl	1000047c <ssd1306_init>
100002da:	2064      	movs	r0, #100	@ 0x64
100002dc:	f001 fa04 	bl	100016e8 <sleep_ms>
100002e0:	f000 f94e 	bl	10000580 <textui_init>
100002e4:	f000 f936 	bl	10000554 <ssd1306_clear>
100002e8:	203e      	movs	r0, #62	@ 0x3e
100002ea:	f000 f9e1 	bl	100006b0 <textui_putc>
100002ee:	f8df 8188 	ldr.w	r8, [pc, #392]	@ 10000478 <main+0x244>
100002f2:	f000 fadd 	bl	100008b0 <textui_render>
100002f6:	4c5a      	ldr	r4, [pc, #360]	@ (10000460 <main+0x22c>)
100002f8:	4b5c      	ldr	r3, [pc, #368]	@ (1000046c <main+0x238>)
100002fa:	e9d3 5700 	ldrd	r5, r7, [r3]
100002fe:	f04f 4350 	mov.w	r3, #3489660928	@ 0xd0000000
10000302:	685b      	ldr	r3, [r3, #4]
10000304:	f3c3 3280 	ubfx	r2, r3, #14, #1
10000308:	42b2      	cmp	r2, r6
1000030a:	f403 4b80 	and.w	fp, r3, #16384	@ 0x4000
1000030e:	d034      	beq.n	1000037a <main+0x146>
10000310:	f1bb 0f00 	cmp.w	fp, #0
10000314:	d138      	bne.n	10000388 <main+0x154>
10000316:	f001 fad9 	bl	100018cc <time_us_64>
1000031a:	4605      	mov	r5, r0
1000031c:	200a      	movs	r0, #10
1000031e:	460f      	mov	r7, r1
10000320:	465e      	mov	r6, fp
10000322:	f001 f9e1 	bl	100016e8 <sleep_ms>
10000326:	f001 fad1 	bl	100018cc <time_us_64>
1000032a:	1b40      	subs	r0, r0, r5
1000032c:	eb61 0107 	sbc.w	r1, r1, r7
10000330:	f44f 727a 	mov.w	r2, #1000	@ 0x3e8
10000334:	2300      	movs	r3, #0
10000336:	f005 fb03 	bl	10005940 <____aeabi_uldivmod_veneer>
1000033a:	f5b0 7f7a 	cmp.w	r0, #1000	@ 0x3e8
1000033e:	da77      	bge.n	10000430 <main+0x1fc>
10000340:	f04f 0a00 	mov.w	sl, #0
10000344:	69a3      	ldr	r3, [r4, #24]
10000346:	06d8      	lsls	r0, r3, #27
10000348:	d4d9      	bmi.n	100002fe <main+0xca>
1000034a:	69a3      	ldr	r3, [r4, #24]
1000034c:	06d9      	lsls	r1, r3, #27
1000034e:	d4fc      	bmi.n	1000034a <main+0x116>
10000350:	6820      	ldr	r0, [r4, #0]
10000352:	f9b8 3000 	ldrsh.w	r3, [r8]
10000356:	b2c0      	uxtb	r0, r0
10000358:	4283      	cmp	r3, r0
1000035a:	d008      	beq.n	1000036e <main+0x13a>
1000035c:	69a3      	ldr	r3, [r4, #24]
1000035e:	069b      	lsls	r3, r3, #26
10000360:	d4fc      	bmi.n	1000035c <main+0x128>
10000362:	6020      	str	r0, [r4, #0]
10000364:	f000 f9a4 	bl	100006b0 <textui_putc>
10000368:	f000 faa2 	bl	100008b0 <textui_render>
1000036c:	e7c7      	b.n	100002fe <main+0xca>
1000036e:	69a3      	ldr	r3, [r4, #24]
10000370:	069a      	lsls	r2, r3, #26
10000372:	d4fc      	bmi.n	1000036e <main+0x13a>
10000374:	230d      	movs	r3, #13
10000376:	6023      	str	r3, [r4, #0]
10000378:	e7f0      	b.n	1000035c <main+0x128>
1000037a:	f1bb 0f00 	cmp.w	fp, #0
1000037e:	d1e1      	bne.n	10000344 <main+0x110>
10000380:	f1ba 0f00 	cmp.w	sl, #0
10000384:	d1de      	bne.n	10000344 <main+0x110>
10000386:	e7ce      	b.n	10000326 <main+0xf2>
10000388:	f001 faa0 	bl	100018cc <time_us_64>
1000038c:	1b40      	subs	r0, r0, r5
1000038e:	eb61 0107 	sbc.w	r1, r1, r7
10000392:	f44f 727a 	mov.w	r2, #1000	@ 0x3e8
10000396:	2300      	movs	r3, #0
10000398:	f005 fad2 	bl	10005940 <____aeabi_uldivmod_veneer>
1000039c:	f5b0 7f7a 	cmp.w	r0, #1000	@ 0x3e8
100003a0:	db06      	blt.n	100003b0 <main+0x17c>
100003a2:	200a      	movs	r0, #10
100003a4:	f001 f9a0 	bl	100016e8 <sleep_ms>
100003a8:	f04f 0a00 	mov.w	sl, #0
100003ac:	464e      	mov	r6, r9
100003ae:	e7c9      	b.n	10000344 <main+0x110>
100003b0:	f04f 0a48 	mov.w	sl, #72	@ 0x48
100003b4:	260d      	movs	r6, #13
100003b6:	f8df b0b8 	ldr.w	fp, [pc, #184]	@ 10000470 <main+0x23c>
100003ba:	4650      	mov	r0, sl
100003bc:	f000 f978 	bl	100006b0 <textui_putc>
100003c0:	f9b8 3000 	ldrsh.w	r3, [r8]
100003c4:	4553      	cmp	r3, sl
100003c6:	d022      	beq.n	1000040e <main+0x1da>
100003c8:	69a3      	ldr	r3, [r4, #24]
100003ca:	069b      	lsls	r3, r3, #26
100003cc:	d4fc      	bmi.n	100003c8 <main+0x194>
100003ce:	f8c4 a000 	str.w	sl, [r4]
100003d2:	f81b af01 	ldrb.w	sl, [fp, #1]!
100003d6:	f1ba 0f00 	cmp.w	sl, #0
100003da:	d1ee      	bne.n	100003ba <main+0x186>
100003dc:	4824      	ldr	r0, [pc, #144]	@ (10000470 <main+0x23c>)
100003de:	f002 f8f3 	bl	100025c8 <__wrap_puts>
100003e2:	200a      	movs	r0, #10
100003e4:	f000 f964 	bl	100006b0 <textui_putc>
100003e8:	f9b8 2000 	ldrsh.w	r2, [r8]
100003ec:	2a0d      	cmp	r2, #13
100003ee:	d013      	beq.n	10000418 <main+0x1e4>
100003f0:	69a3      	ldr	r3, [r4, #24]
100003f2:	0698      	lsls	r0, r3, #26
100003f4:	d4fc      	bmi.n	100003f0 <main+0x1bc>
100003f6:	230d      	movs	r3, #13
100003f8:	2a0a      	cmp	r2, #10
100003fa:	6023      	str	r3, [r4, #0]
100003fc:	d012      	beq.n	10000424 <main+0x1f0>
100003fe:	69a3      	ldr	r3, [r4, #24]
10000400:	069a      	lsls	r2, r3, #26
10000402:	d4fc      	bmi.n	100003fe <main+0x1ca>
10000404:	230a      	movs	r3, #10
10000406:	6023      	str	r3, [r4, #0]
10000408:	f000 fa52 	bl	100008b0 <textui_render>
1000040c:	e7c9      	b.n	100003a2 <main+0x16e>
1000040e:	69a3      	ldr	r3, [r4, #24]
10000410:	069a      	lsls	r2, r3, #26
10000412:	d4fc      	bmi.n	1000040e <main+0x1da>
10000414:	6026      	str	r6, [r4, #0]
10000416:	e7d7      	b.n	100003c8 <main+0x194>
10000418:	69a3      	ldr	r3, [r4, #24]
1000041a:	069e      	lsls	r6, r3, #26
1000041c:	d4fc      	bmi.n	10000418 <main+0x1e4>
1000041e:	230d      	movs	r3, #13
10000420:	6023      	str	r3, [r4, #0]
10000422:	e7e5      	b.n	100003f0 <main+0x1bc>
10000424:	69a3      	ldr	r3, [r4, #24]
10000426:	0699      	lsls	r1, r3, #26
10000428:	d4fc      	bmi.n	10000424 <main+0x1f0>
1000042a:	230d      	movs	r3, #13
1000042c:	6023      	str	r3, [r4, #0]
1000042e:	e7e6      	b.n	100003fe <main+0x1ca>
10000430:	4810      	ldr	r0, [pc, #64]	@ (10000474 <main+0x240>)
10000432:	f000 fa95 	bl	10000960 <show_and_print>
10000436:	f44f 70fa 	mov.w	r0, #500	@ 0x1f4
1000043a:	f001 f955 	bl	100016e8 <sleep_ms>
1000043e:	2000      	movs	r0, #0
10000440:	f000 fa8e 	bl	10000960 <show_and_print>
10000444:	f04f 4250 	mov.w	r2, #3489660928	@ 0xd0000000
10000448:	6853      	ldr	r3, [r2, #4]
1000044a:	045b      	lsls	r3, r3, #17
1000044c:	d5fc      	bpl.n	10000448 <main+0x214>
1000044e:	2032      	movs	r0, #50	@ 0x32
10000450:	f001 f94a 	bl	100016e8 <sleep_ms>
10000454:	46ca      	mov	sl, r9
10000456:	e775      	b.n	10000344 <main+0x110>
10000458:	07735940 	.word	0x07735940
1000045c:	100059c4 	.word	0x100059c4
10000460:	40070000 	.word	0x40070000
10000464:	00061a80 	.word	0x00061a80
10000468:	20001344 	.word	0x20001344
1000046c:	10005b98 	.word	0x10005b98
10000470:	100059b8 	.word	0x100059b8
10000474:	100059f8 	.word	0x100059f8
10000478:	20002880 	.word	0x20002880

1000047c <ssd1306_init>:
1000047c:	e92d 41f0 	stmdb	sp!, {r4, r5, r6, r7, r8, lr}
10000480:	f04f 0880 	mov.w	r8, #128	@ 0x80
10000484:	2700      	movs	r7, #0
10000486:	b08a      	sub	sp, #40	@ 0x28
10000488:	4d10      	ldr	r5, [pc, #64]	@ (100004cc <ssd1306_init+0x50>)
1000048a:	f10d 0c0c 	add.w	ip, sp, #12
1000048e:	cd0f      	ldmia	r5!, {r0, r1, r2, r3}
10000490:	e8ac 000f 	stmia.w	ip!, {r0, r1, r2, r3}
10000494:	e895 0007 	ldmia.w	r5, {r0, r1, r2}
10000498:	e8ac 0003 	stmia.w	ip!, {r0, r1}
1000049c:	f10d 040b 	add.w	r4, sp, #11
100004a0:	ae09      	add	r6, sp, #36	@ 0x24
100004a2:	f88c 2000 	strb.w	r2, [ip]
100004a6:	f814 cf01 	ldrb.w	ip, [r4, #1]!
100004aa:	2302      	movs	r3, #2
100004ac:	213c      	movs	r1, #60	@ 0x3c
100004ae:	4808      	ldr	r0, [pc, #32]	@ (100004d0 <ssd1306_init+0x54>)
100004b0:	aa02      	add	r2, sp, #8
100004b2:	9700      	str	r7, [sp, #0]
100004b4:	f88d 8008 	strb.w	r8, [sp, #8]
100004b8:	f88d c009 	strb.w	ip, [sp, #9]
100004bc:	f004 fce0 	bl	10004e80 <i2c_write_blocking>
100004c0:	42b4      	cmp	r4, r6
100004c2:	d1f0      	bne.n	100004a6 <ssd1306_init+0x2a>
100004c4:	b00a      	add	sp, #40	@ 0x28
100004c6:	e8bd 81f0 	ldmia.w	sp!, {r4, r5, r6, r7, r8, pc}
100004ca:	bf00      	nop
100004cc:	10005b74 	.word	0x10005b74
100004d0:	20001344 	.word	0x20001344

100004d4 <ssd1306_update>:
100004d4:	b5f0      	push	{r4, r5, r6, r7, lr}
100004d6:	2780      	movs	r7, #128	@ 0x80
100004d8:	2500      	movs	r5, #0
100004da:	4b1b      	ldr	r3, [pc, #108]	@ (10000548 <ssd1306_update+0x74>)
100004dc:	b087      	sub	sp, #28
100004de:	e893 0003 	ldmia.w	r3, {r0, r1}
100004e2:	ac04      	add	r4, sp, #16
100004e4:	9004      	str	r0, [sp, #16]
100004e6:	f8ad 1014 	strh.w	r1, [sp, #20]
100004ea:	f10d 0616 	add.w	r6, sp, #22
100004ee:	f814 cb01 	ldrb.w	ip, [r4], #1
100004f2:	2302      	movs	r3, #2
100004f4:	213c      	movs	r1, #60	@ 0x3c
100004f6:	4815      	ldr	r0, [pc, #84]	@ (1000054c <ssd1306_update+0x78>)
100004f8:	aa03      	add	r2, sp, #12
100004fa:	9500      	str	r5, [sp, #0]
100004fc:	f88d 700c 	strb.w	r7, [sp, #12]
10000500:	f88d c00d 	strb.w	ip, [sp, #13]
10000504:	f004 fcbc 	bl	10004e80 <i2c_write_blocking>
10000508:	42b4      	cmp	r4, r6
1000050a:	d1f0      	bne.n	100004ee <ssd1306_update+0x1a>
1000050c:	f240 2001 	movw	r0, #513	@ 0x201
10000510:	f001 fed2 	bl	100022b8 <__wrap_malloc>
10000514:	4604      	mov	r4, r0
10000516:	b1a8      	cbz	r0, 10000544 <ssd1306_update+0x70>
10000518:	2340      	movs	r3, #64	@ 0x40
1000051a:	f44f 7200 	mov.w	r2, #512	@ 0x200
1000051e:	490c      	ldr	r1, [pc, #48]	@ (10000550 <ssd1306_update+0x7c>)
10000520:	f800 3b01 	strb.w	r3, [r0], #1
10000524:	f005 f804 	bl	10005530 <memcpy>
10000528:	f240 2301 	movw	r3, #513	@ 0x201
1000052c:	213c      	movs	r1, #60	@ 0x3c
1000052e:	4622      	mov	r2, r4
10000530:	9500      	str	r5, [sp, #0]
10000532:	4806      	ldr	r0, [pc, #24]	@ (1000054c <ssd1306_update+0x78>)
10000534:	f004 fca4 	bl	10004e80 <i2c_write_blocking>
10000538:	4620      	mov	r0, r4
1000053a:	b007      	add	sp, #28
1000053c:	e8bd 40f0 	ldmia.w	sp!, {r4, r5, r6, r7, lr}
10000540:	f001 becc 	b.w	100022dc <__wrap_free>
10000544:	b007      	add	sp, #28
10000546:	bdf0      	pop	{r4, r5, r6, r7, pc}
10000548:	10005b90 	.word	0x10005b90
1000054c:	20001344 	.word	0x20001344
10000550:	200021d4 	.word	0x200021d4

10000554 <ssd1306_clear>:
10000554:	b508      	push	{r3, lr}
10000556:	f44f 7200 	mov.w	r2, #512	@ 0x200
1000055a:	2100      	movs	r1, #0
1000055c:	4803      	ldr	r0, [pc, #12]	@ (1000056c <ssd1306_clear+0x18>)
1000055e:	f004 ff6f 	bl	10005440 <memset>
10000562:	e8bd 4008 	ldmia.w	sp!, {r3, lr}
10000566:	f7ff bfb5 	b.w	100004d4 <ssd1306_update>
1000056a:	bf00      	nop
1000056c:	200021d4 	.word	0x200021d4

10000570 <ssd1306_fb>:
10000570:	4800      	ldr	r0, [pc, #0]	@ (10000574 <ssd1306_fb+0x4>)
10000572:	4770      	bx	lr
10000574:	200021d4 	.word	0x200021d4

10000578 <ssd1306_fb_len>:
10000578:	f44f 7000 	mov.w	r0, #512	@ 0x200
1000057c:	4770      	bx	lr
1000057e:	bf00      	nop

10000580 <textui_init>:
10000580:	f04f 3220 	mov.w	r2, #538976288	@ 0x20202020
10000584:	2100      	movs	r1, #0
10000586:	b410      	push	{r4}
10000588:	4b0e      	ldr	r3, [pc, #56]	@ (100005c4 <textui_init+0x44>)
1000058a:	4c0f      	ldr	r4, [pc, #60]	@ (100005c8 <textui_init+0x48>)
1000058c:	480f      	ldr	r0, [pc, #60]	@ (100005cc <textui_init+0x4c>)
1000058e:	611c      	str	r4, [r3, #16]
10000590:	6218      	str	r0, [r3, #32]
10000592:	4c0f      	ldr	r4, [pc, #60]	@ (100005d0 <textui_init+0x50>)
10000594:	480f      	ldr	r0, [pc, #60]	@ (100005d4 <textui_init+0x54>)
10000596:	e9c3 2200 	strd	r2, r2, [r3]
1000059a:	e9c3 2202 	strd	r2, r2, [r3, #8]
1000059e:	e9c3 2205 	strd	r2, r2, [r3, #20]
100005a2:	e9c3 2209 	strd	r2, r2, [r3, #36]	@ 0x24
100005a6:	e9c3 220d 	strd	r2, r2, [r3, #52]	@ 0x34
100005aa:	631c      	str	r4, [r3, #48]	@ 0x30
100005ac:	6418      	str	r0, [r3, #64]	@ 0x40
100005ae:	4c0a      	ldr	r4, [pc, #40]	@ (100005d8 <textui_init+0x58>)
100005b0:	480a      	ldr	r0, [pc, #40]	@ (100005dc <textui_init+0x5c>)
100005b2:	61da      	str	r2, [r3, #28]
100005b4:	62da      	str	r2, [r3, #44]	@ 0x2c
100005b6:	63da      	str	r2, [r3, #60]	@ 0x3c
100005b8:	6021      	str	r1, [r4, #0]
100005ba:	6001      	str	r1, [r0, #0]
100005bc:	f85d 4b04 	ldr.w	r4, [sp], #4
100005c0:	4770      	bx	lr
100005c2:	bf00      	nop
100005c4:	2000283c 	.word	0x2000283c
100005c8:	20202000 	.word	0x20202000
100005cc:	20200020 	.word	0x20200020
100005d0:	20002020 	.word	0x20002020
100005d4:	00202020 	.word	0x00202020
100005d8:	2000219c 	.word	0x2000219c
100005dc:	20002198 	.word	0x20002198

100005e0 <textui_clear>:
100005e0:	f04f 3220 	mov.w	r2, #538976288	@ 0x20202020
100005e4:	2100      	movs	r1, #0
100005e6:	4b12      	ldr	r3, [pc, #72]	@ (10000630 <textui_clear+0x50>)
100005e8:	b410      	push	{r4}
100005ea:	e9c3 2200 	strd	r2, r2, [r3]
100005ee:	e9c3 2202 	strd	r2, r2, [r3, #8]
100005f2:	4c10      	ldr	r4, [pc, #64]	@ (10000634 <textui_clear+0x54>)
100005f4:	4810      	ldr	r0, [pc, #64]	@ (10000638 <textui_clear+0x58>)
100005f6:	f8c3 2011 	str.w	r2, [r3, #17]
100005fa:	f8c3 2015 	str.w	r2, [r3, #21]
100005fe:	f8c3 2019 	str.w	r2, [r3, #25]
10000602:	f8c3 201d 	str.w	r2, [r3, #29]
10000606:	f8c3 2022 	str.w	r2, [r3, #34]	@ 0x22
1000060a:	f8c3 2026 	str.w	r2, [r3, #38]	@ 0x26
1000060e:	f8c3 202a 	str.w	r2, [r3, #42]	@ 0x2a
10000612:	f8c3 202e 	str.w	r2, [r3, #46]	@ 0x2e
10000616:	f8c3 2033 	str.w	r2, [r3, #51]	@ 0x33
1000061a:	f8c3 2037 	str.w	r2, [r3, #55]	@ 0x37
1000061e:	f8c3 203b 	str.w	r2, [r3, #59]	@ 0x3b
10000622:	f8c3 203f 	str.w	r2, [r3, #63]	@ 0x3f
10000626:	6021      	str	r1, [r4, #0]
10000628:	6001      	str	r1, [r0, #0]
1000062a:	f85d 4b04 	ldr.w	r4, [sp], #4
1000062e:	4770      	bx	lr
10000630:	2000283c 	.word	0x2000283c
10000634:	2000219c 	.word	0x2000219c
10000638:	20002198 	.word	0x20002198

1000063c <textui_write_row0>:
1000063c:	f04f 3220 	mov.w	r2, #538976288	@ 0x20202020
10000640:	4b1a      	ldr	r3, [pc, #104]	@ (100006ac <textui_write_row0+0x70>)
10000642:	e9c3 2200 	strd	r2, r2, [r3]
10000646:	e9c3 2202 	strd	r2, r2, [r3, #8]
1000064a:	7802      	ldrb	r2, [r0, #0]
1000064c:	b36a      	cbz	r2, 100006aa <textui_write_row0+0x6e>
1000064e:	7841      	ldrb	r1, [r0, #1]
10000650:	701a      	strb	r2, [r3, #0]
10000652:	b351      	cbz	r1, 100006aa <textui_write_row0+0x6e>
10000654:	7882      	ldrb	r2, [r0, #2]
10000656:	7059      	strb	r1, [r3, #1]
10000658:	b33a      	cbz	r2, 100006aa <textui_write_row0+0x6e>
1000065a:	78c1      	ldrb	r1, [r0, #3]
1000065c:	709a      	strb	r2, [r3, #2]
1000065e:	b321      	cbz	r1, 100006aa <textui_write_row0+0x6e>
10000660:	7902      	ldrb	r2, [r0, #4]
10000662:	70d9      	strb	r1, [r3, #3]
10000664:	b30a      	cbz	r2, 100006aa <textui_write_row0+0x6e>
10000666:	7941      	ldrb	r1, [r0, #5]
10000668:	711a      	strb	r2, [r3, #4]
1000066a:	b1f1      	cbz	r1, 100006aa <textui_write_row0+0x6e>
1000066c:	7982      	ldrb	r2, [r0, #6]
1000066e:	7159      	strb	r1, [r3, #5]
10000670:	b1da      	cbz	r2, 100006aa <textui_write_row0+0x6e>
10000672:	79c1      	ldrb	r1, [r0, #7]
10000674:	719a      	strb	r2, [r3, #6]
10000676:	b1c1      	cbz	r1, 100006aa <textui_write_row0+0x6e>
10000678:	7a02      	ldrb	r2, [r0, #8]
1000067a:	71d9      	strb	r1, [r3, #7]
1000067c:	b1aa      	cbz	r2, 100006aa <textui_write_row0+0x6e>
1000067e:	7a41      	ldrb	r1, [r0, #9]
10000680:	721a      	strb	r2, [r3, #8]
10000682:	b191      	cbz	r1, 100006aa <textui_write_row0+0x6e>
10000684:	7a82      	ldrb	r2, [r0, #10]
10000686:	7259      	strb	r1, [r3, #9]
10000688:	b17a      	cbz	r2, 100006aa <textui_write_row0+0x6e>
1000068a:	7ac1      	ldrb	r1, [r0, #11]
1000068c:	729a      	strb	r2, [r3, #10]
1000068e:	b161      	cbz	r1, 100006aa <textui_write_row0+0x6e>
10000690:	7b02      	ldrb	r2, [r0, #12]
10000692:	72d9      	strb	r1, [r3, #11]
10000694:	b14a      	cbz	r2, 100006aa <textui_write_row0+0x6e>
10000696:	7b41      	ldrb	r1, [r0, #13]
10000698:	731a      	strb	r2, [r3, #12]
1000069a:	b131      	cbz	r1, 100006aa <textui_write_row0+0x6e>
1000069c:	7b82      	ldrb	r2, [r0, #14]
1000069e:	7359      	strb	r1, [r3, #13]
100006a0:	b11a      	cbz	r2, 100006aa <textui_write_row0+0x6e>
100006a2:	7bc1      	ldrb	r1, [r0, #15]
100006a4:	739a      	strb	r2, [r3, #14]
100006a6:	b101      	cbz	r1, 100006aa <textui_write_row0+0x6e>
100006a8:	73d9      	strb	r1, [r3, #15]
100006aa:	4770      	bx	lr
100006ac:	2000283c 	.word	0x2000283c

100006b0 <textui_putc>:
100006b0:	280d      	cmp	r0, #13
100006b2:	d02f      	beq.n	10000714 <textui_putc+0x64>
100006b4:	b470      	push	{r4, r5, r6}
100006b6:	4d7b      	ldr	r5, [pc, #492]	@ (100008a4 <textui_putc+0x1f4>)
100006b8:	280a      	cmp	r0, #10
100006ba:	682b      	ldr	r3, [r5, #0]
100006bc:	f000 80b6 	beq.w	1000082c <textui_putc+0x17c>
100006c0:	2808      	cmp	r0, #8
100006c2:	d019      	beq.n	100006f8 <textui_putc+0x48>
100006c4:	287f      	cmp	r0, #127	@ 0x7f
100006c6:	d017      	beq.n	100006f8 <textui_putc+0x48>
100006c8:	f1a0 0261 	sub.w	r2, r0, #97	@ 0x61
100006cc:	b2d2      	uxtb	r2, r2
100006ce:	2a19      	cmp	r2, #25
100006d0:	d921      	bls.n	10000716 <textui_putc+0x66>
100006d2:	282f      	cmp	r0, #47	@ 0x2f
100006d4:	f240 80b4 	bls.w	10000840 <textui_putc+0x190>
100006d8:	2839      	cmp	r0, #57	@ 0x39
100006da:	f200 80dc 	bhi.w	10000896 <textui_putc+0x1e6>
100006de:	4e72      	ldr	r6, [pc, #456]	@ (100008a8 <textui_putc+0x1f8>)
100006e0:	4c72      	ldr	r4, [pc, #456]	@ (100008ac <textui_putc+0x1fc>)
100006e2:	6832      	ldr	r2, [r6, #0]
100006e4:	eb03 1103 	add.w	r1, r3, r3, lsl #4
100006e8:	4421      	add	r1, r4
100006ea:	5488      	strb	r0, [r1, r2]
100006ec:	3201      	adds	r2, #1
100006ee:	2a0f      	cmp	r2, #15
100006f0:	dc5e      	bgt.n	100007b0 <textui_putc+0x100>
100006f2:	6032      	str	r2, [r6, #0]
100006f4:	bc70      	pop	{r4, r5, r6}
100006f6:	4770      	bx	lr
100006f8:	496b      	ldr	r1, [pc, #428]	@ (100008a8 <textui_putc+0x1f8>)
100006fa:	680a      	ldr	r2, [r1, #0]
100006fc:	2a00      	cmp	r2, #0
100006fe:	dd0d      	ble.n	1000071c <textui_putc+0x6c>
10000700:	2420      	movs	r4, #32
10000702:	486a      	ldr	r0, [pc, #424]	@ (100008ac <textui_putc+0x1fc>)
10000704:	eb03 1303 	add.w	r3, r3, r3, lsl #4
10000708:	3a01      	subs	r2, #1
1000070a:	4403      	add	r3, r0
1000070c:	549c      	strb	r4, [r3, r2]
1000070e:	600a      	str	r2, [r1, #0]
10000710:	bc70      	pop	{r4, r5, r6}
10000712:	4770      	bx	lr
10000714:	4770      	bx	lr
10000716:	3820      	subs	r0, #32
10000718:	b2c0      	uxtb	r0, r0
1000071a:	e7e0      	b.n	100006de <textui_putc+0x2e>
1000071c:	2b00      	cmp	r3, #0
1000071e:	dde9      	ble.n	100006f4 <textui_putc+0x44>
10000720:	3b01      	subs	r3, #1
10000722:	4c62      	ldr	r4, [pc, #392]	@ (100008ac <textui_putc+0x1fc>)
10000724:	eb03 1203 	add.w	r2, r3, r3, lsl #4
10000728:	4422      	add	r2, r4
1000072a:	602b      	str	r3, [r5, #0]
1000072c:	7bd5      	ldrb	r5, [r2, #15]
1000072e:	0118      	lsls	r0, r3, #4
10000730:	2d20      	cmp	r5, #32
10000732:	f040 8091 	bne.w	10000858 <textui_putc+0x1a8>
10000736:	7b95      	ldrb	r5, [r2, #14]
10000738:	2d20      	cmp	r5, #32
1000073a:	f040 8090 	bne.w	1000085e <textui_putc+0x1ae>
1000073e:	7b55      	ldrb	r5, [r2, #13]
10000740:	2d20      	cmp	r5, #32
10000742:	d17f      	bne.n	10000844 <textui_putc+0x194>
10000744:	7b15      	ldrb	r5, [r2, #12]
10000746:	2d20      	cmp	r5, #32
10000748:	f040 808b 	bne.w	10000862 <textui_putc+0x1b2>
1000074c:	7ad5      	ldrb	r5, [r2, #11]
1000074e:	2d20      	cmp	r5, #32
10000750:	f040 8089 	bne.w	10000866 <textui_putc+0x1b6>
10000754:	7a95      	ldrb	r5, [r2, #10]
10000756:	2d20      	cmp	r5, #32
10000758:	f040 8087 	bne.w	1000086a <textui_putc+0x1ba>
1000075c:	7a55      	ldrb	r5, [r2, #9]
1000075e:	2d20      	cmp	r5, #32
10000760:	f040 8085 	bne.w	1000086e <textui_putc+0x1be>
10000764:	7a12      	ldrb	r2, [r2, #8]
10000766:	2a20      	cmp	r2, #32
10000768:	f040 8083 	bne.w	10000872 <textui_putc+0x1c2>
1000076c:	18c5      	adds	r5, r0, r3
1000076e:	1962      	adds	r2, r4, r5
10000770:	79d6      	ldrb	r6, [r2, #7]
10000772:	2e20      	cmp	r6, #32
10000774:	d17f      	bne.n	10000876 <textui_putc+0x1c6>
10000776:	7996      	ldrb	r6, [r2, #6]
10000778:	2e20      	cmp	r6, #32
1000077a:	d17e      	bne.n	1000087a <textui_putc+0x1ca>
1000077c:	7956      	ldrb	r6, [r2, #5]
1000077e:	2e20      	cmp	r6, #32
10000780:	d17d      	bne.n	1000087e <textui_putc+0x1ce>
10000782:	7916      	ldrb	r6, [r2, #4]
10000784:	2e20      	cmp	r6, #32
10000786:	d17c      	bne.n	10000882 <textui_putc+0x1d2>
10000788:	78d6      	ldrb	r6, [r2, #3]
1000078a:	2e20      	cmp	r6, #32
1000078c:	d17b      	bne.n	10000886 <textui_putc+0x1d6>
1000078e:	7896      	ldrb	r6, [r2, #2]
10000790:	2e20      	cmp	r6, #32
10000792:	d17a      	bne.n	1000088a <textui_putc+0x1da>
10000794:	7852      	ldrb	r2, [r2, #1]
10000796:	2a20      	cmp	r2, #32
10000798:	d179      	bne.n	1000088e <textui_putc+0x1de>
1000079a:	5d62      	ldrb	r2, [r4, r5]
1000079c:	2a20      	cmp	r2, #32
1000079e:	d178      	bne.n	10000892 <textui_putc+0x1e2>
100007a0:	2200      	movs	r2, #0
100007a2:	600a      	str	r2, [r1, #0]
100007a4:	4615      	mov	r5, r2
100007a6:	2220      	movs	r2, #32
100007a8:	4418      	add	r0, r3
100007aa:	4420      	add	r0, r4
100007ac:	5542      	strb	r2, [r0, r5]
100007ae:	e7a1      	b.n	100006f4 <textui_putc+0x44>
100007b0:	2200      	movs	r2, #0
100007b2:	3301      	adds	r3, #1
100007b4:	2b03      	cmp	r3, #3
100007b6:	602b      	str	r3, [r5, #0]
100007b8:	6032      	str	r2, [r6, #0]
100007ba:	dd9b      	ble.n	100006f4 <textui_putc+0x44>
100007bc:	4626      	mov	r6, r4
100007be:	f8d4 2019 	ldr.w	r2, [r4, #25]
100007c2:	f8d4 301d 	ldr.w	r3, [r4, #29]
100007c6:	f8d4 0011 	ldr.w	r0, [r4, #17]
100007ca:	f8d4 1015 	ldr.w	r1, [r4, #21]
100007ce:	f04f 3c20 	mov.w	ip, #538976288	@ 0x20202020
100007d2:	c60f      	stmia	r6!, {r0, r1, r2, r3}
100007d4:	f8d4 3022 	ldr.w	r3, [r4, #34]	@ 0x22
100007d8:	f8d4 202a 	ldr.w	r2, [r4, #42]	@ 0x2a
100007dc:	f8c4 3011 	str.w	r3, [r4, #17]
100007e0:	f8d4 3026 	ldr.w	r3, [r4, #38]	@ 0x26
100007e4:	f8c4 2019 	str.w	r2, [r4, #25]
100007e8:	f8c4 3015 	str.w	r3, [r4, #21]
100007ec:	f8d4 302e 	ldr.w	r3, [r4, #46]	@ 0x2e
100007f0:	f8d4 2033 	ldr.w	r2, [r4, #51]	@ 0x33
100007f4:	f8c4 301d 	str.w	r3, [r4, #29]
100007f8:	f8d4 3037 	ldr.w	r3, [r4, #55]	@ 0x37
100007fc:	f8c4 2022 	str.w	r2, [r4, #34]	@ 0x22
10000800:	f8c4 3026 	str.w	r3, [r4, #38]	@ 0x26
10000804:	f8d4 303f 	ldr.w	r3, [r4, #63]	@ 0x3f
10000808:	f8d4 203b 	ldr.w	r2, [r4, #59]	@ 0x3b
1000080c:	f8c4 302e 	str.w	r3, [r4, #46]	@ 0x2e
10000810:	2303      	movs	r3, #3
10000812:	f8c4 202a 	str.w	r2, [r4, #42]	@ 0x2a
10000816:	f8c4 c033 	str.w	ip, [r4, #51]	@ 0x33
1000081a:	f8c4 c037 	str.w	ip, [r4, #55]	@ 0x37
1000081e:	f8c4 c03b 	str.w	ip, [r4, #59]	@ 0x3b
10000822:	f8c4 c03f 	str.w	ip, [r4, #63]	@ 0x3f
10000826:	602b      	str	r3, [r5, #0]
10000828:	bc70      	pop	{r4, r5, r6}
1000082a:	4770      	bx	lr
1000082c:	2100      	movs	r1, #0
1000082e:	3301      	adds	r3, #1
10000830:	4a1d      	ldr	r2, [pc, #116]	@ (100008a8 <textui_putc+0x1f8>)
10000832:	2b03      	cmp	r3, #3
10000834:	602b      	str	r3, [r5, #0]
10000836:	6011      	str	r1, [r2, #0]
10000838:	f77f af5c 	ble.w	100006f4 <textui_putc+0x44>
1000083c:	4c1b      	ldr	r4, [pc, #108]	@ (100008ac <textui_putc+0x1fc>)
1000083e:	e7bd      	b.n	100007bc <textui_putc+0x10c>
10000840:	2000      	movs	r0, #0
10000842:	e74c      	b.n	100006de <textui_putc+0x2e>
10000844:	250d      	movs	r5, #13
10000846:	18c6      	adds	r6, r0, r3
10000848:	1c6a      	adds	r2, r5, #1
1000084a:	4426      	add	r6, r4
1000084c:	5cb6      	ldrb	r6, [r6, r2]
1000084e:	600a      	str	r2, [r1, #0]
10000850:	2e20      	cmp	r6, #32
10000852:	d1a7      	bne.n	100007a4 <textui_putc+0xf4>
10000854:	600d      	str	r5, [r1, #0]
10000856:	e7a6      	b.n	100007a6 <textui_putc+0xf6>
10000858:	250f      	movs	r5, #15
1000085a:	600d      	str	r5, [r1, #0]
1000085c:	e7a3      	b.n	100007a6 <textui_putc+0xf6>
1000085e:	250e      	movs	r5, #14
10000860:	e7f1      	b.n	10000846 <textui_putc+0x196>
10000862:	250c      	movs	r5, #12
10000864:	e7ef      	b.n	10000846 <textui_putc+0x196>
10000866:	250b      	movs	r5, #11
10000868:	e7ed      	b.n	10000846 <textui_putc+0x196>
1000086a:	250a      	movs	r5, #10
1000086c:	e7eb      	b.n	10000846 <textui_putc+0x196>
1000086e:	2509      	movs	r5, #9
10000870:	e7e9      	b.n	10000846 <textui_putc+0x196>
10000872:	2508      	movs	r5, #8
10000874:	e7e7      	b.n	10000846 <textui_putc+0x196>
10000876:	2507      	movs	r5, #7
10000878:	e7e5      	b.n	10000846 <textui_putc+0x196>
1000087a:	2506      	movs	r5, #6
1000087c:	e7e3      	b.n	10000846 <textui_putc+0x196>
1000087e:	2505      	movs	r5, #5
10000880:	e7e1      	b.n	10000846 <textui_putc+0x196>
10000882:	2504      	movs	r5, #4
10000884:	e7df      	b.n	10000846 <textui_putc+0x196>
10000886:	2503      	movs	r5, #3
10000888:	e7dd      	b.n	10000846 <textui_putc+0x196>
1000088a:	2502      	movs	r5, #2
1000088c:	e7db      	b.n	10000846 <textui_putc+0x196>
1000088e:	2501      	movs	r5, #1
10000890:	e7d9      	b.n	10000846 <textui_putc+0x196>
10000892:	2500      	movs	r5, #0
10000894:	e7d7      	b.n	10000846 <textui_putc+0x196>
10000896:	f1a0 0241 	sub.w	r2, r0, #65	@ 0x41
1000089a:	b2d2      	uxtb	r2, r2
1000089c:	2a1a      	cmp	r2, #26
1000089e:	bf28      	it	cs
100008a0:	2000      	movcs	r0, #0
100008a2:	e71c      	b.n	100006de <textui_putc+0x2e>
100008a4:	2000219c 	.word	0x2000219c
100008a8:	20002198 	.word	0x20002198
100008ac:	2000283c 	.word	0x2000283c

100008b0 <textui_render>:
100008b0:	e92d 47f0 	stmdb	sp!, {r4, r5, r6, r7, r8, r9, sl, lr}
100008b4:	f7ff fe5c 	bl	10000570 <ssd1306_fb>
100008b8:	4604      	mov	r4, r0
100008ba:	f7ff fe5d 	bl	10000578 <ssd1306_fb_len>
100008be:	2100      	movs	r1, #0
100008c0:	4602      	mov	r2, r0
100008c2:	4620      	mov	r0, r4
100008c4:	f004 fdbc 	bl	10005440 <memset>
100008c8:	2580      	movs	r5, #128	@ 0x80
100008ca:	f04f 0800 	mov.w	r8, #0
100008ce:	4f22      	ldr	r7, [pc, #136]	@ (10000958 <textui_render+0xa8>)
100008d0:	4e22      	ldr	r6, [pc, #136]	@ (1000095c <textui_render+0xac>)
100008d2:	46c1      	mov	r9, r8
100008d4:	46ba      	mov	sl, r7
100008d6:	e01c      	b.n	10000912 <textui_render+0x62>
100008d8:	b2dc      	uxtb	r4, r3
100008da:	3c40      	subs	r4, #64	@ 0x40
100008dc:	b224      	sxth	r4, r4
100008de:	eb06 04c4 	add.w	r4, r6, r4, lsl #3
100008e2:	f7ff fe45 	bl	10000570 <ssd1306_fb>
100008e6:	7823      	ldrb	r3, [r4, #0]
100008e8:	f800 3009 	strb.w	r3, [r0, r9]
100008ec:	7863      	ldrb	r3, [r4, #1]
100008ee:	4448      	add	r0, r9
100008f0:	7043      	strb	r3, [r0, #1]
100008f2:	78a3      	ldrb	r3, [r4, #2]
100008f4:	f109 0908 	add.w	r9, r9, #8
100008f8:	7083      	strb	r3, [r0, #2]
100008fa:	78e3      	ldrb	r3, [r4, #3]
100008fc:	454d      	cmp	r5, r9
100008fe:	70c3      	strb	r3, [r0, #3]
10000900:	7923      	ldrb	r3, [r4, #4]
10000902:	7103      	strb	r3, [r0, #4]
10000904:	7963      	ldrb	r3, [r4, #5]
10000906:	7143      	strb	r3, [r0, #5]
10000908:	79a3      	ldrb	r3, [r4, #6]
1000090a:	7183      	strb	r3, [r0, #6]
1000090c:	79e3      	ldrb	r3, [r4, #7]
1000090e:	71c3      	strb	r3, [r0, #7]
10000910:	d015      	beq.n	1000093e <textui_render+0x8e>
10000912:	f81a 4f01 	ldrb.w	r4, [sl, #1]!
10000916:	f1a4 0361 	sub.w	r3, r4, #97	@ 0x61
1000091a:	2b19      	cmp	r3, #25
1000091c:	f1a4 0141 	sub.w	r1, r4, #65	@ 0x41
10000920:	f1a4 0230 	sub.w	r2, r4, #48	@ 0x30
10000924:	f1a4 0320 	sub.w	r3, r4, #32
10000928:	d9d6      	bls.n	100008d8 <textui_render+0x28>
1000092a:	2919      	cmp	r1, #25
1000092c:	d9d5      	bls.n	100008da <textui_render+0x2a>
1000092e:	2a09      	cmp	r2, #9
10000930:	bf9b      	ittet	ls
10000932:	3c15      	subls	r4, #21
10000934:	b224      	sxthls	r4, r4
10000936:	4634      	movhi	r4, r6
10000938:	eb06 04c4 	addls.w	r4, r6, r4, lsl #3
1000093c:	e7d1      	b.n	100008e2 <textui_render+0x32>
1000093e:	3580      	adds	r5, #128	@ 0x80
10000940:	f5b5 7f20 	cmp.w	r5, #640	@ 0x280
10000944:	f108 0880 	add.w	r8, r8, #128	@ 0x80
10000948:	f107 0711 	add.w	r7, r7, #17
1000094c:	d1c1      	bne.n	100008d2 <textui_render+0x22>
1000094e:	e8bd 47f0 	ldmia.w	sp!, {r4, r5, r6, r7, r8, r9, sl, lr}
10000952:	f7ff bdbf 	b.w	100004d4 <ssd1306_update>
10000956:	bf00      	nop
10000958:	2000283b 	.word	0x2000283b
1000095c:	20001180 	.word	0x20001180

10000960 <show_and_print>:
10000960:	b538      	push	{r3, r4, r5, lr}
10000962:	4604      	mov	r4, r0
10000964:	f7ff fe3c 	bl	100005e0 <textui_clear>
10000968:	4620      	mov	r0, r4
1000096a:	f7ff fe67 	bl	1000063c <textui_write_row0>
1000096e:	f7ff ff9f 	bl	100008b0 <textui_render>
10000972:	4b1a      	ldr	r3, [pc, #104]	@ (100009dc <show_and_print+0x7c>)
10000974:	7821      	ldrb	r1, [r4, #0]
10000976:	f9b3 0000 	ldrsh.w	r0, [r3]
1000097a:	b159      	cbz	r1, 10000994 <show_and_print+0x34>
1000097c:	250d      	movs	r5, #13
1000097e:	4a18      	ldr	r2, [pc, #96]	@ (100009e0 <show_and_print+0x80>)
10000980:	4288      	cmp	r0, r1
10000982:	d018      	beq.n	100009b6 <show_and_print+0x56>
10000984:	6993      	ldr	r3, [r2, #24]
10000986:	069b      	lsls	r3, r3, #26
10000988:	d4fc      	bmi.n	10000984 <show_and_print+0x24>
1000098a:	6011      	str	r1, [r2, #0]
1000098c:	f814 1f01 	ldrb.w	r1, [r4, #1]!
10000990:	2900      	cmp	r1, #0
10000992:	d1f5      	bne.n	10000980 <show_and_print+0x20>
10000994:	280d      	cmp	r0, #13
10000996:	d013      	beq.n	100009c0 <show_and_print+0x60>
10000998:	4a11      	ldr	r2, [pc, #68]	@ (100009e0 <show_and_print+0x80>)
1000099a:	6993      	ldr	r3, [r2, #24]
1000099c:	069c      	lsls	r4, r3, #26
1000099e:	d4fc      	bmi.n	1000099a <show_and_print+0x3a>
100009a0:	230d      	movs	r3, #13
100009a2:	280a      	cmp	r0, #10
100009a4:	6013      	str	r3, [r2, #0]
100009a6:	d012      	beq.n	100009ce <show_and_print+0x6e>
100009a8:	4a0d      	ldr	r2, [pc, #52]	@ (100009e0 <show_and_print+0x80>)
100009aa:	6993      	ldr	r3, [r2, #24]
100009ac:	069b      	lsls	r3, r3, #26
100009ae:	d4fc      	bmi.n	100009aa <show_and_print+0x4a>
100009b0:	230a      	movs	r3, #10
100009b2:	6013      	str	r3, [r2, #0]
100009b4:	bd38      	pop	{r3, r4, r5, pc}
100009b6:	6993      	ldr	r3, [r2, #24]
100009b8:	069b      	lsls	r3, r3, #26
100009ba:	d4fc      	bmi.n	100009b6 <show_and_print+0x56>
100009bc:	6015      	str	r5, [r2, #0]
100009be:	e7e1      	b.n	10000984 <show_and_print+0x24>
100009c0:	4a07      	ldr	r2, [pc, #28]	@ (100009e0 <show_and_print+0x80>)
100009c2:	6993      	ldr	r3, [r2, #24]
100009c4:	069d      	lsls	r5, r3, #26
100009c6:	d4fc      	bmi.n	100009c2 <show_and_print+0x62>
100009c8:	230d      	movs	r3, #13
100009ca:	6013      	str	r3, [r2, #0]
100009cc:	e7e4      	b.n	10000998 <show_and_print+0x38>
100009ce:	4a04      	ldr	r2, [pc, #16]	@ (100009e0 <show_and_print+0x80>)
100009d0:	6993      	ldr	r3, [r2, #24]
100009d2:	0699      	lsls	r1, r3, #26
100009d4:	d4fc      	bmi.n	100009d0 <show_and_print+0x70>
100009d6:	230d      	movs	r3, #13
100009d8:	6013      	str	r3, [r2, #0]
100009da:	e7e5      	b.n	100009a8 <show_and_print+0x48>
100009dc:	20002880 	.word	0x20002880
100009e0:	40070000 	.word	0x40070000

100009e4 <gpio_set_function>:
100009e4:	b410      	push	{r4}
100009e6:	f44f 7480 	mov.w	r4, #256	@ 0x100
100009ea:	4b0c      	ldr	r3, [pc, #48]	@ (10000a1c <gpio_set_function+0x38>)
100009ec:	f853 2020 	ldr.w	r2, [r3, r0, lsl #2]
100009f0:	eb03 0380 	add.w	r3, r3, r0, lsl #2
100009f4:	00c0      	lsls	r0, r0, #3
100009f6:	f082 0240 	eor.w	r2, r2, #64	@ 0x40
100009fa:	f100 4080 	add.w	r0, r0, #1073741824	@ 0x40000000
100009fe:	f503 5c80 	add.w	ip, r3, #4096	@ 0x1000
10000a02:	f002 02c0 	and.w	r2, r2, #192	@ 0xc0
10000a06:	f500 3020 	add.w	r0, r0, #163840	@ 0x28000
10000a0a:	f503 5340 	add.w	r3, r3, #12288	@ 0x3000
10000a0e:	f8cc 2000 	str.w	r2, [ip]
10000a12:	6041      	str	r1, [r0, #4]
10000a14:	601c      	str	r4, [r3, #0]
10000a16:	f85d 4b04 	ldr.w	r4, [sp], #4
10000a1a:	4770      	bx	lr
10000a1c:	40038004 	.word	0x40038004

10000a20 <gpio_set_pulls>:
10000a20:	b410      	push	{r4}
10000a22:	4c08      	ldr	r4, [pc, #32]	@ (10000a44 <gpio_set_pulls+0x24>)
10000a24:	00c9      	lsls	r1, r1, #3
10000a26:	ea41 0182 	orr.w	r1, r1, r2, lsl #2
10000a2a:	f854 2020 	ldr.w	r2, [r4, r0, lsl #2]
10000a2e:	eb04 0380 	add.w	r3, r4, r0, lsl #2
10000a32:	4051      	eors	r1, r2
10000a34:	f503 5380 	add.w	r3, r3, #4096	@ 0x1000
10000a38:	f001 010c 	and.w	r1, r1, #12
10000a3c:	f85d 4b04 	ldr.w	r4, [sp], #4
10000a40:	6019      	str	r1, [r3, #0]
10000a42:	4770      	bx	lr
10000a44:	40038004 	.word	0x40038004

10000a48 <gpio_init>:
10000a48:	b430      	push	{r4, r5}
10000a4a:	f04f 0300 	mov.w	r3, #0
10000a4e:	ec43 0044 	gpioc_bit_oe_put r0, r3
10000a52:	ec43 0040 	gpioc_bit_out_put r0, r3
10000a56:	2505      	movs	r5, #5
10000a58:	f44f 7480 	mov.w	r4, #256	@ 0x100
10000a5c:	4b0b      	ldr	r3, [pc, #44]	@ (10000a8c <gpio_init+0x44>)
10000a5e:	00c2      	lsls	r2, r0, #3
10000a60:	f853 1020 	ldr.w	r1, [r3, r0, lsl #2]
10000a64:	eb03 0080 	add.w	r0, r3, r0, lsl #2
10000a68:	f081 0140 	eor.w	r1, r1, #64	@ 0x40
10000a6c:	f102 4380 	add.w	r3, r2, #1073741824	@ 0x40000000
10000a70:	f503 3320 	add.w	r3, r3, #163840	@ 0x28000
10000a74:	f001 02c0 	and.w	r2, r1, #192	@ 0xc0
10000a78:	f500 5180 	add.w	r1, r0, #4096	@ 0x1000
10000a7c:	f500 5040 	add.w	r0, r0, #12288	@ 0x3000
10000a80:	600a      	str	r2, [r1, #0]
10000a82:	605d      	str	r5, [r3, #4]
10000a84:	6004      	str	r4, [r0, #0]
10000a86:	bc30      	pop	{r4, r5}
10000a88:	4770      	bx	lr
10000a8a:	bf00      	nop
10000a8c:	40038004 	.word	0x40038004

10000a90 <panic>:
10000a90:	b40f      	push	{r0, r1, r2, r3}
10000a92:	b500      	push	{lr}
10000a94:	b083      	sub	sp, #12
10000a96:	9c04      	ldr	r4, [sp, #16]
10000a98:	4807      	ldr	r0, [pc, #28]	@ (10000ab8 <panic+0x28>)
10000a9a:	f001 fd95 	bl	100025c8 <__wrap_puts>
10000a9e:	b13c      	cbz	r4, 10000ab0 <panic+0x20>
10000aa0:	a905      	add	r1, sp, #20
10000aa2:	4620      	mov	r0, r4
10000aa4:	9101      	str	r1, [sp, #4]
10000aa6:	f001 fc1f 	bl	100022e8 <weak_raw_vprintf>
10000aaa:	4804      	ldr	r0, [pc, #16]	@ (10000abc <panic+0x2c>)
10000aac:	f001 fd8c 	bl	100025c8 <__wrap_puts>
10000ab0:	2001      	movs	r0, #1
10000ab2:	f001 fc31 	bl	10002318 <_exit>
10000ab6:	bf00      	nop
10000ab8:	10005a04 	.word	0x10005a04
10000abc:	10005a14 	.word	0x10005a14

10000ac0 <hw_claim_or_assert>:
10000ac0:	b570      	push	{r4, r5, r6, lr}
10000ac2:	4686      	mov	lr, r0
10000ac4:	f3ef 8510 	mrs	r5, PRIMASK
10000ac8:	b672      	cpsid	i
10000aca:	4c12      	ldr	r4, [pc, #72]	@ (10000b14 <hw_claim_or_assert+0x54>)
10000acc:	e8d4 6fcf 	ldaexb	r6, [r4]
10000ad0:	2001      	movs	r0, #1
10000ad2:	2e00      	cmp	r6, #0
10000ad4:	d1fa      	bne.n	10000acc <hw_claim_or_assert+0xc>
10000ad6:	e8c4 0f46 	strexb	r6, r0, [r4]
10000ada:	2e00      	cmp	r6, #0
10000adc:	d1f6      	bne.n	10000acc <hw_claim_or_assert+0xc>
10000ade:	f3bf 8f5f 	dmb	sy
10000ae2:	f04f 0c01 	mov.w	ip, #1
10000ae6:	08c8      	lsrs	r0, r1, #3
10000ae8:	f001 0307 	and.w	r3, r1, #7
10000aec:	fa0c f303 	lsl.w	r3, ip, r3
10000af0:	f81e c000 	ldrb.w	ip, [lr, r0]
10000af4:	ea1c 0603 	ands.w	r6, ip, r3
10000af8:	d108      	bne.n	10000b0c <hw_claim_or_assert+0x4c>
10000afa:	ea4c 0c03 	orr.w	ip, ip, r3
10000afe:	f80e c000 	strb.w	ip, [lr, r0]
10000b02:	e8c4 6f8f 	stlb	r6, [r4]
10000b06:	f385 8810 	msr	PRIMASK, r5
10000b0a:	bd70      	pop	{r4, r5, r6, pc}
10000b0c:	4610      	mov	r0, r2
10000b0e:	f7ff ffbf 	bl	10000a90 <panic>
10000b12:	bf00      	nop
10000b14:	20001d57 	.word	0x20001d57

10000b18 <hw_claim_unused_from_range>:
10000b18:	b5f8      	push	{r3, r4, r5, r6, r7, lr}
10000b1a:	f3ef 8710 	mrs	r7, PRIMASK
10000b1e:	b672      	cpsid	i
10000b20:	4e1c      	ldr	r6, [pc, #112]	@ (10000b94 <hw_claim_unused_from_range+0x7c>)
10000b22:	e8d6 5fcf 	ldaexb	r5, [r6]
10000b26:	2401      	movs	r4, #1
10000b28:	2d00      	cmp	r5, #0
10000b2a:	d1fa      	bne.n	10000b22 <hw_claim_unused_from_range+0xa>
10000b2c:	e8c6 4f45 	strexb	r5, r4, [r6]
10000b30:	2d00      	cmp	r5, #0
10000b32:	d1f6      	bne.n	10000b22 <hw_claim_unused_from_range+0xa>
10000b34:	f3bf 8f5f 	dmb	sy
10000b38:	429a      	cmp	r2, r3
10000b3a:	d81b      	bhi.n	10000b74 <hw_claim_unused_from_range+0x5c>
10000b3c:	2501      	movs	r5, #1
10000b3e:	e002      	b.n	10000b46 <hw_claim_unused_from_range+0x2e>
10000b40:	3201      	adds	r2, #1
10000b42:	4293      	cmp	r3, r2
10000b44:	d322      	bcc.n	10000b8c <hw_claim_unused_from_range+0x74>
10000b46:	08d4      	lsrs	r4, r2, #3
10000b48:	f810 e004 	ldrb.w	lr, [r0, r4]
10000b4c:	f002 0c07 	and.w	ip, r2, #7
10000b50:	fa05 fc0c 	lsl.w	ip, r5, ip
10000b54:	ea1e 0f0c 	tst.w	lr, ip
10000b58:	d1f2      	bne.n	10000b40 <hw_claim_unused_from_range+0x28>
10000b5a:	ea4e 0e0c 	orr.w	lr, lr, ip
10000b5e:	f800 e004 	strb.w	lr, [r0, r4]
10000b62:	4610      	mov	r0, r2
10000b64:	2300      	movs	r3, #0
10000b66:	e8c6 3f8f 	stlb	r3, [r6]
10000b6a:	f387 8810 	msr	PRIMASK, r7
10000b6e:	4298      	cmp	r0, r3
10000b70:	db07      	blt.n	10000b82 <hw_claim_unused_from_range+0x6a>
10000b72:	bdf8      	pop	{r3, r4, r5, r6, r7, pc}
10000b74:	2300      	movs	r3, #0
10000b76:	e8c6 3f8f 	stlb	r3, [r6]
10000b7a:	f387 8810 	msr	PRIMASK, r7
10000b7e:	f04f 30ff 	mov.w	r0, #4294967295	@ 0xffffffff
10000b82:	2900      	cmp	r1, #0
10000b84:	d0f5      	beq.n	10000b72 <hw_claim_unused_from_range+0x5a>
10000b86:	9806      	ldr	r0, [sp, #24]
10000b88:	f7ff ff82 	bl	10000a90 <panic>
10000b8c:	f04f 30ff 	mov.w	r0, #4294967295	@ 0xffffffff
10000b90:	e7e8      	b.n	10000b64 <hw_claim_unused_from_range+0x4c>
10000b92:	bf00      	nop
10000b94:	20001d57 	.word	0x20001d57

10000b98 <next_striped_spin_lock_num>:
10000b98:	4a04      	ldr	r2, [pc, #16]	@ (10000bac <next_striped_spin_lock_num+0x14>)
10000b9a:	7810      	ldrb	r0, [r2, #0]
10000b9c:	1c43      	adds	r3, r0, #1
10000b9e:	b2db      	uxtb	r3, r3
10000ba0:	2b18      	cmp	r3, #24
10000ba2:	bf28      	it	cs
10000ba4:	2310      	movcs	r3, #16
10000ba6:	7013      	strb	r3, [r2, #0]
10000ba8:	4770      	bx	lr
10000baa:	bf00      	nop
10000bac:	200012a8 	.word	0x200012a8

10000bb0 <spin_lock_claim_unused>:
10000bb0:	b510      	push	{r4, lr}
10000bb2:	4c05      	ldr	r4, [pc, #20]	@ (10000bc8 <spin_lock_claim_unused+0x18>)
10000bb4:	b082      	sub	sp, #8
10000bb6:	4601      	mov	r1, r0
10000bb8:	231f      	movs	r3, #31
10000bba:	2218      	movs	r2, #24
10000bbc:	9400      	str	r4, [sp, #0]
10000bbe:	4803      	ldr	r0, [pc, #12]	@ (10000bcc <spin_lock_claim_unused+0x1c>)
10000bc0:	f7ff ffaa 	bl	10000b18 <hw_claim_unused_from_range>
10000bc4:	b002      	add	sp, #8
10000bc6:	bd10      	pop	{r4, pc}
10000bc8:	10005a18 	.word	0x10005a18
10000bcc:	20002168 	.word	0x20002168

10000bd0 <spinlock_set_extexclall>:
10000bd0:	f04f 22e0 	mov.w	r2, #3758153728	@ 0xe000e000
10000bd4:	6893      	ldr	r3, [r2, #8]
10000bd6:	f043 5300 	orr.w	r3, r3, #536870912	@ 0x20000000
10000bda:	6093      	str	r3, [r2, #8]
10000bdc:	4770      	bx	lr
10000bde:	bf00      	nop

10000be0 <spin_locks_reset>:
10000be0:	2100      	movs	r1, #0
10000be2:	4b04      	ldr	r3, [pc, #16]	@ (10000bf4 <spin_locks_reset+0x14>)
10000be4:	f103 0220 	add.w	r2, r3, #32
10000be8:	e8c3 1f8f 	stlb	r1, [r3]
10000bec:	3301      	adds	r3, #1
10000bee:	4293      	cmp	r3, r2
10000bf0:	d1fa      	bne.n	10000be8 <spin_locks_reset+0x8>
10000bf2:	4770      	bx	lr
10000bf4:	20001d4c 	.word	0x20001d4c

10000bf8 <runtime_init_per_core_irq_priorities>:
10000bf8:	f04f 23e0 	mov.w	r3, #3758153728	@ 0xe000e000
10000bfc:	f04f 3280 	mov.w	r2, #2155905152	@ 0x80808080
10000c00:	f8c3 2400 	str.w	r2, [r3, #1024]	@ 0x400
10000c04:	f8c3 2404 	str.w	r2, [r3, #1028]	@ 0x404
10000c08:	f8c3 2408 	str.w	r2, [r3, #1032]	@ 0x408
10000c0c:	f8c3 240c 	str.w	r2, [r3, #1036]	@ 0x40c
10000c10:	f8c3 2410 	str.w	r2, [r3, #1040]	@ 0x410
10000c14:	f8c3 2414 	str.w	r2, [r3, #1044]	@ 0x414
10000c18:	f8c3 2418 	str.w	r2, [r3, #1048]	@ 0x418
10000c1c:	f8c3 241c 	str.w	r2, [r3, #1052]	@ 0x41c
10000c20:	f8c3 2420 	str.w	r2, [r3, #1056]	@ 0x420
10000c24:	f8c3 2424 	str.w	r2, [r3, #1060]	@ 0x424
10000c28:	f8c3 2428 	str.w	r2, [r3, #1064]	@ 0x428
10000c2c:	f8c3 242c 	str.w	r2, [r3, #1068]	@ 0x42c
10000c30:	f8c3 2430 	str.w	r2, [r3, #1072]	@ 0x430
10000c34:	b662      	cpsie	i
10000c36:	4770      	bx	lr

10000c38 <irq_set_enabled>:
10000c38:	2301      	movs	r3, #1
10000c3a:	f000 021f 	and.w	r2, r0, #31
10000c3e:	4093      	lsls	r3, r2
10000c40:	0940      	lsrs	r0, r0, #5
10000c42:	b141      	cbz	r1, 10000c56 <irq_set_enabled+0x1e>
10000c44:	0080      	lsls	r0, r0, #2
10000c46:	f100 4060 	add.w	r0, r0, #3758096384	@ 0xe0000000
10000c4a:	f500 4061 	add.w	r0, r0, #57600	@ 0xe100
10000c4e:	f8c0 3180 	str.w	r3, [r0, #384]	@ 0x180
10000c52:	6003      	str	r3, [r0, #0]
10000c54:	4770      	bx	lr
10000c56:	4a02      	ldr	r2, [pc, #8]	@ (10000c60 <irq_set_enabled+0x28>)
10000c58:	3020      	adds	r0, #32
10000c5a:	f842 3020 	str.w	r3, [r2, r0, lsl #2]
10000c5e:	4770      	bx	lr
10000c60:	e000e100 	.word	0xe000e100

10000c64 <irq_is_enabled>:
10000c64:	2301      	movs	r3, #1
10000c66:	4a06      	ldr	r2, [pc, #24]	@ (10000c80 <irq_is_enabled+0x1c>)
10000c68:	0941      	lsrs	r1, r0, #5
10000c6a:	f852 2021 	ldr.w	r2, [r2, r1, lsl #2]
10000c6e:	f000 001f 	and.w	r0, r0, #31
10000c72:	fa03 f000 	lsl.w	r0, r3, r0
10000c76:	4010      	ands	r0, r2
10000c78:	3800      	subs	r0, #0
10000c7a:	bf18      	it	ne
10000c7c:	2001      	movne	r0, #1
10000c7e:	4770      	bx	lr
10000c80:	e000e100 	.word	0xe000e100

10000c84 <irq_set_pending>:
10000c84:	2201      	movs	r2, #1
10000c86:	0943      	lsrs	r3, r0, #5
10000c88:	4903      	ldr	r1, [pc, #12]	@ (10000c98 <irq_set_pending+0x14>)
10000c8a:	f000 001f 	and.w	r0, r0, #31
10000c8e:	4082      	lsls	r2, r0
10000c90:	3340      	adds	r3, #64	@ 0x40
10000c92:	f841 2023 	str.w	r2, [r1, r3, lsl #2]
10000c96:	4770      	bx	lr
10000c98:	e000e100 	.word	0xe000e100

10000c9c <irq_has_shared_handler>:
10000c9c:	4a05      	ldr	r2, [pc, #20]	@ (10000cb4 <irq_has_shared_handler+0x18>)
10000c9e:	3010      	adds	r0, #16
10000ca0:	6892      	ldr	r2, [r2, #8]
10000ca2:	4b05      	ldr	r3, [pc, #20]	@ (10000cb8 <irq_has_shared_handler+0x1c>)
10000ca4:	f852 0020 	ldr.w	r0, [r2, r0, lsl #2]
10000ca8:	1ac0      	subs	r0, r0, r3
10000caa:	282f      	cmp	r0, #47	@ 0x2f
10000cac:	bf8c      	ite	hi
10000cae:	2000      	movhi	r0, #0
10000cb0:	2001      	movls	r0, #1
10000cb2:	4770      	bx	lr
10000cb4:	e000ed00 	.word	0xe000ed00
10000cb8:	200012ac 	.word	0x200012ac

10000cbc <irq_set_exclusive_handler>:
10000cbc:	b5f8      	push	{r3, r4, r5, r6, r7, lr}
10000cbe:	460d      	mov	r5, r1
10000cc0:	f3ef 8710 	mrs	r7, PRIMASK
10000cc4:	b672      	cpsid	i
10000cc6:	4e12      	ldr	r6, [pc, #72]	@ (10000d10 <irq_set_exclusive_handler+0x54>)
10000cc8:	e8d6 2fcf 	ldaexb	r2, [r6]
10000ccc:	2301      	movs	r3, #1
10000cce:	2a00      	cmp	r2, #0
10000cd0:	d1fa      	bne.n	10000cc8 <irq_set_exclusive_handler+0xc>
10000cd2:	e8c6 3f42 	strexb	r2, r3, [r6]
10000cd6:	2a00      	cmp	r2, #0
10000cd8:	d1f6      	bne.n	10000cc8 <irq_set_exclusive_handler+0xc>
10000cda:	f3bf 8f5f 	dmb	sy
10000cde:	4b0d      	ldr	r3, [pc, #52]	@ (10000d14 <irq_set_exclusive_handler+0x58>)
10000ce0:	f100 0410 	add.w	r4, r0, #16
10000ce4:	689b      	ldr	r3, [r3, #8]
10000ce6:	4a0c      	ldr	r2, [pc, #48]	@ (10000d18 <irq_set_exclusive_handler+0x5c>)
10000ce8:	f853 3024 	ldr.w	r3, [r3, r4, lsl #2]
10000cec:	4293      	cmp	r3, r2
10000cee:	d003      	beq.n	10000cf8 <irq_set_exclusive_handler+0x3c>
10000cf0:	4299      	cmp	r1, r3
10000cf2:	d001      	beq.n	10000cf8 <irq_set_exclusive_handler+0x3c>
10000cf4:	f001 f9cc 	bl	10002090 <hard_assertion_failure>
10000cf8:	4b06      	ldr	r3, [pc, #24]	@ (10000d14 <irq_set_exclusive_handler+0x58>)
10000cfa:	689b      	ldr	r3, [r3, #8]
10000cfc:	f843 5024 	str.w	r5, [r3, r4, lsl #2]
10000d00:	f3bf 8f5f 	dmb	sy
10000d04:	2300      	movs	r3, #0
10000d06:	e8c6 3f8f 	stlb	r3, [r6]
10000d0a:	f387 8810 	msr	PRIMASK, r7
10000d0e:	bdf8      	pop	{r3, r4, r5, r6, r7, pc}
10000d10:	20001d55 	.word	0x20001d55
10000d14:	e000ed00 	.word	0xe000ed00
10000d18:	10000111 	.word	0x10000111

10000d1c <irq_add_shared_handler>:
10000d1c:	e92d 4ff0 	stmdb	sp!, {r4, r5, r6, r7, r8, r9, sl, fp, lr}
10000d20:	4681      	mov	r9, r0
10000d22:	468b      	mov	fp, r1
10000d24:	4616      	mov	r6, r2
10000d26:	b083      	sub	sp, #12
10000d28:	f3ef 8310 	mrs	r3, PRIMASK
10000d2c:	b672      	cpsid	i
10000d2e:	f8df a1d0 	ldr.w	sl, [pc, #464]	@ 10000f00 <irq_add_shared_handler+0x1e4>
10000d32:	9300      	str	r3, [sp, #0]
10000d34:	e8da 1fcf 	ldaexb	r1, [sl]
10000d38:	2301      	movs	r3, #1
10000d3a:	2900      	cmp	r1, #0
10000d3c:	d1fa      	bne.n	10000d34 <irq_add_shared_handler+0x18>
10000d3e:	e8ca 3f41 	strexb	r1, r3, [sl]
10000d42:	2900      	cmp	r1, #0
10000d44:	d1f6      	bne.n	10000d34 <irq_add_shared_handler+0x18>
10000d46:	f3bf 8f5f 	dmb	sy
10000d4a:	4b66      	ldr	r3, [pc, #408]	@ (10000ee4 <irq_add_shared_handler+0x1c8>)
10000d4c:	f993 4000 	ldrsb.w	r4, [r3]
10000d50:	2c00      	cmp	r4, #0
10000d52:	f2c0 80a0 	blt.w	10000e96 <irq_add_shared_handler+0x17a>
10000d56:	4d64      	ldr	r5, [pc, #400]	@ (10000ee8 <irq_add_shared_handler+0x1cc>)
10000d58:	eb04 0744 	add.w	r7, r4, r4, lsl #1
10000d5c:	eb05 0887 	add.w	r8, r5, r7, lsl #2
10000d60:	f898 1006 	ldrb.w	r1, [r8, #6]
10000d64:	f109 0910 	add.w	r9, r9, #16
10000d68:	7019      	strb	r1, [r3, #0]
10000d6a:	4b60      	ldr	r3, [pc, #384]	@ (10000eec <irq_add_shared_handler+0x1d0>)
10000d6c:	00bf      	lsls	r7, r7, #2
10000d6e:	689b      	ldr	r3, [r3, #8]
10000d70:	f853 0029 	ldr.w	r0, [r3, r9, lsl #2]
10000d74:	0063      	lsls	r3, r4, #1
10000d76:	1b41      	subs	r1, r0, r5
10000d78:	292f      	cmp	r1, #47	@ 0x2f
10000d7a:	d92f      	bls.n	10000ddc <irq_add_shared_handler+0xc0>
10000d7c:	495c      	ldr	r1, [pc, #368]	@ (10000ef0 <irq_add_shared_handler+0x1d4>)
10000d7e:	4288      	cmp	r0, r1
10000d80:	f040 80a4 	bne.w	10000ecc <irq_add_shared_handler+0x1b0>
10000d84:	441c      	add	r4, r3
10000d86:	4b5b      	ldr	r3, [pc, #364]	@ (10000ef4 <irq_add_shared_handler+0x1d8>)
10000d88:	3702      	adds	r7, #2
10000d8a:	442f      	add	r7, r5
10000d8c:	3b04      	subs	r3, #4
10000d8e:	1bdb      	subs	r3, r3, r7
10000d90:	f3c3 034a 	ubfx	r3, r3, #1, #11
10000d94:	ea6f 43c3 	mvn.w	r3, r3, lsl #19
10000d98:	f44f 4121 	mov.w	r1, #41216	@ 0xa100
10000d9c:	ea6f 43d3 	mvn.w	r3, r3, lsr #19
10000da0:	f825 1024 	strh.w	r1, [r5, r4, lsl #2]
10000da4:	eb05 0484 	add.w	r4, r5, r4, lsl #2
10000da8:	8063      	strh	r3, [r4, #2]
10000daa:	f64b 5301 	movw	r3, #48385	@ 0xbd01
10000dae:	80a3      	strh	r3, [r4, #4]
10000db0:	23ff      	movs	r3, #255	@ 0xff
10000db2:	f048 0001 	orr.w	r0, r8, #1
10000db6:	71e6      	strb	r6, [r4, #7]
10000db8:	f8c4 b008 	str.w	fp, [r4, #8]
10000dbc:	71a3      	strb	r3, [r4, #6]
10000dbe:	4b4b      	ldr	r3, [pc, #300]	@ (10000eec <irq_add_shared_handler+0x1d0>)
10000dc0:	689b      	ldr	r3, [r3, #8]
10000dc2:	f843 0029 	str.w	r0, [r3, r9, lsl #2]
10000dc6:	f3bf 8f5f 	dmb	sy
10000dca:	2300      	movs	r3, #0
10000dcc:	e8ca 3f8f 	stlb	r3, [sl]
10000dd0:	9b00      	ldr	r3, [sp, #0]
10000dd2:	f383 8810 	msr	PRIMASK, r3
10000dd6:	b003      	add	sp, #12
10000dd8:	e8bd 8ff0 	ldmia.w	sp!, {r4, r5, r6, r7, r8, r9, sl, fp, pc}
10000ddc:	f020 0e01 	bic.w	lr, r0, #1
10000de0:	f89e 1007 	ldrb.w	r1, [lr, #7]
10000de4:	42b1      	cmp	r1, r6
10000de6:	d82e      	bhi.n	10000e46 <irq_add_shared_handler+0x12a>
10000de8:	f44f 4321 	mov.w	r3, #41216	@ 0xa100
10000dec:	53eb      	strh	r3, [r5, r7]
10000dee:	4b41      	ldr	r3, [pc, #260]	@ (10000ef4 <irq_add_shared_handler+0x1d8>)
10000df0:	1cb9      	adds	r1, r7, #2
10000df2:	4429      	add	r1, r5
10000df4:	3b04      	subs	r3, #4
10000df6:	3704      	adds	r7, #4
10000df8:	1a5b      	subs	r3, r3, r1
10000dfa:	442f      	add	r7, r5
10000dfc:	f1ae 0104 	sub.w	r1, lr, #4
10000e00:	1bc9      	subs	r1, r1, r7
10000e02:	f3c1 044a 	ubfx	r4, r1, #1, #11
10000e06:	493c      	ldr	r1, [pc, #240]	@ (10000ef8 <irq_add_shared_handler+0x1dc>)
10000e08:	f3c3 034a 	ubfx	r3, r3, #1, #11
10000e0c:	430b      	orrs	r3, r1
10000e0e:	4321      	orrs	r1, r4
10000e10:	f8a8 1004 	strh.w	r1, [r8, #4]
10000e14:	4939      	ldr	r1, [pc, #228]	@ (10000efc <irq_add_shared_handler+0x1e0>)
10000e16:	f8a8 3002 	strh.w	r3, [r8, #2]
10000e1a:	f64a 20aa 	movw	r0, #43690	@ 0xaaaa
10000e1e:	4673      	mov	r3, lr
10000e20:	1b5b      	subs	r3, r3, r5
10000e22:	415b      	adcs	r3, r3
10000e24:	4358      	muls	r0, r3
10000e26:	0d00      	lsrs	r0, r0, #20
10000e28:	f888 6007 	strb.w	r6, [r8, #7]
10000e2c:	f888 0006 	strb.w	r0, [r8, #6]
10000e30:	f8c8 b008 	str.w	fp, [r8, #8]
10000e34:	f048 0001 	orr.w	r0, r8, #1
10000e38:	f8ce 1000 	str.w	r1, [lr]
10000e3c:	e7bf      	b.n	10000dbe <irq_add_shared_handler+0xa2>
10000e3e:	79d1      	ldrb	r1, [r2, #7]
10000e40:	42b1      	cmp	r1, r6
10000e42:	d92e      	bls.n	10000ea2 <irq_add_shared_handler+0x186>
10000e44:	4696      	mov	lr, r2
10000e46:	f99e c006 	ldrsb.w	ip, [lr, #6]
10000e4a:	eb0c 024c 	add.w	r2, ip, ip, lsl #1
10000e4e:	f1bc 0f00 	cmp.w	ip, #0
10000e52:	eb05 0282 	add.w	r2, r5, r2, lsl #2
10000e56:	daf2      	bge.n	10000e3e <irq_add_shared_handler+0x122>
10000e58:	f64b 5101 	movw	r1, #48385	@ 0xbd01
10000e5c:	f10e 0204 	add.w	r2, lr, #4
10000e60:	f1a8 0704 	sub.w	r7, r8, #4
10000e64:	1abf      	subs	r7, r7, r2
10000e66:	f3c7 074a 	ubfx	r7, r7, #1, #11
10000e6a:	ea6f 47c7 	mvn.w	r7, r7, lsl #19
10000e6e:	ea6f 47d7 	mvn.w	r7, r7, lsr #19
10000e72:	f88e 4006 	strb.w	r4, [lr, #6]
10000e76:	eb03 0804 	add.w	r8, r3, r4
10000e7a:	4c20      	ldr	r4, [pc, #128]	@ (10000efc <irq_add_shared_handler+0x1e0>)
10000e7c:	eb05 0388 	add.w	r3, r5, r8, lsl #2
10000e80:	f8ae 7004 	strh.w	r7, [lr, #4]
10000e84:	f845 4028 	str.w	r4, [r5, r8, lsl #2]
10000e88:	8099      	strh	r1, [r3, #4]
10000e8a:	f883 c006 	strb.w	ip, [r3, #6]
10000e8e:	71de      	strb	r6, [r3, #7]
10000e90:	f8c3 b008 	str.w	fp, [r3, #8]
10000e94:	e793      	b.n	10000dbe <irq_add_shared_handler+0xa2>
10000e96:	f001 f8fb 	bl	10002090 <hard_assertion_failure>
10000e9a:	4b12      	ldr	r3, [pc, #72]	@ (10000ee4 <irq_add_shared_handler+0x1c8>)
10000e9c:	f993 4000 	ldrsb.w	r4, [r3]
10000ea0:	e759      	b.n	10000d56 <irq_add_shared_handler+0x3a>
10000ea2:	4672      	mov	r2, lr
10000ea4:	f832 1f04 	ldrh.w	r1, [r2, #4]!
10000ea8:	0549      	lsls	r1, r1, #21
10000eaa:	d414      	bmi.n	10000ed6 <irq_add_shared_handler+0x1ba>
10000eac:	1549      	asrs	r1, r1, #21
10000eae:	3102      	adds	r1, #2
10000eb0:	eb02 0141 	add.w	r1, r2, r1, lsl #1
10000eb4:	9101      	str	r1, [sp, #4]
10000eb6:	f06f 0107 	mvn.w	r1, #7
10000eba:	1bc9      	subs	r1, r1, r7
10000ebc:	9f01      	ldr	r7, [sp, #4]
10000ebe:	1b49      	subs	r1, r1, r5
10000ec0:	4439      	add	r1, r7
10000ec2:	f3c1 014a 	ubfx	r1, r1, #1, #11
10000ec6:	f441 4160 	orr.w	r1, r1, #57344	@ 0xe000
10000eca:	e7c9      	b.n	10000e60 <irq_add_shared_handler+0x144>
10000ecc:	9301      	str	r3, [sp, #4]
10000ece:	f001 f8df 	bl	10002090 <hard_assertion_failure>
10000ed2:	9b01      	ldr	r3, [sp, #4]
10000ed4:	e756      	b.n	10000d84 <irq_add_shared_handler+0x68>
10000ed6:	f501 11ff 	add.w	r1, r1, #2088960	@ 0x1fe000
10000eda:	f501 51ff 	add.w	r1, r1, #8160	@ 0x1fe0
10000ede:	311f      	adds	r1, #31
10000ee0:	e7e4      	b.n	10000eac <irq_add_shared_handler+0x190>
10000ee2:	bf00      	nop
10000ee4:	20002898 	.word	0x20002898
10000ee8:	200012ac 	.word	0x200012ac
10000eec:	e000ed00 	.word	0xe000ed00
10000ef0:	10000111 	.word	0x10000111
10000ef4:	200012dc 	.word	0x200012dc
10000ef8:	ffffe000 	.word	0xffffe000
10000efc:	47804801 	.word	0x47804801
10000f00:	20001d55 	.word	0x20001d55

10000f04 <irq_add_tail_to_free_list>:
10000f04:	b5f0      	push	{r4, r5, r6, r7, lr}
10000f06:	f3ef 8505 	mrs	r5, IPSR
10000f0a:	b2ed      	uxtb	r5, r5
10000f0c:	f3ef 8c10 	mrs	ip, PRIMASK
10000f10:	b672      	cpsid	i
10000f12:	4926      	ldr	r1, [pc, #152]	@ (10000fac <irq_add_tail_to_free_list+0xa8>)
10000f14:	e8d1 2fcf 	ldaexb	r2, [r1]
10000f18:	2301      	movs	r3, #1
10000f1a:	2a00      	cmp	r2, #0
10000f1c:	d1fa      	bne.n	10000f14 <irq_add_tail_to_free_list+0x10>
10000f1e:	e8c1 3f42 	strexb	r2, r3, [r1]
10000f22:	2a00      	cmp	r2, #0
10000f24:	d1f6      	bne.n	10000f14 <irq_add_tail_to_free_list+0x10>
10000f26:	f3bf 8f5f 	dmb	sy
10000f2a:	4e21      	ldr	r6, [pc, #132]	@ (10000fb0 <irq_add_tail_to_free_list+0xac>)
10000f2c:	f040 0e01 	orr.w	lr, r0, #1
10000f30:	68b4      	ldr	r4, [r6, #8]
10000f32:	f64a 23aa 	movw	r3, #43690	@ 0xaaaa
10000f36:	f854 7025 	ldr.w	r7, [r4, r5, lsl #2]
10000f3a:	4a1e      	ldr	r2, [pc, #120]	@ (10000fb4 <irq_add_tail_to_free_list+0xb0>)
10000f3c:	4604      	mov	r4, r0
10000f3e:	1aa4      	subs	r4, r4, r2
10000f40:	4164      	adcs	r4, r4
10000f42:	4363      	muls	r3, r4
10000f44:	0d1b      	lsrs	r3, r3, #20
10000f46:	4577      	cmp	r7, lr
10000f48:	b25b      	sxtb	r3, r3
10000f4a:	d01b      	beq.n	10000f84 <irq_add_tail_to_free_list+0x80>
10000f4c:	f992 4006 	ldrsb.w	r4, [r2, #6]
10000f50:	429c      	cmp	r4, r3
10000f52:	d01c      	beq.n	10000f8e <irq_add_tail_to_free_list+0x8a>
10000f54:	f992 4012 	ldrsb.w	r4, [r2, #18]
10000f58:	429c      	cmp	r4, r3
10000f5a:	d023      	beq.n	10000fa4 <irq_add_tail_to_free_list+0xa0>
10000f5c:	f992 401e 	ldrsb.w	r4, [r2, #30]
10000f60:	429c      	cmp	r4, r3
10000f62:	d021      	beq.n	10000fa8 <irq_add_tail_to_free_list+0xa4>
10000f64:	f992 402a 	ldrsb.w	r4, [r2, #42]	@ 0x2a
10000f68:	429c      	cmp	r4, r3
10000f6a:	bf08      	it	eq
10000f6c:	2403      	moveq	r4, #3
10000f6e:	d00f      	beq.n	10000f90 <irq_add_tail_to_free_list+0x8c>
10000f70:	4a11      	ldr	r2, [pc, #68]	@ (10000fb8 <irq_add_tail_to_free_list+0xb4>)
10000f72:	2400      	movs	r4, #0
10000f74:	7815      	ldrb	r5, [r2, #0]
10000f76:	7013      	strb	r3, [r2, #0]
10000f78:	7185      	strb	r5, [r0, #6]
10000f7a:	e8c1 4f8f 	stlb	r4, [r1]
10000f7e:	f38c 8810 	msr	PRIMASK, ip
10000f82:	bdf0      	pop	{r4, r5, r6, r7, pc}
10000f84:	68b2      	ldr	r2, [r6, #8]
10000f86:	4c0d      	ldr	r4, [pc, #52]	@ (10000fbc <irq_add_tail_to_free_list+0xb8>)
10000f88:	f842 4025 	str.w	r4, [r2, r5, lsl #2]
10000f8c:	e7f0      	b.n	10000f70 <irq_add_tail_to_free_list+0x6c>
10000f8e:	2400      	movs	r4, #0
10000f90:	eb04 0444 	add.w	r4, r4, r4, lsl #1
10000f94:	eb02 0284 	add.w	r2, r2, r4, lsl #2
10000f98:	24ff      	movs	r4, #255	@ 0xff
10000f9a:	7194      	strb	r4, [r2, #6]
10000f9c:	f64b 5401 	movw	r4, #48385	@ 0xbd01
10000fa0:	8094      	strh	r4, [r2, #4]
10000fa2:	e7e5      	b.n	10000f70 <irq_add_tail_to_free_list+0x6c>
10000fa4:	2401      	movs	r4, #1
10000fa6:	e7f3      	b.n	10000f90 <irq_add_tail_to_free_list+0x8c>
10000fa8:	2402      	movs	r4, #2
10000faa:	e7f1      	b.n	10000f90 <irq_add_tail_to_free_list+0x8c>
10000fac:	20001d55 	.word	0x20001d55
10000fb0:	e000ed00 	.word	0xe000ed00
10000fb4:	200012ac 	.word	0x200012ac
10000fb8:	20002898 	.word	0x20002898
10000fbc:	10000111 	.word	0x10000111

10000fc0 <user_irq_claim_unused>:
10000fc0:	b510      	push	{r4, lr}
10000fc2:	4c07      	ldr	r4, [pc, #28]	@ (10000fe0 <user_irq_claim_unused+0x20>)
10000fc4:	b082      	sub	sp, #8
10000fc6:	4601      	mov	r1, r0
10000fc8:	2305      	movs	r3, #5
10000fca:	2200      	movs	r2, #0
10000fcc:	9400      	str	r4, [sp, #0]
10000fce:	4805      	ldr	r0, [pc, #20]	@ (10000fe4 <user_irq_claim_unused+0x24>)
10000fd0:	f7ff fda2 	bl	10000b18 <hw_claim_unused_from_range>
10000fd4:	2800      	cmp	r0, #0
10000fd6:	bfa8      	it	ge
10000fd8:	f1c0 0033 	rsbge	r0, r0, #51	@ 0x33
10000fdc:	b002      	add	sp, #8
10000fde:	bd10      	pop	{r4, pc}
10000fe0:	10005a34 	.word	0x10005a34
10000fe4:	2000289c 	.word	0x2000289c

10000fe8 <lock_init>:
10000fe8:	4b01      	ldr	r3, [pc, #4]	@ (10000ff0 <lock_init+0x8>)
10000fea:	440b      	add	r3, r1
10000fec:	6003      	str	r3, [r0, #0]
10000fee:	4770      	bx	lr
10000ff0:	20001d4c 	.word	0x20001d4c

10000ff4 <runtime_init_mutex>:
10000ff4:	b570      	push	{r4, r5, r6, lr}
10000ff6:	4c10      	ldr	r4, [pc, #64]	@ (10001038 <runtime_init_mutex+0x44>)
10000ff8:	4d10      	ldr	r5, [pc, #64]	@ (1000103c <runtime_init_mutex+0x48>)
10000ffa:	42ac      	cmp	r4, r5
10000ffc:	d20e      	bcs.n	1000101c <runtime_init_mutex+0x28>
10000ffe:	26ff      	movs	r6, #255	@ 0xff
10001000:	6823      	ldr	r3, [r4, #0]
10001002:	b163      	cbz	r3, 1000101e <runtime_init_mutex+0x2a>
10001004:	f7ff fdc8 	bl	10000b98 <next_striped_spin_lock_num>
10001008:	4601      	mov	r1, r0
1000100a:	4620      	mov	r0, r4
1000100c:	f7ff ffec 	bl	10000fe8 <lock_init>
10001010:	80a6      	strh	r6, [r4, #4]
10001012:	f3bf 8f5f 	dmb	sy
10001016:	3408      	adds	r4, #8
10001018:	42ac      	cmp	r4, r5
1000101a:	d3f1      	bcc.n	10001000 <runtime_init_mutex+0xc>
1000101c:	bd70      	pop	{r4, r5, r6, pc}
1000101e:	f7ff fdbb 	bl	10000b98 <next_striped_spin_lock_num>
10001022:	4601      	mov	r1, r0
10001024:	4620      	mov	r0, r4
10001026:	f7ff ffdf 	bl	10000fe8 <lock_init>
1000102a:	7126      	strb	r6, [r4, #4]
1000102c:	f3bf 8f5f 	dmb	sy
10001030:	3408      	adds	r4, #8
10001032:	42ac      	cmp	r4, r5
10001034:	d3e4      	bcc.n	10001000 <runtime_init_mutex+0xc>
10001036:	bd70      	pop	{r4, r5, r6, pc}
10001038:	200018a8 	.word	0x200018a8
1000103c:	200018b0 	.word	0x200018b0

10001040 <mutex_init>:
10001040:	b510      	push	{r4, lr}
10001042:	4604      	mov	r4, r0
10001044:	f7ff fda8 	bl	10000b98 <next_striped_spin_lock_num>
10001048:	4601      	mov	r1, r0
1000104a:	4620      	mov	r0, r4
1000104c:	f7ff ffcc 	bl	10000fe8 <lock_init>
10001050:	23ff      	movs	r3, #255	@ 0xff
10001052:	7123      	strb	r3, [r4, #4]
10001054:	f3bf 8f5f 	dmb	sy
10001058:	bd10      	pop	{r4, pc}
1000105a:	bf00      	nop

1000105c <critical_section_init>:
1000105c:	b510      	push	{r4, lr}
1000105e:	4604      	mov	r4, r0
10001060:	2001      	movs	r0, #1
10001062:	f7ff fda5 	bl	10000bb0 <spin_lock_claim_unused>
10001066:	4b03      	ldr	r3, [pc, #12]	@ (10001074 <critical_section_init+0x18>)
10001068:	4403      	add	r3, r0
1000106a:	6023      	str	r3, [r4, #0]
1000106c:	f3bf 8f5f 	dmb	sy
10001070:	bd10      	pop	{r4, pc}
10001072:	bf00      	nop
10001074:	20001d4c 	.word	0x20001d4c

10001078 <critical_section_init_with_lock_num>:
10001078:	4b02      	ldr	r3, [pc, #8]	@ (10001084 <critical_section_init_with_lock_num+0xc>)
1000107a:	440b      	add	r3, r1
1000107c:	6003      	str	r3, [r0, #0]
1000107e:	f3bf 8f5f 	dmb	sy
10001082:	4770      	bx	lr
10001084:	20001d4c 	.word	0x20001d4c

10001088 <sleep_until_callback>:
10001088:	4b0d      	ldr	r3, [pc, #52]	@ (100010c0 <sleep_until_callback+0x38>)
1000108a:	681a      	ldr	r2, [r3, #0]
1000108c:	f3ef 8110 	mrs	r1, PRIMASK
10001090:	b672      	cpsid	i
10001092:	e8d2 cfcf 	ldaexb	ip, [r2]
10001096:	2001      	movs	r0, #1
10001098:	f1bc 0f00 	cmp.w	ip, #0
1000109c:	d1f9      	bne.n	10001092 <sleep_until_callback+0xa>
1000109e:	e8c2 0f4c 	strexb	ip, r0, [r2]
100010a2:	f1bc 0f00 	cmp.w	ip, #0
100010a6:	d1f4      	bne.n	10001092 <sleep_until_callback+0xa>
100010a8:	f3bf 8f5f 	dmb	sy
100010ac:	2200      	movs	r2, #0
100010ae:	681b      	ldr	r3, [r3, #0]
100010b0:	e8c3 2f8f 	stlb	r2, [r3]
100010b4:	f381 8810 	msr	PRIMASK, r1
100010b8:	bf40      	sev
100010ba:	2000      	movs	r0, #0
100010bc:	2100      	movs	r1, #0
100010be:	4770      	bx	lr
100010c0:	20002830 	.word	0x20002830
100010c4:	00000000 	.word	0x00000000

100010c8 <alarm_pool_irq_handler>:
100010c8:	e92d 4ff0 	stmdb	sp!, {r4, r5, r6, r7, r8, r9, sl, fp, lr}
100010cc:	ed2d 8b02 	vpush	{d8}
100010d0:	b085      	sub	sp, #20
100010d2:	f3ef 8305 	mrs	r3, IPSR
100010d6:	b2db      	uxtb	r3, r3
100010d8:	3b10      	subs	r3, #16
100010da:	089a      	lsrs	r2, r3, #2
100010dc:	bf18      	it	ne
100010de:	2201      	movne	r2, #1
100010e0:	f04f 0101 	mov.w	r1, #1
100010e4:	f003 0b03 	and.w	fp, r3, #3
100010e8:	bf18      	it	ne
100010ea:	4daf      	ldrne	r5, [pc, #700]	@ (100013a8 <alarm_pool_irq_handler+0x2e0>)
100010ec:	4baf      	ldr	r3, [pc, #700]	@ (100013ac <alarm_pool_irq_handler+0x2e4>)
100010ee:	bf08      	it	eq
100010f0:	4daf      	ldreq	r5, [pc, #700]	@ (100013b0 <alarm_pool_irq_handler+0x2e8>)
100010f2:	eb0b 0282 	add.w	r2, fp, r2, lsl #2
100010f6:	f853 6022 	ldr.w	r6, [r3, r2, lsl #2]
100010fa:	fa01 f20b 	lsl.w	r2, r1, fp
100010fe:	f505 5341 	add.w	r3, r5, #12352	@ 0x3040
10001102:	ed9f 8ba7 	vldr	d8, [pc, #668]	@ 100013a0 <alarm_pool_irq_handler+0x2d8>
10001106:	9201      	str	r2, [sp, #4]
10001108:	605a      	str	r2, [r3, #4]
1000110a:	e02f      	b.n	1000116c <alarm_pool_irq_handler+0xa4>
1000110c:	88b3      	ldrh	r3, [r6, #4]
1000110e:	041c      	lsls	r4, r3, #16
10001110:	f140 8093 	bpl.w	1000123a <alarm_pool_irq_handler+0x172>
10001114:	79b3      	ldrb	r3, [r6, #6]
10001116:	2b00      	cmp	r3, #0
10001118:	f040 80dd 	bne.w	100012d6 <alarm_pool_irq_handler+0x20e>
1000111c:	f9b6 2008 	ldrsh.w	r2, [r6, #8]
10001120:	2a00      	cmp	r2, #0
10001122:	f2c0 811e 	blt.w	10001362 <alarm_pool_irq_handler+0x29a>
10001126:	6973      	ldr	r3, [r6, #20]
10001128:	eb02 0242 	add.w	r2, r2, r2, lsl #1
1000112c:	eb03 03c2 	add.w	r3, r3, r2, lsl #3
10001130:	e9d3 4702 	ldrd	r4, r7, [r3, #8]
10001134:	f1b7 3fff 	cmp.w	r7, #4294967295	@ 0xffffffff
10001138:	bf08      	it	eq
1000113a:	f1b4 3fff 	cmpeq.w	r4, #4294967295	@ 0xffffffff
1000113e:	d00e      	beq.n	1000115e <alarm_pool_irq_handler+0x96>
10001140:	eb05 018b 	add.w	r1, r5, fp, lsl #2
10001144:	6aab      	ldr	r3, [r5, #40]	@ 0x28
10001146:	690a      	ldr	r2, [r1, #16]
10001148:	1ad2      	subs	r2, r2, r3
1000114a:	1ae3      	subs	r3, r4, r3
1000114c:	4293      	cmp	r3, r2
1000114e:	d305      	bcc.n	1000115c <alarm_pool_irq_handler+0x94>
10001150:	2301      	movs	r3, #1
10001152:	6a2a      	ldr	r2, [r5, #32]
10001154:	fa03 f30b 	lsl.w	r3, r3, fp
10001158:	4213      	tst	r3, r2
1000115a:	d100      	bne.n	1000115e <alarm_pool_irq_handler+0x96>
1000115c:	610c      	str	r4, [r1, #16]
1000115e:	4628      	mov	r0, r5
10001160:	f000 fbac 	bl	100018bc <timer_time_us_64>
10001164:	42a0      	cmp	r0, r4
10001166:	41b9      	sbcs	r1, r7
10001168:	f2c0 80fb 	blt.w	10001362 <alarm_pool_irq_handler+0x29a>
1000116c:	f9b6 3008 	ldrsh.w	r3, [r6, #8]
10001170:	9a01      	ldr	r2, [sp, #4]
10001172:	2b00      	cmp	r3, #0
10001174:	9300      	str	r3, [sp, #0]
10001176:	63ea      	str	r2, [r5, #60]	@ 0x3c
10001178:	dbc8      	blt.n	1000110c <alarm_pool_irq_handler+0x44>
1000117a:	f8d6 8014 	ldr.w	r8, [r6, #20]
1000117e:	eb03 0943 	add.w	r9, r3, r3, lsl #1
10001182:	4628      	mov	r0, r5
10001184:	eb08 07c9 	add.w	r7, r8, r9, lsl #3
10001188:	e9d7 4a02 	ldrd	r4, sl, [r7, #8]
1000118c:	f000 fb96 	bl	100018bc <timer_time_us_64>
10001190:	42a0      	cmp	r0, r4
10001192:	eb71 010a 	sbcs.w	r1, r1, sl
10001196:	dbb9      	blt.n	1000110c <alarm_pool_irq_handler+0x44>
10001198:	f1ba 0f00 	cmp.w	sl, #0
1000119c:	f2c0 80c3 	blt.w	10001326 <alarm_pool_irq_handler+0x25e>
100011a0:	e9d7 3104 	ldrd	r3, r1, [r7, #16]
100011a4:	4a83      	ldr	r2, [pc, #524]	@ (100013b4 <alarm_pool_irq_handler+0x2ec>)
100011a6:	4293      	cmp	r3, r2
100011a8:	f000 80ed 	beq.w	10001386 <alarm_pool_irq_handler+0x2be>
100011ac:	887a      	ldrh	r2, [r7, #2]
100011ae:	f9b6 0008 	ldrsh.w	r0, [r6, #8]
100011b2:	b292      	uxth	r2, r2
100011b4:	ea42 4000 	orr.w	r0, r2, r0, lsl #16
100011b8:	4798      	blx	r3
100011ba:	4602      	mov	r2, r0
100011bc:	460b      	mov	r3, r1
100011be:	ea52 0103 	orrs.w	r1, r2, r3
100011c2:	f000 80b0 	beq.w	10001326 <alarm_pool_irq_handler+0x25e>
100011c6:	2b00      	cmp	r3, #0
100011c8:	f280 80d1 	bge.w	1000136e <alarm_pool_irq_handler+0x2a6>
100011cc:	ebb4 0e02 	subs.w	lr, r4, r2
100011d0:	eb6a 0a03 	sbc.w	sl, sl, r3
100011d4:	f938 3039 	ldrsh.w	r3, [r8, r9, lsl #3]
100011d8:	e9c7 ea02 	strd	lr, sl, [r7, #8]
100011dc:	2b00      	cmp	r3, #0
100011de:	db95      	blt.n	1000110c <alarm_pool_irq_handler+0x44>
100011e0:	6971      	ldr	r1, [r6, #20]
100011e2:	eb03 0243 	add.w	r2, r3, r3, lsl #1
100011e6:	eb01 02c2 	add.w	r2, r1, r2, lsl #3
100011ea:	e9d2 7002 	ldrd	r7, r0, [r2, #8]
100011ee:	45be      	cmp	lr, r7
100011f0:	eb7a 0c00 	sbcs.w	ip, sl, r0
100011f4:	ea4f 0243 	mov.w	r2, r3, lsl #1
100011f8:	db88      	blt.n	1000110c <alarm_pool_irq_handler+0x44>
100011fa:	46b4      	mov	ip, r6
100011fc:	f82c 3f08 	strh.w	r3, [ip, #8]!
10001200:	e006      	b.n	10001210 <alarm_pool_irq_handler+0x148>
10001202:	eb03 0043 	add.w	r0, r3, r3, lsl #1
10001206:	eb01 00c0 	add.w	r0, r1, r0, lsl #3
1000120a:	005a      	lsls	r2, r3, #1
1000120c:	e9d0 7002 	ldrd	r7, r0, [r0, #8]
10001210:	45be      	cmp	lr, r7
10001212:	441a      	add	r2, r3
10001214:	eb7a 0000 	sbcs.w	r0, sl, r0
10001218:	eb01 04c2 	add.w	r4, r1, r2, lsl #3
1000121c:	db04      	blt.n	10001228 <alarm_pool_irq_handler+0x160>
1000121e:	f931 3032 	ldrsh.w	r3, [r1, r2, lsl #3]
10001222:	46a4      	mov	ip, r4
10001224:	2b00      	cmp	r3, #0
10001226:	daec      	bge.n	10001202 <alarm_pool_irq_handler+0x13a>
10001228:	f828 3039 	strh.w	r3, [r8, r9, lsl #3]
1000122c:	9b00      	ldr	r3, [sp, #0]
1000122e:	f8ac 3000 	strh.w	r3, [ip]
10001232:	88b3      	ldrh	r3, [r6, #4]
10001234:	041c      	lsls	r4, r3, #16
10001236:	f53f af6d 	bmi.w	10001114 <alarm_pool_irq_handler+0x4c>
1000123a:	6933      	ldr	r3, [r6, #16]
1000123c:	f3ef 8210 	mrs	r2, PRIMASK
10001240:	b672      	cpsid	i
10001242:	e8d3 0fcf 	ldaexb	r0, [r3]
10001246:	2101      	movs	r1, #1
10001248:	2800      	cmp	r0, #0
1000124a:	d1fa      	bne.n	10001242 <alarm_pool_irq_handler+0x17a>
1000124c:	e8c3 1f40 	strexb	r0, r1, [r3]
10001250:	2800      	cmp	r0, #0
10001252:	d1f6      	bne.n	10001242 <alarm_pool_irq_handler+0x17a>
10001254:	f3bf 8f5f 	dmb	sy
10001258:	f64f 74ff 	movw	r4, #65535	@ 0xffff
1000125c:	88b0      	ldrh	r0, [r6, #4]
1000125e:	2300      	movs	r3, #0
10001260:	6931      	ldr	r1, [r6, #16]
10001262:	b200      	sxth	r0, r0
10001264:	80b4      	strh	r4, [r6, #4]
10001266:	e8c1 3f8f 	stlb	r3, [r1]
1000126a:	f382 8810 	msr	PRIMASK, r2
1000126e:	4298      	cmp	r0, r3
10001270:	f6ff af50 	blt.w	10001114 <alarm_pool_irq_handler+0x4c>
10001274:	4607      	mov	r7, r0
10001276:	46a9      	mov	r9, r5
10001278:	6974      	ldr	r4, [r6, #20]
1000127a:	f106 0808 	add.w	r8, r6, #8
1000127e:	eb07 0e47 	add.w	lr, r7, r7, lsl #1
10001282:	eb04 03ce 	add.w	r3, r4, lr, lsl #3
10001286:	e9d3 5002 	ldrd	r5, r0, [r3, #8]
1000128a:	f9b6 3008 	ldrsh.w	r3, [r6, #8]
1000128e:	46c4      	mov	ip, r8
10001290:	2b00      	cmp	r3, #0
10001292:	db13      	blt.n	100012bc <alarm_pool_irq_handler+0x1f4>
10001294:	46b2      	mov	sl, r6
10001296:	9700      	str	r7, [sp, #0]
10001298:	e004      	b.n	100012a4 <alarm_pool_irq_handler+0x1dc>
1000129a:	f934 3036 	ldrsh.w	r3, [r4, r6, lsl #3]
1000129e:	4694      	mov	ip, r2
100012a0:	2b00      	cmp	r3, #0
100012a2:	db09      	blt.n	100012b8 <alarm_pool_irq_handler+0x1f0>
100012a4:	eb03 0643 	add.w	r6, r3, r3, lsl #1
100012a8:	eb04 02c6 	add.w	r2, r4, r6, lsl #3
100012ac:	e9d2 7102 	ldrd	r7, r1, [r2, #8]
100012b0:	42bd      	cmp	r5, r7
100012b2:	eb70 0101 	sbcs.w	r1, r0, r1
100012b6:	daf0      	bge.n	1000129a <alarm_pool_irq_handler+0x1d2>
100012b8:	4656      	mov	r6, sl
100012ba:	9f00      	ldr	r7, [sp, #0]
100012bc:	f8ac 7000 	strh.w	r7, [ip]
100012c0:	f934 703e 	ldrsh.w	r7, [r4, lr, lsl #3]
100012c4:	f824 303e 	strh.w	r3, [r4, lr, lsl #3]
100012c8:	2f00      	cmp	r7, #0
100012ca:	dad8      	bge.n	1000127e <alarm_pool_irq_handler+0x1b6>
100012cc:	79b3      	ldrb	r3, [r6, #6]
100012ce:	464d      	mov	r5, r9
100012d0:	2b00      	cmp	r3, #0
100012d2:	f43f af23 	beq.w	1000111c <alarm_pool_irq_handler+0x54>
100012d6:	2300      	movs	r3, #0
100012d8:	71b3      	strb	r3, [r6, #6]
100012da:	f9b6 3008 	ldrsh.w	r3, [r6, #8]
100012de:	f106 0808 	add.w	r8, r6, #8
100012e2:	1c58      	adds	r0, r3, #1
100012e4:	d03d      	beq.n	10001362 <alarm_pool_irq_handler+0x29a>
100012e6:	461a      	mov	r2, r3
100012e8:	6977      	ldr	r7, [r6, #20]
100012ea:	e003      	b.n	100012f4 <alarm_pool_irq_handler+0x22c>
100012ec:	4680      	mov	r8, r0
100012ee:	1c59      	adds	r1, r3, #1
100012f0:	f43f af16 	beq.w	10001120 <alarm_pool_irq_handler+0x58>
100012f4:	eb03 0143 	add.w	r1, r3, r3, lsl #1
100012f8:	eb07 00c1 	add.w	r0, r7, r1, lsl #3
100012fc:	f8b0 c002 	ldrh.w	ip, [r0, #2]
10001300:	461c      	mov	r4, r3
10001302:	f41c 4f00 	tst.w	ip, #32768	@ 0x8000
10001306:	469e      	mov	lr, r3
10001308:	f937 3031 	ldrsh.w	r3, [r7, r1, lsl #3]
1000130c:	d0ee      	beq.n	100012ec <alarm_pool_irq_handler+0x224>
1000130e:	4294      	cmp	r4, r2
10001310:	ed80 8b02 	vstr	d8, [r0, #8]
10001314:	d005      	beq.n	10001322 <alarm_pool_irq_handler+0x25a>
10001316:	f8a8 3000 	strh.w	r3, [r8]
1000131a:	8932      	ldrh	r2, [r6, #8]
1000131c:	f827 2031 	strh.w	r2, [r7, r1, lsl #3]
10001320:	8134      	strh	r4, [r6, #8]
10001322:	4672      	mov	r2, lr
10001324:	e7e3      	b.n	100012ee <alarm_pool_irq_handler+0x226>
10001326:	f838 3039 	ldrh.w	r3, [r8, r9, lsl #3]
1000132a:	8133      	strh	r3, [r6, #8]
1000132c:	6933      	ldr	r3, [r6, #16]
1000132e:	f3ef 8210 	mrs	r2, PRIMASK
10001332:	b672      	cpsid	i
10001334:	e8d3 0fcf 	ldaexb	r0, [r3]
10001338:	2101      	movs	r1, #1
1000133a:	2800      	cmp	r0, #0
1000133c:	d1fa      	bne.n	10001334 <alarm_pool_irq_handler+0x26c>
1000133e:	e8c3 1f40 	strexb	r0, r1, [r3]
10001342:	2800      	cmp	r0, #0
10001344:	d1f6      	bne.n	10001334 <alarm_pool_irq_handler+0x26c>
10001346:	f3bf 8f5f 	dmb	sy
1000134a:	8873      	ldrh	r3, [r6, #2]
1000134c:	6931      	ldr	r1, [r6, #16]
1000134e:	f828 3039 	strh.w	r3, [r8, r9, lsl #3]
10001352:	9b00      	ldr	r3, [sp, #0]
10001354:	8073      	strh	r3, [r6, #2]
10001356:	2300      	movs	r3, #0
10001358:	e8c1 3f8f 	stlb	r3, [r1]
1000135c:	f382 8810 	msr	PRIMASK, r2
10001360:	e6d4      	b.n	1000110c <alarm_pool_irq_handler+0x44>
10001362:	bf40      	sev
10001364:	b005      	add	sp, #20
10001366:	ecbd 8b02 	vpop	{d8}
1000136a:	e8bd 8ff0 	ldmia.w	sp!, {r4, r5, r6, r7, r8, r9, sl, fp, pc}
1000136e:	4628      	mov	r0, r5
10001370:	e9cd 2302 	strd	r2, r3, [sp, #8]
10001374:	f000 faa2 	bl	100018bc <timer_time_us_64>
10001378:	9a02      	ldr	r2, [sp, #8]
1000137a:	9b03      	ldr	r3, [sp, #12]
1000137c:	eb10 0e02 	adds.w	lr, r0, r2
10001380:	eb43 0a01 	adc.w	sl, r3, r1
10001384:	e726      	b.n	100011d4 <alarm_pool_irq_handler+0x10c>
10001386:	4608      	mov	r0, r1
10001388:	690b      	ldr	r3, [r1, #16]
1000138a:	9102      	str	r1, [sp, #8]
1000138c:	4798      	blx	r3
1000138e:	2800      	cmp	r0, #0
10001390:	d0c9      	beq.n	10001326 <alarm_pool_irq_handler+0x25e>
10001392:	9902      	ldr	r1, [sp, #8]
10001394:	e9d1 2300 	ldrd	r2, r3, [r1]
10001398:	e711      	b.n	100011be <alarm_pool_irq_handler+0xf6>
1000139a:	bf00      	nop
1000139c:	f3af 8000 	nop.w
100013a0:	ffffffff 	.word	0xffffffff
100013a4:	ffffffff 	.word	0xffffffff
100013a8:	400b8000 	.word	0x400b8000
100013ac:	20002808 	.word	0x20002808
100013b0:	400b0000 	.word	0x400b0000
100013b4:	100010c9 	.word	0x100010c9

100013b8 <runtime_init_default_alarm_pool>:
100013b8:	e92d 4ff8 	stmdb	sp!, {r3, r4, r5, r6, r7, r8, r9, sl, fp, lr}
100013bc:	4c36      	ldr	r4, [pc, #216]	@ (10001498 <runtime_init_default_alarm_pool+0xe0>)
100013be:	6925      	ldr	r5, [r4, #16]
100013c0:	b12d      	cbz	r5, 100013ce <runtime_init_default_alarm_pool+0x16>
100013c2:	e8bd 4ff8 	ldmia.w	sp!, {r3, r4, r5, r6, r7, r8, r9, sl, fp, lr}
100013c6:	210a      	movs	r1, #10
100013c8:	4834      	ldr	r0, [pc, #208]	@ (1000149c <runtime_init_default_alarm_pool+0xe4>)
100013ca:	f7ff be0d 	b.w	10000fe8 <lock_init>
100013ce:	f8df 80e4 	ldr.w	r8, [pc, #228]	@ 100014b4 <runtime_init_default_alarm_pool+0xfc>
100013d2:	2103      	movs	r1, #3
100013d4:	4640      	mov	r0, r8
100013d6:	f000 fa5f 	bl	10001898 <timer_hardware_alarm_claim>
100013da:	2603      	movs	r6, #3
100013dc:	f8c4 800c 	str.w	r8, [r4, #12]
100013e0:	f7ff fbda 	bl	10000b98 <next_striped_spin_lock_num>
100013e4:	f04f 4c50 	mov.w	ip, #3489660928	@ 0xd0000000
100013e8:	4b2d      	ldr	r3, [pc, #180]	@ (100014a0 <runtime_init_default_alarm_pool+0xe8>)
100013ea:	7026      	strb	r6, [r4, #0]
100013ec:	4403      	add	r3, r0
100013ee:	6123      	str	r3, [r4, #16]
100013f0:	f8dc 3000 	ldr.w	r3, [ip]
100013f4:	210f      	movs	r1, #15
100013f6:	7063      	strb	r3, [r4, #1]
100013f8:	6963      	ldr	r3, [r4, #20]
100013fa:	8061      	strh	r1, [r4, #2]
100013fc:	831d      	strh	r5, [r3, #24]
100013fe:	f04f 0504 	mov.w	r5, #4
10001402:	f8a3 5078 	strh.w	r5, [r3, #120]	@ 0x78
10001406:	f04f 0505 	mov.w	r5, #5
1000140a:	f8a3 5090 	strh.w	r5, [r3, #144]	@ 0x90
1000140e:	f04f 0506 	mov.w	r5, #6
10001412:	f8a3 50a8 	strh.w	r5, [r3, #168]	@ 0xa8
10001416:	f04f 0507 	mov.w	r5, #7
1000141a:	210e      	movs	r1, #14
1000141c:	f64f 72ff 	movw	r2, #65535	@ 0xffff
10001420:	2708      	movs	r7, #8
10001422:	f04f 0e0a 	mov.w	lr, #10
10001426:	f8a3 50c0 	strh.w	r5, [r3, #192]	@ 0xc0
1000142a:	f04f 0901 	mov.w	r9, #1
1000142e:	f04f 0c0c 	mov.w	ip, #12
10001432:	f04f 0b02 	mov.w	fp, #2
10001436:	f04f 0a09 	mov.w	sl, #9
1000143a:	200d      	movs	r0, #13
1000143c:	f04f 050b 	mov.w	r5, #11
10001440:	f8a3 1168 	strh.w	r1, [r3, #360]	@ 0x168
10001444:	4917      	ldr	r1, [pc, #92]	@ (100014a4 <runtime_init_default_alarm_pool+0xec>)
10001446:	80a2      	strh	r2, [r4, #4]
10001448:	f8a3 e108 	strh.w	lr, [r3, #264]	@ 0x108
1000144c:	60a1      	str	r1, [r4, #8]
1000144e:	f8a3 b048 	strh.w	fp, [r3, #72]	@ 0x48
10001452:	f8a3 a0f0 	strh.w	sl, [r3, #240]	@ 0xf0
10001456:	f8a3 5120 	strh.w	r5, [r3, #288]	@ 0x120
1000145a:	f8a3 c138 	strh.w	ip, [r3, #312]	@ 0x138
1000145e:	f8a3 0150 	strh.w	r0, [r3, #336]	@ 0x150
10001462:	f8a3 9030 	strh.w	r9, [r3, #48]	@ 0x30
10001466:	f8a3 6060 	strh.w	r6, [r3, #96]	@ 0x60
1000146a:	f8a3 70d8 	strh.w	r7, [r3, #216]	@ 0xd8
1000146e:	801a      	strh	r2, [r3, #0]
10001470:	4b0d      	ldr	r3, [pc, #52]	@ (100014a8 <runtime_init_default_alarm_pool+0xf0>)
10001472:	4630      	mov	r0, r6
10001474:	f8c8 7020 	str.w	r7, [r8, #32]
10001478:	490c      	ldr	r1, [pc, #48]	@ (100014ac <runtime_init_default_alarm_pool+0xf4>)
1000147a:	60dc      	str	r4, [r3, #12]
1000147c:	f7ff fc1e 	bl	10000cbc <irq_set_exclusive_handler>
10001480:	4649      	mov	r1, r9
10001482:	4630      	mov	r0, r6
10001484:	f7ff fbd8 	bl	10000c38 <irq_set_enabled>
10001488:	4b09      	ldr	r3, [pc, #36]	@ (100014b0 <runtime_init_default_alarm_pool+0xf8>)
1000148a:	210a      	movs	r1, #10
1000148c:	641f      	str	r7, [r3, #64]	@ 0x40
1000148e:	4803      	ldr	r0, [pc, #12]	@ (1000149c <runtime_init_default_alarm_pool+0xe4>)
10001490:	e8bd 4ff8 	ldmia.w	sp!, {r3, r4, r5, r6, r7, r8, r9, sl, fp, lr}
10001494:	f7ff bda8 	b.w	10000fe8 <lock_init>
10001498:	200012f4 	.word	0x200012f4
1000149c:	20002830 	.word	0x20002830
100014a0:	20001d4c 	.word	0x20001d4c
100014a4:	0010ffff 	.word	0x0010ffff
100014a8:	20002808 	.word	0x20002808
100014ac:	100010c9 	.word	0x100010c9
100014b0:	400b2000 	.word	0x400b2000
100014b4:	400b0000 	.word	0x400b0000

100014b8 <alarm_pool_get_default>:
100014b8:	4800      	ldr	r0, [pc, #0]	@ (100014bc <alarm_pool_get_default+0x4>)
100014ba:	4770      	bx	lr
100014bc:	200012f4 	.word	0x200012f4

100014c0 <alarm_pool_add_alarm_at>:
100014c0:	b5f8      	push	{r3, r4, r5, r6, r7, lr}
100014c2:	f89d 5020 	ldrb.w	r5, [sp, #32]
100014c6:	4604      	mov	r4, r0
100014c8:	4617      	mov	r7, r2
100014ca:	461e      	mov	r6, r3
100014cc:	b935      	cbnz	r5, 100014dc <alarm_pool_add_alarm_at+0x1c>
100014ce:	f000 f9fd 	bl	100018cc <time_us_64>
100014d2:	4287      	cmp	r7, r0
100014d4:	eb66 0101 	sbc.w	r1, r6, r1
100014d8:	2900      	cmp	r1, #0
100014da:	db5c      	blt.n	10001596 <alarm_pool_add_alarm_at+0xd6>
100014dc:	6921      	ldr	r1, [r4, #16]
100014de:	f3ef 8310 	mrs	r3, PRIMASK
100014e2:	b672      	cpsid	i
100014e4:	e8d1 0fcf 	ldaexb	r0, [r1]
100014e8:	2201      	movs	r2, #1
100014ea:	2800      	cmp	r0, #0
100014ec:	d1fa      	bne.n	100014e4 <alarm_pool_add_alarm_at+0x24>
100014ee:	e8c1 2f40 	strexb	r0, r2, [r1]
100014f2:	2800      	cmp	r0, #0
100014f4:	d1f6      	bne.n	100014e4 <alarm_pool_add_alarm_at+0x24>
100014f6:	f3bf 8f5f 	dmb	sy
100014fa:	f9b4 2002 	ldrsh.w	r2, [r4, #2]
100014fe:	6965      	ldr	r5, [r4, #20]
10001500:	eb02 0142 	add.w	r1, r2, r2, lsl #1
10001504:	2a00      	cmp	r2, #0
10001506:	ea4f 0cc1 	mov.w	ip, r1, lsl #3
1000150a:	6920      	ldr	r0, [r4, #16]
1000150c:	eb05 01c1 	add.w	r1, r5, r1, lsl #3
10001510:	db39      	blt.n	10001586 <alarm_pool_add_alarm_at+0xc6>
10001512:	f835 e00c 	ldrh.w	lr, [r5, ip]
10001516:	f8a4 e002 	strh.w	lr, [r4, #2]
1000151a:	f04f 0e00 	mov.w	lr, #0
1000151e:	e8c0 ef8f 	stlb	lr, [r0]
10001522:	f383 8810 	msr	PRIMASK, r3
10001526:	8848      	ldrh	r0, [r1, #2]
10001528:	9b06      	ldr	r3, [sp, #24]
1000152a:	3001      	adds	r0, #1
1000152c:	f3c0 000e 	ubfx	r0, r0, #0, #15
10001530:	2801      	cmp	r0, #1
10001532:	bf38      	it	cc
10001534:	2001      	movcc	r0, #1
10001536:	610b      	str	r3, [r1, #16]
10001538:	9b07      	ldr	r3, [sp, #28]
1000153a:	8048      	strh	r0, [r1, #2]
1000153c:	614b      	str	r3, [r1, #20]
1000153e:	e9c1 7602 	strd	r7, r6, [r1, #8]
10001542:	ea40 4002 	orr.w	r0, r0, r2, lsl #16
10001546:	6923      	ldr	r3, [r4, #16]
10001548:	f3ef 8110 	mrs	r1, PRIMASK
1000154c:	b672      	cpsid	i
1000154e:	e8d3 7fcf 	ldaexb	r7, [r3]
10001552:	2601      	movs	r6, #1
10001554:	2f00      	cmp	r7, #0
10001556:	d1fa      	bne.n	1000154e <alarm_pool_add_alarm_at+0x8e>
10001558:	e8c3 6f47 	strexb	r7, r6, [r3]
1000155c:	2f00      	cmp	r7, #0
1000155e:	d1f6      	bne.n	1000154e <alarm_pool_add_alarm_at+0x8e>
10001560:	f3bf 8f5f 	dmb	sy
10001564:	88a3      	ldrh	r3, [r4, #4]
10001566:	f825 300c 	strh.w	r3, [r5, ip]
1000156a:	80a2      	strh	r2, [r4, #4]
1000156c:	6923      	ldr	r3, [r4, #16]
1000156e:	e8c3 ef8f 	stlb	lr, [r3]
10001572:	f381 8810 	msr	PRIMASK, r1
10001576:	2201      	movs	r2, #1
10001578:	68e3      	ldr	r3, [r4, #12]
1000157a:	7821      	ldrb	r1, [r4, #0]
1000157c:	f503 5301 	add.w	r3, r3, #8256	@ 0x2040
10001580:	408a      	lsls	r2, r1
10001582:	605a      	str	r2, [r3, #4]
10001584:	bdf8      	pop	{r3, r4, r5, r6, r7, pc}
10001586:	2200      	movs	r2, #0
10001588:	e8c0 2f8f 	stlb	r2, [r0]
1000158c:	f383 8810 	msr	PRIMASK, r3
10001590:	f04f 30ff 	mov.w	r0, #4294967295	@ 0xffffffff
10001594:	bdf8      	pop	{r3, r4, r5, r6, r7, pc}
10001596:	4628      	mov	r0, r5
10001598:	bdf8      	pop	{r3, r4, r5, r6, r7, pc}
1000159a:	bf00      	nop

1000159c <alarm_pool_add_alarm_at_force_in_context>:
1000159c:	4601      	mov	r1, r0
1000159e:	b5f0      	push	{r4, r5, r6, r7, lr}
100015a0:	6900      	ldr	r0, [r0, #16]
100015a2:	f3ef 8710 	mrs	r7, PRIMASK
100015a6:	b672      	cpsid	i
100015a8:	e8d0 5fcf 	ldaexb	r5, [r0]
100015ac:	2401      	movs	r4, #1
100015ae:	2d00      	cmp	r5, #0
100015b0:	d1fa      	bne.n	100015a8 <alarm_pool_add_alarm_at_force_in_context+0xc>
100015b2:	e8c0 4f45 	strexb	r5, r4, [r0]
100015b6:	2d00      	cmp	r5, #0
100015b8:	d1f6      	bne.n	100015a8 <alarm_pool_add_alarm_at_force_in_context+0xc>
100015ba:	f3bf 8f5f 	dmb	sy
100015be:	f9b1 e002 	ldrsh.w	lr, [r1, #2]
100015c2:	694c      	ldr	r4, [r1, #20]
100015c4:	eb0e 0c4e 	add.w	ip, lr, lr, lsl #1
100015c8:	f1be 0f00 	cmp.w	lr, #0
100015cc:	ea4f 05cc 	mov.w	r5, ip, lsl #3
100015d0:	6908      	ldr	r0, [r1, #16]
100015d2:	eb04 0ccc 	add.w	ip, r4, ip, lsl #3
100015d6:	db3c      	blt.n	10001652 <alarm_pool_add_alarm_at_force_in_context+0xb6>
100015d8:	5b66      	ldrh	r6, [r4, r5]
100015da:	804e      	strh	r6, [r1, #2]
100015dc:	2600      	movs	r6, #0
100015de:	e8c0 6f8f 	stlb	r6, [r0]
100015e2:	f387 8810 	msr	PRIMASK, r7
100015e6:	f8bc 0002 	ldrh.w	r0, [ip, #2]
100015ea:	e9cc 2302 	strd	r2, r3, [ip, #8]
100015ee:	3001      	adds	r0, #1
100015f0:	f3c0 000e 	ubfx	r0, r0, #0, #15
100015f4:	2801      	cmp	r0, #1
100015f6:	bf38      	it	cc
100015f8:	2001      	movcc	r0, #1
100015fa:	9b05      	ldr	r3, [sp, #20]
100015fc:	f8ac 0002 	strh.w	r0, [ip, #2]
10001600:	f8cc 3010 	str.w	r3, [ip, #16]
10001604:	9b06      	ldr	r3, [sp, #24]
10001606:	ea40 400e 	orr.w	r0, r0, lr, lsl #16
1000160a:	f8cc 3014 	str.w	r3, [ip, #20]
1000160e:	690b      	ldr	r3, [r1, #16]
10001610:	f3ef 8210 	mrs	r2, PRIMASK
10001614:	b672      	cpsid	i
10001616:	e8d3 cfcf 	ldaexb	ip, [r3]
1000161a:	2701      	movs	r7, #1
1000161c:	f1bc 0f00 	cmp.w	ip, #0
10001620:	d1f9      	bne.n	10001616 <alarm_pool_add_alarm_at_force_in_context+0x7a>
10001622:	e8c3 7f4c 	strexb	ip, r7, [r3]
10001626:	f1bc 0f00 	cmp.w	ip, #0
1000162a:	d1f4      	bne.n	10001616 <alarm_pool_add_alarm_at_force_in_context+0x7a>
1000162c:	f3bf 8f5f 	dmb	sy
10001630:	888b      	ldrh	r3, [r1, #4]
10001632:	5363      	strh	r3, [r4, r5]
10001634:	f8a1 e004 	strh.w	lr, [r1, #4]
10001638:	690b      	ldr	r3, [r1, #16]
1000163a:	e8c3 6f8f 	stlb	r6, [r3]
1000163e:	f382 8810 	msr	PRIMASK, r2
10001642:	2201      	movs	r2, #1
10001644:	68cb      	ldr	r3, [r1, #12]
10001646:	7809      	ldrb	r1, [r1, #0]
10001648:	f503 5301 	add.w	r3, r3, #8256	@ 0x2040
1000164c:	408a      	lsls	r2, r1
1000164e:	605a      	str	r2, [r3, #4]
10001650:	bdf0      	pop	{r4, r5, r6, r7, pc}
10001652:	2300      	movs	r3, #0
10001654:	e8c0 3f8f 	stlb	r3, [r0]
10001658:	f387 8810 	msr	PRIMASK, r7
1000165c:	f04f 30ff 	mov.w	r0, #4294967295	@ 0xffffffff
10001660:	bdf0      	pop	{r4, r5, r6, r7, pc}
10001662:	bf00      	nop

10001664 <alarm_pool_cancel_alarm>:
10001664:	4603      	mov	r3, r0
10001666:	8940      	ldrh	r0, [r0, #10]
10001668:	ebb0 4f21 	cmp.w	r0, r1, asr #16
1000166c:	dd37      	ble.n	100016de <alarm_pool_cancel_alarm+0x7a>
1000166e:	6958      	ldr	r0, [r3, #20]
10001670:	140a      	asrs	r2, r1, #16
10001672:	eb02 0242 	add.w	r2, r2, r2, lsl #1
10001676:	b510      	push	{r4, lr}
10001678:	eb00 00c2 	add.w	r0, r0, r2, lsl #3
1000167c:	691c      	ldr	r4, [r3, #16]
1000167e:	f3ef 8c10 	mrs	ip, PRIMASK
10001682:	b672      	cpsid	i
10001684:	e8d4 efcf 	ldaexb	lr, [r4]
10001688:	2201      	movs	r2, #1
1000168a:	f1be 0f00 	cmp.w	lr, #0
1000168e:	d1f9      	bne.n	10001684 <alarm_pool_cancel_alarm+0x20>
10001690:	e8c4 2f4e 	strexb	lr, r2, [r4]
10001694:	f1be 0f00 	cmp.w	lr, #0
10001698:	d1f4      	bne.n	10001684 <alarm_pool_cancel_alarm+0x20>
1000169a:	f3bf 8f5f 	dmb	sy
1000169e:	8842      	ldrh	r2, [r0, #2]
100016a0:	b289      	uxth	r1, r1
100016a2:	b292      	uxth	r2, r2
100016a4:	428a      	cmp	r2, r1
100016a6:	d007      	beq.n	100016b8 <alarm_pool_cancel_alarm+0x54>
100016a8:	2200      	movs	r2, #0
100016aa:	691b      	ldr	r3, [r3, #16]
100016ac:	e8c3 2f8f 	stlb	r2, [r3]
100016b0:	f38c 8810 	msr	PRIMASK, ip
100016b4:	2000      	movs	r0, #0
100016b6:	bd10      	pop	{r4, pc}
100016b8:	f442 4200 	orr.w	r2, r2, #32768	@ 0x8000
100016bc:	8042      	strh	r2, [r0, #2]
100016be:	2101      	movs	r1, #1
100016c0:	2200      	movs	r2, #0
100016c2:	6918      	ldr	r0, [r3, #16]
100016c4:	7199      	strb	r1, [r3, #6]
100016c6:	e8c0 2f8f 	stlb	r2, [r0]
100016ca:	f38c 8810 	msr	PRIMASK, ip
100016ce:	781c      	ldrb	r4, [r3, #0]
100016d0:	68da      	ldr	r2, [r3, #12]
100016d2:	4608      	mov	r0, r1
100016d4:	f502 5301 	add.w	r3, r2, #8256	@ 0x2040
100016d8:	40a1      	lsls	r1, r4
100016da:	6059      	str	r1, [r3, #4]
100016dc:	bd10      	pop	{r4, pc}
100016de:	2000      	movs	r0, #0
100016e0:	4770      	bx	lr
100016e2:	bf00      	nop

100016e4 <alarm_pool_core_num>:
100016e4:	7840      	ldrb	r0, [r0, #1]
100016e6:	4770      	bx	lr

100016e8 <sleep_ms>:
100016e8:	e92d 41f0 	stmdb	sp!, {r4, r5, r6, r7, r8, lr}
100016ec:	b082      	sub	sp, #8
100016ee:	4606      	mov	r6, r0
100016f0:	f000 f8ec 	bl	100018cc <time_us_64>
100016f4:	f44f 737a 	mov.w	r3, #1000	@ 0x3e8
100016f8:	4604      	mov	r4, r0
100016fa:	f04f 30ff 	mov.w	r0, #4294967295	@ 0xffffffff
100016fe:	f06f 4200 	mvn.w	r2, #2147483648	@ 0x80000000
10001702:	fbe6 4103 	umlal	r4, r1, r6, r3
10001706:	42a0      	cmp	r0, r4
10001708:	eb72 0301 	sbcs.w	r3, r2, r1
1000170c:	bf3a      	itte	cc
1000170e:	4604      	movcc	r4, r0
10001710:	4615      	movcc	r5, r2
10001712:	460d      	movcs	r5, r1
10001714:	1fa6      	subs	r6, r4, #6
10001716:	f145 37ff 	adc.w	r7, r5, #4294967295	@ 0xffffffff
1000171a:	42b4      	cmp	r4, r6
1000171c:	eb75 0307 	sbcs.w	r3, r5, r7
10001720:	bf3c      	itt	cc
10001722:	2600      	movcc	r6, #0
10001724:	4637      	movcc	r7, r6
10001726:	f000 f8d1 	bl	100018cc <time_us_64>
1000172a:	1a30      	subs	r0, r6, r0
1000172c:	eb67 0101 	sbc.w	r1, r7, r1
10001730:	2801      	cmp	r0, #1
10001732:	f171 0100 	sbcs.w	r1, r1, #0
10001736:	da06      	bge.n	10001746 <sleep_ms+0x5e>
10001738:	4620      	mov	r0, r4
1000173a:	4629      	mov	r1, r5
1000173c:	b002      	add	sp, #8
1000173e:	e8bd 41f0 	ldmia.w	sp!, {r4, r5, r6, r7, r8, lr}
10001742:	f000 b8fb 	b.w	1000193c <busy_wait_until>
10001746:	f000 f8c1 	bl	100018cc <time_us_64>
1000174a:	4286      	cmp	r6, r0
1000174c:	eb67 0101 	sbc.w	r1, r7, r1
10001750:	2900      	cmp	r1, #0
10001752:	db0a      	blt.n	1000176a <sleep_ms+0x82>
10001754:	2100      	movs	r1, #0
10001756:	4b17      	ldr	r3, [pc, #92]	@ (100017b4 <sleep_ms+0xcc>)
10001758:	4632      	mov	r2, r6
1000175a:	9300      	str	r3, [sp, #0]
1000175c:	4816      	ldr	r0, [pc, #88]	@ (100017b8 <sleep_ms+0xd0>)
1000175e:	463b      	mov	r3, r7
10001760:	9101      	str	r1, [sp, #4]
10001762:	f7ff ff1b 	bl	1000159c <alarm_pool_add_alarm_at_force_in_context>
10001766:	3001      	adds	r0, #1
10001768:	d0e6      	beq.n	10001738 <sleep_ms+0x50>
1000176a:	f04f 0c00 	mov.w	ip, #0
1000176e:	4a13      	ldr	r2, [pc, #76]	@ (100017bc <sleep_ms+0xd4>)
10001770:	4913      	ldr	r1, [pc, #76]	@ (100017c0 <sleep_ms+0xd8>)
10001772:	6a53      	ldr	r3, [r2, #36]	@ 0x24
10001774:	429f      	cmp	r7, r3
10001776:	d804      	bhi.n	10001782 <sleep_ms+0x9a>
10001778:	6a90      	ldr	r0, [r2, #40]	@ 0x28
1000177a:	42b0      	cmp	r0, r6
1000177c:	d2dc      	bcs.n	10001738 <sleep_ms+0x50>
1000177e:	429f      	cmp	r7, r3
10001780:	d1da      	bne.n	10001738 <sleep_ms+0x50>
10001782:	680b      	ldr	r3, [r1, #0]
10001784:	f3ef 8010 	mrs	r0, PRIMASK
10001788:	b672      	cpsid	i
1000178a:	e8d3 8fcf 	ldaexb	r8, [r3]
1000178e:	f05f 0e01 	movs.w	lr, #1
10001792:	f1b8 0f00 	cmp.w	r8, #0
10001796:	d1f8      	bne.n	1000178a <sleep_ms+0xa2>
10001798:	e8c3 ef48 	strexb	r8, lr, [r3]
1000179c:	f1b8 0f00 	cmp.w	r8, #0
100017a0:	d1f3      	bne.n	1000178a <sleep_ms+0xa2>
100017a2:	f3bf 8f5f 	dmb	sy
100017a6:	680b      	ldr	r3, [r1, #0]
100017a8:	e8c3 cf8f 	stlb	ip, [r3]
100017ac:	f380 8810 	msr	PRIMASK, r0
100017b0:	bf20      	wfe
100017b2:	e7de      	b.n	10001772 <sleep_ms+0x8a>
100017b4:	10001089 	.word	0x10001089
100017b8:	200012f4 	.word	0x200012f4
100017bc:	400b0000 	.word	0x400b0000
100017c0:	20002830 	.word	0x20002830

100017c4 <best_effort_wfe_or_timeout>:
100017c4:	e92d 43f0 	stmdb	sp!, {r4, r5, r6, r7, r8, r9, lr}
100017c8:	4606      	mov	r6, r0
100017ca:	460d      	mov	r5, r1
100017cc:	b083      	sub	sp, #12
100017ce:	f3ef 8405 	mrs	r4, IPSR
100017d2:	b2e4      	uxtb	r4, r4
100017d4:	b13c      	cbz	r4, 100017e6 <best_effort_wfe_or_timeout+0x22>
100017d6:	4b2d      	ldr	r3, [pc, #180]	@ (1000188c <best_effort_wfe_or_timeout+0xc8>)
100017d8:	6a5a      	ldr	r2, [r3, #36]	@ 0x24
100017da:	42aa      	cmp	r2, r5
100017dc:	d21c      	bcs.n	10001818 <best_effort_wfe_or_timeout+0x54>
100017de:	2000      	movs	r0, #0
100017e0:	b003      	add	sp, #12
100017e2:	e8bd 83f0 	ldmia.w	sp!, {r4, r5, r6, r7, r8, r9, pc}
100017e6:	4f2a      	ldr	r7, [pc, #168]	@ (10001890 <best_effort_wfe_or_timeout+0xcc>)
100017e8:	f8d7 900c 	ldr.w	r9, [r7, #12]
100017ec:	f897 8000 	ldrb.w	r8, [r7]
100017f0:	4648      	mov	r0, r9
100017f2:	f000 f863 	bl	100018bc <timer_time_us_64>
100017f6:	f108 0804 	add.w	r8, r8, #4
100017fa:	f859 3028 	ldr.w	r3, [r9, r8, lsl #2]
100017fe:	1a1b      	subs	r3, r3, r0
10001800:	1a30      	subs	r0, r6, r0
10001802:	eb65 0101 	sbc.w	r1, r5, r1
10001806:	4298      	cmp	r0, r3
10001808:	f171 0100 	sbcs.w	r1, r1, #0
1000180c:	db10      	blt.n	10001830 <best_effort_wfe_or_timeout+0x6c>
1000180e:	bf20      	wfe
10001810:	4b1e      	ldr	r3, [pc, #120]	@ (1000188c <best_effort_wfe_or_timeout+0xc8>)
10001812:	6a5a      	ldr	r2, [r3, #36]	@ 0x24
10001814:	42aa      	cmp	r2, r5
10001816:	d3e2      	bcc.n	100017de <best_effort_wfe_or_timeout+0x1a>
10001818:	bf14      	ite	ne
1000181a:	2401      	movne	r4, #1
1000181c:	2400      	moveq	r4, #0
1000181e:	6a9b      	ldr	r3, [r3, #40]	@ 0x28
10001820:	42b3      	cmp	r3, r6
10001822:	bf34      	ite	cc
10001824:	4620      	movcc	r0, r4
10001826:	f044 0001 	orrcs.w	r0, r4, #1
1000182a:	b003      	add	sp, #12
1000182c:	e8bd 83f0 	ldmia.w	sp!, {r4, r5, r6, r7, r8, r9, pc}
10001830:	f000 f84c 	bl	100018cc <time_us_64>
10001834:	4286      	cmp	r6, r0
10001836:	eb65 0101 	sbc.w	r1, r5, r1
1000183a:	2900      	cmp	r1, #0
1000183c:	db14      	blt.n	10001868 <best_effort_wfe_or_timeout+0xa4>
1000183e:	4b15      	ldr	r3, [pc, #84]	@ (10001894 <best_effort_wfe_or_timeout+0xd0>)
10001840:	4638      	mov	r0, r7
10001842:	e9cd 3400 	strd	r3, r4, [sp]
10001846:	4632      	mov	r2, r6
10001848:	462b      	mov	r3, r5
1000184a:	f7ff fea7 	bl	1000159c <alarm_pool_add_alarm_at_force_in_context>
1000184e:	1e01      	subs	r1, r0, #0
10001850:	dd0a      	ble.n	10001868 <best_effort_wfe_or_timeout+0xa4>
10001852:	4b0e      	ldr	r3, [pc, #56]	@ (1000188c <best_effort_wfe_or_timeout+0xc8>)
10001854:	6a5a      	ldr	r2, [r3, #36]	@ 0x24
10001856:	42aa      	cmp	r2, r5
10001858:	d316      	bcc.n	10001888 <best_effort_wfe_or_timeout+0xc4>
1000185a:	6a9b      	ldr	r3, [r3, #40]	@ 0x28
1000185c:	42b3      	cmp	r3, r6
1000185e:	d311      	bcc.n	10001884 <best_effort_wfe_or_timeout+0xc0>
10001860:	480b      	ldr	r0, [pc, #44]	@ (10001890 <best_effort_wfe_or_timeout+0xcc>)
10001862:	f7ff feff 	bl	10001664 <alarm_pool_cancel_alarm>
10001866:	e7b6      	b.n	100017d6 <best_effort_wfe_or_timeout+0x12>
10001868:	4b08      	ldr	r3, [pc, #32]	@ (1000188c <best_effort_wfe_or_timeout+0xc8>)
1000186a:	6a5c      	ldr	r4, [r3, #36]	@ 0x24
1000186c:	42ac      	cmp	r4, r5
1000186e:	d3b6      	bcc.n	100017de <best_effort_wfe_or_timeout+0x1a>
10001870:	1b64      	subs	r4, r4, r5
10001872:	bf18      	it	ne
10001874:	2401      	movne	r4, #1
10001876:	6a9b      	ldr	r3, [r3, #40]	@ 0x28
10001878:	42b3      	cmp	r3, r6
1000187a:	bf34      	ite	cc
1000187c:	4620      	movcc	r0, r4
1000187e:	f044 0001 	orrcs.w	r0, r4, #1
10001882:	e7ad      	b.n	100017e0 <best_effort_wfe_or_timeout+0x1c>
10001884:	42aa      	cmp	r2, r5
10001886:	d1eb      	bne.n	10001860 <best_effort_wfe_or_timeout+0x9c>
10001888:	bf20      	wfe
1000188a:	e7e9      	b.n	10001860 <best_effort_wfe_or_timeout+0x9c>
1000188c:	400b0000 	.word	0x400b0000
10001890:	200012f4 	.word	0x200012f4
10001894:	10001089 	.word	0x10001089

10001898 <timer_hardware_alarm_claim>:
10001898:	b410      	push	{r4}
1000189a:	4b05      	ldr	r3, [pc, #20]	@ (100018b0 <timer_hardware_alarm_claim+0x18>)
1000189c:	4c05      	ldr	r4, [pc, #20]	@ (100018b4 <timer_hardware_alarm_claim+0x1c>)
1000189e:	4a06      	ldr	r2, [pc, #24]	@ (100018b8 <timer_hardware_alarm_claim+0x20>)
100018a0:	42a0      	cmp	r0, r4
100018a2:	bf14      	ite	ne
100018a4:	4618      	movne	r0, r3
100018a6:	1c58      	addeq	r0, r3, #1
100018a8:	f85d 4b04 	ldr.w	r4, [sp], #4
100018ac:	f7ff b908 	b.w	10000ac0 <hw_claim_or_assert>
100018b0:	2000216c 	.word	0x2000216c
100018b4:	400b8000 	.word	0x400b8000
100018b8:	10005a50 	.word	0x10005a50

100018bc <timer_time_us_64>:
100018bc:	4603      	mov	r3, r0
100018be:	6a41      	ldr	r1, [r0, #36]	@ 0x24
100018c0:	460a      	mov	r2, r1
100018c2:	6a98      	ldr	r0, [r3, #40]	@ 0x28
100018c4:	6a59      	ldr	r1, [r3, #36]	@ 0x24
100018c6:	428a      	cmp	r2, r1
100018c8:	d1fa      	bne.n	100018c0 <timer_time_us_64+0x4>
100018ca:	4770      	bx	lr

100018cc <time_us_64>:
100018cc:	4b03      	ldr	r3, [pc, #12]	@ (100018dc <time_us_64+0x10>)
100018ce:	6a59      	ldr	r1, [r3, #36]	@ 0x24
100018d0:	460a      	mov	r2, r1
100018d2:	6a98      	ldr	r0, [r3, #40]	@ 0x28
100018d4:	6a59      	ldr	r1, [r3, #36]	@ 0x24
100018d6:	4291      	cmp	r1, r2
100018d8:	d1fa      	bne.n	100018d0 <time_us_64+0x4>
100018da:	4770      	bx	lr
100018dc:	400b0000 	.word	0x400b0000

100018e0 <busy_wait_us>:
100018e0:	b430      	push	{r4, r5}
100018e2:	4a15      	ldr	r2, [pc, #84]	@ (10001938 <busy_wait_us+0x58>)
100018e4:	6a53      	ldr	r3, [r2, #36]	@ 0x24
100018e6:	469c      	mov	ip, r3
100018e8:	6a94      	ldr	r4, [r2, #40]	@ 0x28
100018ea:	6a53      	ldr	r3, [r2, #36]	@ 0x24
100018ec:	4563      	cmp	r3, ip
100018ee:	d1fa      	bne.n	100018e6 <busy_wait_us+0x6>
100018f0:	1902      	adds	r2, r0, r4
100018f2:	4159      	adcs	r1, r3
100018f4:	f04f 0500 	mov.w	r5, #0
100018f8:	bf28      	it	cs
100018fa:	2501      	movcs	r5, #1
100018fc:	4b0e      	ldr	r3, [pc, #56]	@ (10001938 <busy_wait_us+0x58>)
100018fe:	6a5b      	ldr	r3, [r3, #36]	@ 0x24
10001900:	b1b5      	cbz	r5, 10001930 <busy_wait_us+0x50>
10001902:	1c5a      	adds	r2, r3, #1
10001904:	bf08      	it	eq
10001906:	461a      	moveq	r2, r3
10001908:	d008      	beq.n	1000191c <busy_wait_us+0x3c>
1000190a:	f04f 31ff 	mov.w	r1, #4294967295	@ 0xffffffff
1000190e:	460a      	mov	r2, r1
10001910:	4809      	ldr	r0, [pc, #36]	@ (10001938 <busy_wait_us+0x58>)
10001912:	6a43      	ldr	r3, [r0, #36]	@ 0x24
10001914:	428b      	cmp	r3, r1
10001916:	d3fc      	bcc.n	10001912 <busy_wait_us+0x32>
10001918:	428b      	cmp	r3, r1
1000191a:	d107      	bne.n	1000192c <busy_wait_us+0x4c>
1000191c:	4906      	ldr	r1, [pc, #24]	@ (10001938 <busy_wait_us+0x58>)
1000191e:	e002      	b.n	10001926 <busy_wait_us+0x46>
10001920:	6a48      	ldr	r0, [r1, #36]	@ 0x24
10001922:	4298      	cmp	r0, r3
10001924:	d102      	bne.n	1000192c <busy_wait_us+0x4c>
10001926:	6a88      	ldr	r0, [r1, #40]	@ 0x28
10001928:	4290      	cmp	r0, r2
1000192a:	d3f9      	bcc.n	10001920 <busy_wait_us+0x40>
1000192c:	bc30      	pop	{r4, r5}
1000192e:	4770      	bx	lr
10001930:	4299      	cmp	r1, r3
10001932:	d8ed      	bhi.n	10001910 <busy_wait_us+0x30>
10001934:	e7f0      	b.n	10001918 <busy_wait_us+0x38>
10001936:	bf00      	nop
10001938:	400b0000 	.word	0x400b0000

1000193c <busy_wait_until>:
1000193c:	4a07      	ldr	r2, [pc, #28]	@ (1000195c <busy_wait_until+0x20>)
1000193e:	6a53      	ldr	r3, [r2, #36]	@ 0x24
10001940:	4299      	cmp	r1, r3
10001942:	d8fc      	bhi.n	1000193e <busy_wait_until+0x2>
10001944:	4299      	cmp	r1, r3
10001946:	d107      	bne.n	10001958 <busy_wait_until+0x1c>
10001948:	4b04      	ldr	r3, [pc, #16]	@ (1000195c <busy_wait_until+0x20>)
1000194a:	e002      	b.n	10001952 <busy_wait_until+0x16>
1000194c:	6a5a      	ldr	r2, [r3, #36]	@ 0x24
1000194e:	4291      	cmp	r1, r2
10001950:	d102      	bne.n	10001958 <busy_wait_until+0x1c>
10001952:	6a9a      	ldr	r2, [r3, #40]	@ 0x28
10001954:	4290      	cmp	r0, r2
10001956:	d8f9      	bhi.n	1000194c <busy_wait_until+0x10>
10001958:	4770      	bx	lr
1000195a:	bf00      	nop
1000195c:	400b0000 	.word	0x400b0000

10001960 <uart_init>:
10001960:	b5f8      	push	{r3, r4, r5, r6, r7, lr}
10001962:	4605      	mov	r5, r0
10001964:	2006      	movs	r0, #6
10001966:	460e      	mov	r6, r1
10001968:	f000 f91c 	bl	10001ba4 <clock_get_hz>
1000196c:	2800      	cmp	r0, #0
1000196e:	d042      	beq.n	100019f6 <uart_init+0x96>
10001970:	4a35      	ldr	r2, [pc, #212]	@ (10001a48 <uart_init+0xe8>)
10001972:	4836      	ldr	r0, [pc, #216]	@ (10001a4c <uart_init+0xec>)
10001974:	4295      	cmp	r5, r2
10001976:	bf14      	ite	ne
10001978:	f04f 6280 	movne.w	r2, #67108864	@ 0x4000000
1000197c:	f04f 6200 	moveq.w	r2, #134217728	@ 0x8000000
10001980:	4b33      	ldr	r3, [pc, #204]	@ (10001a50 <uart_init+0xf0>)
10001982:	4934      	ldr	r1, [pc, #208]	@ (10001a54 <uart_init+0xf4>)
10001984:	6002      	str	r2, [r0, #0]
10001986:	601a      	str	r2, [r3, #0]
10001988:	688c      	ldr	r4, [r1, #8]
1000198a:	ea32 0404 	bics.w	r4, r2, r4
1000198e:	d1fb      	bne.n	10001988 <uart_init+0x28>
10001990:	4b2d      	ldr	r3, [pc, #180]	@ (10001a48 <uart_init+0xe8>)
10001992:	f44f 7180 	mov.w	r1, #256	@ 0x100
10001996:	1aeb      	subs	r3, r5, r3
10001998:	fab3 f383 	clz	r3, r3
1000199c:	4a2e      	ldr	r2, [pc, #184]	@ (10001a58 <uart_init+0xf8>)
1000199e:	095b      	lsrs	r3, r3, #5
100019a0:	2006      	movs	r0, #6
100019a2:	f822 1013 	strh.w	r1, [r2, r3, lsl #1]
100019a6:	f000 f8fd 	bl	10001ba4 <clock_get_hz>
100019aa:	00c3      	lsls	r3, r0, #3
100019ac:	fbb3 f3f6 	udiv	r3, r3, r6
100019b0:	3301      	adds	r3, #1
100019b2:	09da      	lsrs	r2, r3, #7
100019b4:	d120      	bne.n	100019f8 <uart_init+0x98>
100019b6:	2640      	movs	r6, #64	@ 0x40
100019b8:	2101      	movs	r1, #1
100019ba:	6269      	str	r1, [r5, #36]	@ 0x24
100019bc:	62aa      	str	r2, [r5, #40]	@ 0x28
100019be:	6b2f      	ldr	r7, [r5, #48]	@ 0x30
100019c0:	07fb      	lsls	r3, r7, #31
100019c2:	d422      	bmi.n	10001a0a <uart_init+0xaa>
100019c4:	462b      	mov	r3, r5
100019c6:	2200      	movs	r2, #0
100019c8:	f853 1f2c 	ldr.w	r1, [r3, #44]!
100019cc:	2006      	movs	r0, #6
100019ce:	f503 5480 	add.w	r4, r3, #4096	@ 0x1000
100019d2:	6022      	str	r2, [r4, #0]
100019d4:	632f      	str	r7, [r5, #48]	@ 0x30
100019d6:	f000 f8e5 	bl	10001ba4 <clock_get_hz>
100019da:	f240 3101 	movw	r1, #769	@ 0x301
100019de:	2203      	movs	r2, #3
100019e0:	0080      	lsls	r0, r0, #2
100019e2:	fbb0 f0f6 	udiv	r0, r0, r6
100019e6:	6aeb      	ldr	r3, [r5, #44]	@ 0x2c
100019e8:	f083 0370 	eor.w	r3, r3, #112	@ 0x70
100019ec:	f003 037e 	and.w	r3, r3, #126	@ 0x7e
100019f0:	6023      	str	r3, [r4, #0]
100019f2:	6329      	str	r1, [r5, #48]	@ 0x30
100019f4:	64aa      	str	r2, [r5, #72]	@ 0x48
100019f6:	bdf8      	pop	{r3, r4, r5, r6, r7, pc}
100019f8:	f64f 71fe 	movw	r1, #65534	@ 0xfffe
100019fc:	428a      	cmp	r2, r1
100019fe:	d91b      	bls.n	10001a38 <uart_init+0xd8>
10001a00:	4622      	mov	r2, r4
10001a02:	f64f 71ff 	movw	r1, #65535	@ 0xffff
10001a06:	4e15      	ldr	r6, [pc, #84]	@ (10001a5c <uart_init+0xfc>)
10001a08:	e7d7      	b.n	100019ba <uart_init+0x5a>
10001a0a:	f240 3201 	movw	r2, #769	@ 0x301
10001a0e:	f505 5340 	add.w	r3, r5, #12288	@ 0x3000
10001a12:	631a      	str	r2, [r3, #48]	@ 0x30
10001a14:	6a6b      	ldr	r3, [r5, #36]	@ 0x24
10001a16:	6aac      	ldr	r4, [r5, #40]	@ 0x28
10001a18:	2006      	movs	r0, #6
10001a1a:	eb04 1483 	add.w	r4, r4, r3, lsl #6
10001a1e:	f000 f8c1 	bl	10001ba4 <clock_get_hz>
10001a22:	4b0f      	ldr	r3, [pc, #60]	@ (10001a60 <uart_init+0x100>)
10001a24:	02a4      	lsls	r4, r4, #10
10001a26:	fba3 2300 	umull	r2, r3, r3, r0
10001a2a:	0adb      	lsrs	r3, r3, #11
10001a2c:	2100      	movs	r1, #0
10001a2e:	fbb4 f0f3 	udiv	r0, r4, r3
10001a32:	f7ff ff55 	bl	100018e0 <busy_wait_us>
10001a36:	e7c5      	b.n	100019c4 <uart_init+0x64>
10001a38:	f3c3 0345 	ubfx	r3, r3, #1, #6
10001a3c:	4611      	mov	r1, r2
10001a3e:	eb03 1682 	add.w	r6, r3, r2, lsl #6
10001a42:	461a      	mov	r2, r3
10001a44:	e7b9      	b.n	100019ba <uart_init+0x5a>
10001a46:	bf00      	nop
10001a48:	40078000 	.word	0x40078000
10001a4c:	40022000 	.word	0x40022000
10001a50:	40023000 	.word	0x40023000
10001a54:	40020000 	.word	0x40020000
10001a58:	20002880 	.word	0x20002880
10001a5c:	003fffc0 	.word	0x003fffc0
10001a60:	8f2b7b75 	.word	0x8f2b7b75

10001a64 <uart_set_format>:
10001a64:	3a01      	subs	r2, #1
10001a66:	3905      	subs	r1, #5
10001a68:	00d2      	lsls	r2, r2, #3
10001a6a:	b5f8      	push	{r3, r4, r5, r6, r7, lr}
10001a6c:	4605      	mov	r5, r0
10001a6e:	ea42 1441 	orr.w	r4, r2, r1, lsl #5
10001a72:	b143      	cbz	r3, 10001a86 <uart_set_format+0x22>
10001a74:	f1a3 0301 	sub.w	r3, r3, #1
10001a78:	fab3 f383 	clz	r3, r3
10001a7c:	095b      	lsrs	r3, r3, #5
10001a7e:	ea44 0383 	orr.w	r3, r4, r3, lsl #2
10001a82:	f043 0402 	orr.w	r4, r3, #2
10001a86:	6b2e      	ldr	r6, [r5, #48]	@ 0x30
10001a88:	07f3      	lsls	r3, r6, #31
10001a8a:	d40a      	bmi.n	10001aa2 <uart_set_format+0x3e>
10001a8c:	462b      	mov	r3, r5
10001a8e:	f853 2f2c 	ldr.w	r2, [r3, #44]!
10001a92:	4062      	eors	r2, r4
10001a94:	f002 026e 	and.w	r2, r2, #110	@ 0x6e
10001a98:	f503 5380 	add.w	r3, r3, #4096	@ 0x1000
10001a9c:	601a      	str	r2, [r3, #0]
10001a9e:	632e      	str	r6, [r5, #48]	@ 0x30
10001aa0:	bdf8      	pop	{r3, r4, r5, r6, r7, pc}
10001aa2:	f240 3201 	movw	r2, #769	@ 0x301
10001aa6:	f505 5340 	add.w	r3, r5, #12288	@ 0x3000
10001aaa:	631a      	str	r2, [r3, #48]	@ 0x30
10001aac:	6a6b      	ldr	r3, [r5, #36]	@ 0x24
10001aae:	6aaf      	ldr	r7, [r5, #40]	@ 0x28
10001ab0:	2006      	movs	r0, #6
10001ab2:	eb07 1783 	add.w	r7, r7, r3, lsl #6
10001ab6:	f000 f875 	bl	10001ba4 <clock_get_hz>
10001aba:	4b05      	ldr	r3, [pc, #20]	@ (10001ad0 <uart_set_format+0x6c>)
10001abc:	02bf      	lsls	r7, r7, #10
10001abe:	fba3 3000 	umull	r3, r0, r3, r0
10001ac2:	0ac0      	lsrs	r0, r0, #11
10001ac4:	2100      	movs	r1, #0
10001ac6:	fbb7 f0f0 	udiv	r0, r7, r0
10001aca:	f7ff ff09 	bl	100018e0 <busy_wait_us>
10001ace:	e7dd      	b.n	10001a8c <uart_set_format+0x28>
10001ad0:	8f2b7b75 	.word	0x8f2b7b75

10001ad4 <clock_configure_undivided>:
10001ad4:	eb00 0c40 	add.w	ip, r0, r0, lsl #1
10001ad8:	ea4f 0c8c 	mov.w	ip, ip, lsl #2
10001adc:	f10c 4c80 	add.w	ip, ip, #1073741824	@ 0x40000000
10001ae0:	f50c 3c80 	add.w	ip, ip, #65536	@ 0x10000
10001ae4:	b5f0      	push	{r4, r5, r6, r7, lr}
10001ae6:	4616      	mov	r6, r2
10001ae8:	f8dc 2004 	ldr.w	r2, [ip, #4]
10001aec:	1f05      	subs	r5, r0, #4
10001aee:	f5b2 3f80 	cmp.w	r2, #65536	@ 0x10000
10001af2:	bf38      	it	cc
10001af4:	f44f 3280 	movcc.w	r2, #65536	@ 0x10000
10001af8:	b2ed      	uxtb	r5, r5
10001afa:	bf38      	it	cc
10001afc:	f8cc 2004 	strcc.w	r2, [ip, #4]
10001b00:	2d01      	cmp	r5, #1
10001b02:	d92a      	bls.n	10001b5a <clock_configure_undivided+0x86>
10001b04:	f44f 6700 	mov.w	r7, #2048	@ 0x800
10001b08:	4c25      	ldr	r4, [pc, #148]	@ (10001ba0 <clock_configure_undivided+0xcc>)
10001b0a:	f50c 5240 	add.w	r2, ip, #12288	@ 0x3000
10001b0e:	6017      	str	r7, [r2, #0]
10001b10:	f854 2020 	ldr.w	r2, [r4, r0, lsl #2]
10001b14:	b9b2      	cbnz	r2, 10001b44 <clock_configure_undivided+0x70>
10001b16:	f8dc 2000 	ldr.w	r2, [ip]
10001b1a:	2d01      	cmp	r5, #1
10001b1c:	ea82 1246 	eor.w	r2, r2, r6, lsl #5
10001b20:	f002 02e0 	and.w	r2, r2, #224	@ 0xe0
10001b24:	f50c 5680 	add.w	r6, ip, #4096	@ 0x1000
10001b28:	6032      	str	r2, [r6, #0]
10001b2a:	d92a      	bls.n	10001b82 <clock_configure_undivided+0xae>
10001b2c:	f44f 6100 	mov.w	r1, #2048	@ 0x800
10001b30:	f844 3020 	str.w	r3, [r4, r0, lsl #2]
10001b34:	f44f 3380 	mov.w	r3, #65536	@ 0x10000
10001b38:	f50c 5200 	add.w	r2, ip, #8192	@ 0x2000
10001b3c:	6011      	str	r1, [r2, #0]
10001b3e:	f8cc 3004 	str.w	r3, [ip, #4]
10001b42:	bdf0      	pop	{r4, r5, r6, r7, pc}
10001b44:	6967      	ldr	r7, [r4, #20]
10001b46:	fbb7 fef2 	udiv	lr, r7, r2
10001b4a:	f10e 0e01 	add.w	lr, lr, #1
10001b4e:	eb0e 0e4e 	add.w	lr, lr, lr, lsl #1
10001b52:	f1be 0e03 	subs.w	lr, lr, #3
10001b56:	d2fc      	bcs.n	10001b52 <clock_configure_undivided+0x7e>
10001b58:	e7dd      	b.n	10001b16 <clock_configure_undivided+0x42>
10001b5a:	2901      	cmp	r1, #1
10001b5c:	d1d2      	bne.n	10001b04 <clock_configure_undivided+0x30>
10001b5e:	2403      	movs	r4, #3
10001b60:	f50c 5240 	add.w	r2, ip, #12288	@ 0x3000
10001b64:	6014      	str	r4, [r2, #0]
10001b66:	f8dc 2008 	ldr.w	r2, [ip, #8]
10001b6a:	07d2      	lsls	r2, r2, #31
10001b6c:	d5fb      	bpl.n	10001b66 <clock_configure_undivided+0x92>
10001b6e:	f8dc 2000 	ldr.w	r2, [ip]
10001b72:	4c0b      	ldr	r4, [pc, #44]	@ (10001ba0 <clock_configure_undivided+0xcc>)
10001b74:	ea82 1246 	eor.w	r2, r2, r6, lsl #5
10001b78:	f002 02e0 	and.w	r2, r2, #224	@ 0xe0
10001b7c:	f50c 5680 	add.w	r6, ip, #4096	@ 0x1000
10001b80:	6032      	str	r2, [r6, #0]
10001b82:	2201      	movs	r2, #1
10001b84:	f8dc 5000 	ldr.w	r5, [ip]
10001b88:	404d      	eors	r5, r1
10001b8a:	f005 0503 	and.w	r5, r5, #3
10001b8e:	6035      	str	r5, [r6, #0]
10001b90:	fa02 f101 	lsl.w	r1, r2, r1
10001b94:	f8dc 2008 	ldr.w	r2, [ip, #8]
10001b98:	420a      	tst	r2, r1
10001b9a:	d0fb      	beq.n	10001b94 <clock_configure_undivided+0xc0>
10001b9c:	e7c6      	b.n	10001b2c <clock_configure_undivided+0x58>
10001b9e:	bf00      	nop
10001ba0:	20002170 	.word	0x20002170

10001ba4 <clock_get_hz>:
10001ba4:	4b01      	ldr	r3, [pc, #4]	@ (10001bac <clock_get_hz+0x8>)
10001ba6:	f853 0020 	ldr.w	r0, [r3, r0, lsl #2]
10001baa:	4770      	bx	lr
10001bac:	20002170 	.word	0x20002170

10001bb0 <set_sys_clock_pll>:
10001bb0:	4b58      	ldr	r3, [pc, #352]	@ (10001d14 <set_sys_clock_pll+0x164>)
10001bb2:	e92d 43f0 	stmdb	sp!, {r4, r5, r6, r7, r8, r9, lr}
10001bb6:	6c1c      	ldr	r4, [r3, #64]	@ 0x40
10001bb8:	4617      	mov	r7, r2
10001bba:	f5b4 3f80 	cmp.w	r4, #65536	@ 0x10000
10001bbe:	bf38      	it	cc
10001bc0:	f44f 3280 	movcc.w	r2, #65536	@ 0x10000
10001bc4:	b083      	sub	sp, #12
10001bc6:	bf38      	it	cc
10001bc8:	641a      	strcc	r2, [r3, #64]	@ 0x40
10001bca:	2203      	movs	r2, #3
10001bcc:	4680      	mov	r8, r0
10001bce:	460e      	mov	r6, r1
10001bd0:	4b51      	ldr	r3, [pc, #324]	@ (10001d18 <set_sys_clock_pll+0x168>)
10001bd2:	4d50      	ldr	r5, [pc, #320]	@ (10001d14 <set_sys_clock_pll+0x164>)
10001bd4:	63da      	str	r2, [r3, #60]	@ 0x3c
10001bd6:	6c6c      	ldr	r4, [r5, #68]	@ 0x44
10001bd8:	07e3      	lsls	r3, r4, #31
10001bda:	d5fc      	bpl.n	10001bd6 <set_sys_clock_pll+0x26>
10001bdc:	6beb      	ldr	r3, [r5, #60]	@ 0x3c
10001bde:	4a4f      	ldr	r2, [pc, #316]	@ (10001d1c <set_sys_clock_pll+0x16c>)
10001be0:	f083 0320 	eor.w	r3, r3, #32
10001be4:	f003 03e0 	and.w	r3, r3, #224	@ 0xe0
10001be8:	63d3      	str	r3, [r2, #60]	@ 0x3c
10001bea:	6beb      	ldr	r3, [r5, #60]	@ 0x3c
10001bec:	4d49      	ldr	r5, [pc, #292]	@ (10001d14 <set_sys_clock_pll+0x164>)
10001bee:	f083 0301 	eor.w	r3, r3, #1
10001bf2:	f003 0303 	and.w	r3, r3, #3
10001bf6:	63d3      	str	r3, [r2, #60]	@ 0x3c
10001bf8:	6c6c      	ldr	r4, [r5, #68]	@ 0x44
10001bfa:	07a4      	lsls	r4, r4, #30
10001bfc:	d5fc      	bpl.n	10001bf8 <set_sys_clock_pll+0x48>
10001bfe:	f44f 6200 	mov.w	r2, #2048	@ 0x800
10001c02:	f44f 3980 	mov.w	r9, #65536	@ 0x10000
10001c06:	4b46      	ldr	r3, [pc, #280]	@ (10001d20 <set_sys_clock_pll+0x170>)
10001c08:	4c46      	ldr	r4, [pc, #280]	@ (10001d24 <set_sys_clock_pll+0x174>)
10001c0a:	63da      	str	r2, [r3, #60]	@ 0x3c
10001c0c:	4b46      	ldr	r3, [pc, #280]	@ (10001d28 <set_sys_clock_pll+0x178>)
10001c0e:	4642      	mov	r2, r8
10001c10:	6163      	str	r3, [r4, #20]
10001c12:	2101      	movs	r1, #1
10001c14:	4633      	mov	r3, r6
10001c16:	f8c5 9040 	str.w	r9, [r5, #64]	@ 0x40
10001c1a:	4844      	ldr	r0, [pc, #272]	@ (10001d2c <set_sys_clock_pll+0x17c>)
10001c1c:	9700      	str	r7, [sp, #0]
10001c1e:	f000 f933 	bl	10001e88 <pll_init>
10001c22:	f44f 6100 	mov.w	r1, #2048	@ 0x800
10001c26:	6b6b      	ldr	r3, [r5, #52]	@ 0x34
10001c28:	fb07 f606 	mul.w	r6, r7, r6
10001c2c:	454b      	cmp	r3, r9
10001c2e:	bf38      	it	cc
10001c30:	f8c5 9034 	strcc.w	r9, [r5, #52]	@ 0x34
10001c34:	4b38      	ldr	r3, [pc, #224]	@ (10001d18 <set_sys_clock_pll+0x168>)
10001c36:	6922      	ldr	r2, [r4, #16]
10001c38:	fbb8 f6f6 	udiv	r6, r8, r6
10001c3c:	6319      	str	r1, [r3, #48]	@ 0x30
10001c3e:	b13a      	cbz	r2, 10001c50 <set_sys_clock_pll+0xa0>
10001c40:	6963      	ldr	r3, [r4, #20]
10001c42:	fbb3 f3f2 	udiv	r3, r3, r2
10001c46:	3301      	adds	r3, #1
10001c48:	eb03 0343 	add.w	r3, r3, r3, lsl #1
10001c4c:	3b03      	subs	r3, #3
10001c4e:	d2fd      	bcs.n	10001c4c <set_sys_clock_pll+0x9c>
10001c50:	4930      	ldr	r1, [pc, #192]	@ (10001d14 <set_sys_clock_pll+0x164>)
10001c52:	4a32      	ldr	r2, [pc, #200]	@ (10001d1c <set_sys_clock_pll+0x16c>)
10001c54:	6b0b      	ldr	r3, [r1, #48]	@ 0x30
10001c56:	f003 03e0 	and.w	r3, r3, #224	@ 0xe0
10001c5a:	6313      	str	r3, [r2, #48]	@ 0x30
10001c5c:	6b0b      	ldr	r3, [r1, #48]	@ 0x30
10001c5e:	f083 0302 	eor.w	r3, r3, #2
10001c62:	f003 0303 	and.w	r3, r3, #3
10001c66:	6313      	str	r3, [r2, #48]	@ 0x30
10001c68:	6b8b      	ldr	r3, [r1, #56]	@ 0x38
10001c6a:	0758      	lsls	r0, r3, #29
10001c6c:	d5fc      	bpl.n	10001c68 <set_sys_clock_pll+0xb8>
10001c6e:	f44f 6500 	mov.w	r5, #2048	@ 0x800
10001c72:	f44f 3380 	mov.w	r3, #65536	@ 0x10000
10001c76:	4a2a      	ldr	r2, [pc, #168]	@ (10001d20 <set_sys_clock_pll+0x170>)
10001c78:	6315      	str	r5, [r2, #48]	@ 0x30
10001c7a:	4a2d      	ldr	r2, [pc, #180]	@ (10001d30 <set_sys_clock_pll+0x180>)
10001c7c:	634b      	str	r3, [r1, #52]	@ 0x34
10001c7e:	6122      	str	r2, [r4, #16]
10001c80:	6c0a      	ldr	r2, [r1, #64]	@ 0x40
10001c82:	429a      	cmp	r2, r3
10001c84:	f04f 0203 	mov.w	r2, #3
10001c88:	bf38      	it	cc
10001c8a:	640b      	strcc	r3, [r1, #64]	@ 0x40
10001c8c:	4b22      	ldr	r3, [pc, #136]	@ (10001d18 <set_sys_clock_pll+0x168>)
10001c8e:	4921      	ldr	r1, [pc, #132]	@ (10001d14 <set_sys_clock_pll+0x164>)
10001c90:	63da      	str	r2, [r3, #60]	@ 0x3c
10001c92:	6c4b      	ldr	r3, [r1, #68]	@ 0x44
10001c94:	07da      	lsls	r2, r3, #31
10001c96:	d5fc      	bpl.n	10001c92 <set_sys_clock_pll+0xe2>
10001c98:	6bcb      	ldr	r3, [r1, #60]	@ 0x3c
10001c9a:	4a20      	ldr	r2, [pc, #128]	@ (10001d1c <set_sys_clock_pll+0x16c>)
10001c9c:	f003 03e0 	and.w	r3, r3, #224	@ 0xe0
10001ca0:	63d3      	str	r3, [r2, #60]	@ 0x3c
10001ca2:	6bcb      	ldr	r3, [r1, #60]	@ 0x3c
10001ca4:	491b      	ldr	r1, [pc, #108]	@ (10001d14 <set_sys_clock_pll+0x164>)
10001ca6:	f083 0301 	eor.w	r3, r3, #1
10001caa:	f003 0303 	and.w	r3, r3, #3
10001cae:	63d3      	str	r3, [r2, #60]	@ 0x3c
10001cb0:	6c4b      	ldr	r3, [r1, #68]	@ 0x44
10001cb2:	079b      	lsls	r3, r3, #30
10001cb4:	d5fc      	bpl.n	10001cb0 <set_sys_clock_pll+0x100>
10001cb6:	f44f 3380 	mov.w	r3, #65536	@ 0x10000
10001cba:	f44f 6500 	mov.w	r5, #2048	@ 0x800
10001cbe:	4a18      	ldr	r2, [pc, #96]	@ (10001d20 <set_sys_clock_pll+0x170>)
10001cc0:	6166      	str	r6, [r4, #20]
10001cc2:	63d5      	str	r5, [r2, #60]	@ 0x3c
10001cc4:	640b      	str	r3, [r1, #64]	@ 0x40
10001cc6:	6cca      	ldr	r2, [r1, #76]	@ 0x4c
10001cc8:	429a      	cmp	r2, r3
10001cca:	bf38      	it	cc
10001ccc:	64cb      	strcc	r3, [r1, #76]	@ 0x4c
10001cce:	f44f 6100 	mov.w	r1, #2048	@ 0x800
10001cd2:	4b11      	ldr	r3, [pc, #68]	@ (10001d18 <set_sys_clock_pll+0x168>)
10001cd4:	69a2      	ldr	r2, [r4, #24]
10001cd6:	6499      	str	r1, [r3, #72]	@ 0x48
10001cd8:	b13a      	cbz	r2, 10001cea <set_sys_clock_pll+0x13a>
10001cda:	6963      	ldr	r3, [r4, #20]
10001cdc:	fbb3 f3f2 	udiv	r3, r3, r2
10001ce0:	3301      	adds	r3, #1
10001ce2:	eb03 0343 	add.w	r3, r3, r3, lsl #1
10001ce6:	3b03      	subs	r3, #3
10001ce8:	d2fd      	bcs.n	10001ce6 <set_sys_clock_pll+0x136>
10001cea:	f44f 6000 	mov.w	r0, #2048	@ 0x800
10001cee:	f44f 3180 	mov.w	r1, #65536	@ 0x10000
10001cf2:	4a08      	ldr	r2, [pc, #32]	@ (10001d14 <set_sys_clock_pll+0x164>)
10001cf4:	4d09      	ldr	r5, [pc, #36]	@ (10001d1c <set_sys_clock_pll+0x16c>)
10001cf6:	6c93      	ldr	r3, [r2, #72]	@ 0x48
10001cf8:	f083 0340 	eor.w	r3, r3, #64	@ 0x40
10001cfc:	f003 03e0 	and.w	r3, r3, #224	@ 0xe0
10001d00:	64ab      	str	r3, [r5, #72]	@ 0x48
10001d02:	4b07      	ldr	r3, [pc, #28]	@ (10001d20 <set_sys_clock_pll+0x170>)
10001d04:	4d08      	ldr	r5, [pc, #32]	@ (10001d28 <set_sys_clock_pll+0x178>)
10001d06:	61a5      	str	r5, [r4, #24]
10001d08:	6498      	str	r0, [r3, #72]	@ 0x48
10001d0a:	64d1      	str	r1, [r2, #76]	@ 0x4c
10001d0c:	b003      	add	sp, #12
10001d0e:	e8bd 83f0 	ldmia.w	sp!, {r4, r5, r6, r7, r8, r9, pc}
10001d12:	bf00      	nop
10001d14:	40010000 	.word	0x40010000
10001d18:	40013000 	.word	0x40013000
10001d1c:	40011000 	.word	0x40011000
10001d20:	40012000 	.word	0x40012000
10001d24:	20002170 	.word	0x20002170
10001d28:	02dc6c00 	.word	0x02dc6c00
10001d2c:	40050000 	.word	0x40050000
10001d30:	00b71b00 	.word	0x00b71b00

10001d34 <check_sys_clock_hz>:
10001d34:	e92d 4ff0 	stmdb	sp!, {r4, r5, r6, r7, r8, r9, sl, fp, lr}
10001d38:	4688      	mov	r8, r1
10001d3a:	b085      	sub	sp, #20
10001d3c:	e9cd 2301 	strd	r2, r3, [sp, #4]
10001d40:	4c4d      	ldr	r4, [pc, #308]	@ (10001e78 <check_sys_clock_hz+0x144>)
10001d42:	f8df 913c 	ldr.w	r9, [pc, #316]	@ 10001e80 <check_sys_clock_hz+0x14c>
10001d46:	f8df a13c 	ldr.w	sl, [pc, #316]	@ 10001e84 <check_sys_clock_hz+0x150>
10001d4a:	454c      	cmp	r4, r9
10001d4c:	d907      	bls.n	10001d5e <check_sys_clock_hz+0x2a>
10001d4e:	f5a4 0437 	sub.w	r4, r4, #11993088	@ 0xb70000
10001d52:	f5a4 54d8 	sub.w	r4, r4, #6912	@ 0x1b00
10001d56:	4554      	cmp	r4, sl
10001d58:	d1f7      	bne.n	10001d4a <check_sys_clock_hz+0x16>
10001d5a:	2000      	movs	r0, #0
10001d5c:	e05f      	b.n	10001e1e <check_sys_clock_hz+0xea>
10001d5e:	2307      	movs	r3, #7
10001d60:	4a46      	ldr	r2, [pc, #280]	@ (10001e7c <check_sys_clock_hz+0x148>)
10001d62:	9403      	str	r4, [sp, #12]
10001d64:	18a2      	adds	r2, r4, r2
10001d66:	fb03 f403 	mul.w	r4, r3, r3
10001d6a:	fbb2 fef4 	udiv	lr, r2, r4
10001d6e:	4570      	cmp	r0, lr
10001d70:	f04f 0c01 	mov.w	ip, #1
10001d74:	f04f 0702 	mov.w	r7, #2
10001d78:	f04f 0603 	mov.w	r6, #3
10001d7c:	f04f 0504 	mov.w	r5, #4
10001d80:	f04f 0105 	mov.w	r1, #5
10001d84:	d03e      	beq.n	10001e04 <check_sys_clock_hz+0xd0>
10001d86:	f1b3 0e01 	subs.w	lr, r3, #1
10001d8a:	d06e      	beq.n	10001e6a <check_sys_clock_hz+0x136>
10001d8c:	fb0e f403 	mul.w	r4, lr, r3
10001d90:	fbb2 fbf4 	udiv	fp, r2, r4
10001d94:	4558      	cmp	r0, fp
10001d96:	d045      	beq.n	10001e24 <check_sys_clock_hz+0xf0>
10001d98:	b319      	cbz	r1, 10001de2 <check_sys_clock_hz+0xae>
10001d9a:	fb01 f403 	mul.w	r4, r1, r3
10001d9e:	fbb2 fbf4 	udiv	fp, r2, r4
10001da2:	4558      	cmp	r0, fp
10001da4:	d043      	beq.n	10001e2e <check_sys_clock_hz+0xfa>
10001da6:	b1e5      	cbz	r5, 10001de2 <check_sys_clock_hz+0xae>
10001da8:	fb05 f403 	mul.w	r4, r5, r3
10001dac:	fbb2 fbf4 	udiv	fp, r2, r4
10001db0:	4558      	cmp	r0, fp
10001db2:	d042      	beq.n	10001e3a <check_sys_clock_hz+0x106>
10001db4:	b1ae      	cbz	r6, 10001de2 <check_sys_clock_hz+0xae>
10001db6:	fb06 f403 	mul.w	r4, r6, r3
10001dba:	fbb2 fbf4 	udiv	fp, r2, r4
10001dbe:	4558      	cmp	r0, fp
10001dc0:	d041      	beq.n	10001e46 <check_sys_clock_hz+0x112>
10001dc2:	b177      	cbz	r7, 10001de2 <check_sys_clock_hz+0xae>
10001dc4:	fb07 f403 	mul.w	r4, r7, r3
10001dc8:	fbb2 fbf4 	udiv	fp, r2, r4
10001dcc:	4558      	cmp	r0, fp
10001dce:	d040      	beq.n	10001e52 <check_sys_clock_hz+0x11e>
10001dd0:	f1bc 0f00 	cmp.w	ip, #0
10001dd4:	d005      	beq.n	10001de2 <check_sys_clock_hz+0xae>
10001dd6:	fb0c f403 	mul.w	r4, ip, r3
10001dda:	fbb2 fbf4 	udiv	fp, r2, r4
10001dde:	4583      	cmp	fp, r0
10001de0:	d03d      	beq.n	10001e5e <check_sys_clock_hz+0x12a>
10001de2:	4673      	mov	r3, lr
10001de4:	fb03 f403 	mul.w	r4, r3, r3
10001de8:	fbb2 fef4 	udiv	lr, r2, r4
10001dec:	4570      	cmp	r0, lr
10001dee:	f101 31ff 	add.w	r1, r1, #4294967295	@ 0xffffffff
10001df2:	f105 35ff 	add.w	r5, r5, #4294967295	@ 0xffffffff
10001df6:	f106 36ff 	add.w	r6, r6, #4294967295	@ 0xffffffff
10001dfa:	f107 37ff 	add.w	r7, r7, #4294967295	@ 0xffffffff
10001dfe:	f10c 3cff 	add.w	ip, ip, #4294967295	@ 0xffffffff
10001e02:	d1c0      	bne.n	10001d86 <check_sys_clock_hz+0x52>
10001e04:	fb04 2410 	mls	r4, r4, r0, r2
10001e08:	2c00      	cmp	r4, #0
10001e0a:	d1bc      	bne.n	10001d86 <check_sys_clock_hz+0x52>
10001e0c:	469e      	mov	lr, r3
10001e0e:	2001      	movs	r0, #1
10001e10:	f8c8 2000 	str.w	r2, [r8]
10001e14:	9a01      	ldr	r2, [sp, #4]
10001e16:	6013      	str	r3, [r2, #0]
10001e18:	9b02      	ldr	r3, [sp, #8]
10001e1a:	f8c3 e000 	str.w	lr, [r3]
10001e1e:	b005      	add	sp, #20
10001e20:	e8bd 8ff0 	ldmia.w	sp!, {r4, r5, r6, r7, r8, r9, sl, fp, pc}
10001e24:	fb04 2410 	mls	r4, r4, r0, r2
10001e28:	2c00      	cmp	r4, #0
10001e2a:	d1b5      	bne.n	10001d98 <check_sys_clock_hz+0x64>
10001e2c:	e7ef      	b.n	10001e0e <check_sys_clock_hz+0xda>
10001e2e:	fb04 2410 	mls	r4, r4, r0, r2
10001e32:	2c00      	cmp	r4, #0
10001e34:	d1b7      	bne.n	10001da6 <check_sys_clock_hz+0x72>
10001e36:	468e      	mov	lr, r1
10001e38:	e7e9      	b.n	10001e0e <check_sys_clock_hz+0xda>
10001e3a:	fb04 2410 	mls	r4, r4, r0, r2
10001e3e:	2c00      	cmp	r4, #0
10001e40:	d1b8      	bne.n	10001db4 <check_sys_clock_hz+0x80>
10001e42:	46ae      	mov	lr, r5
10001e44:	e7e3      	b.n	10001e0e <check_sys_clock_hz+0xda>
10001e46:	fb04 2410 	mls	r4, r4, r0, r2
10001e4a:	2c00      	cmp	r4, #0
10001e4c:	d1b9      	bne.n	10001dc2 <check_sys_clock_hz+0x8e>
10001e4e:	46b6      	mov	lr, r6
10001e50:	e7dd      	b.n	10001e0e <check_sys_clock_hz+0xda>
10001e52:	fb04 2410 	mls	r4, r4, r0, r2
10001e56:	2c00      	cmp	r4, #0
10001e58:	d1ba      	bne.n	10001dd0 <check_sys_clock_hz+0x9c>
10001e5a:	46be      	mov	lr, r7
10001e5c:	e7d7      	b.n	10001e0e <check_sys_clock_hz+0xda>
10001e5e:	fb04 2410 	mls	r4, r4, r0, r2
10001e62:	2c00      	cmp	r4, #0
10001e64:	d1bd      	bne.n	10001de2 <check_sys_clock_hz+0xae>
10001e66:	46e6      	mov	lr, ip
10001e68:	e7d1      	b.n	10001e0e <check_sys_clock_hz+0xda>
10001e6a:	9c03      	ldr	r4, [sp, #12]
10001e6c:	f5a4 0437 	sub.w	r4, r4, #11993088	@ 0xb70000
10001e70:	f5a4 54d8 	sub.w	r4, r4, #6912	@ 0x1b00
10001e74:	e769      	b.n	10001d4a <check_sys_clock_hz+0x16>
10001e76:	bf00      	nop
10001e78:	b82da880 	.word	0xb82da880
10001e7c:	2cb41780 	.word	0x2cb41780
10001e80:	32a9f880 	.word	0x32a9f880
10001e84:	de067d80 	.word	0xde067d80

10001e88 <pll_init>:
10001e88:	b470      	push	{r4, r5, r6}
10001e8a:	9d03      	ldr	r5, [sp, #12]
10001e8c:	6804      	ldr	r4, [r0, #0]
10001e8e:	032d      	lsls	r5, r5, #12
10001e90:	ea45 4503 	orr.w	r5, r5, r3, lsl #16
10001e94:	4b1b      	ldr	r3, [pc, #108]	@ (10001f04 <pll_init+0x7c>)
10001e96:	2c00      	cmp	r4, #0
10001e98:	fbb3 f3f1 	udiv	r3, r3, r1
10001e9c:	fbb2 f6f3 	udiv	r6, r2, r3
10001ea0:	db1f      	blt.n	10001ee2 <pll_init+0x5a>
10001ea2:	4a19      	ldr	r2, [pc, #100]	@ (10001f08 <pll_init+0x80>)
10001ea4:	4b19      	ldr	r3, [pc, #100]	@ (10001f0c <pll_init+0x84>)
10001ea6:	4290      	cmp	r0, r2
10001ea8:	bf14      	ite	ne
10001eaa:	f44f 4280 	movne.w	r2, #16384	@ 0x4000
10001eae:	f44f 4200 	moveq.w	r2, #32768	@ 0x8000
10001eb2:	4c17      	ldr	r4, [pc, #92]	@ (10001f10 <pll_init+0x88>)
10001eb4:	601a      	str	r2, [r3, #0]
10001eb6:	f503 5380 	add.w	r3, r3, #4096	@ 0x1000
10001eba:	601a      	str	r2, [r3, #0]
10001ebc:	68a3      	ldr	r3, [r4, #8]
10001ebe:	ea32 0303 	bics.w	r3, r2, r3
10001ec2:	d1fb      	bne.n	10001ebc <pll_init+0x34>
10001ec4:	2221      	movs	r2, #33	@ 0x21
10001ec6:	f500 5340 	add.w	r3, r0, #12288	@ 0x3000
10001eca:	3304      	adds	r3, #4
10001ecc:	6001      	str	r1, [r0, #0]
10001ece:	6086      	str	r6, [r0, #8]
10001ed0:	601a      	str	r2, [r3, #0]
10001ed2:	6802      	ldr	r2, [r0, #0]
10001ed4:	2a00      	cmp	r2, #0
10001ed6:	dafc      	bge.n	10001ed2 <pll_init+0x4a>
10001ed8:	2208      	movs	r2, #8
10001eda:	60c5      	str	r5, [r0, #12]
10001edc:	601a      	str	r2, [r3, #0]
10001ede:	bc70      	pop	{r4, r5, r6}
10001ee0:	4770      	bx	lr
10001ee2:	6803      	ldr	r3, [r0, #0]
10001ee4:	f003 033f 	and.w	r3, r3, #63	@ 0x3f
10001ee8:	428b      	cmp	r3, r1
10001eea:	d1da      	bne.n	10001ea2 <pll_init+0x1a>
10001eec:	6883      	ldr	r3, [r0, #8]
10001eee:	f3c3 030b 	ubfx	r3, r3, #0, #12
10001ef2:	42b3      	cmp	r3, r6
10001ef4:	d1d5      	bne.n	10001ea2 <pll_init+0x1a>
10001ef6:	68c3      	ldr	r3, [r0, #12]
10001ef8:	f403 23ee 	and.w	r3, r3, #487424	@ 0x77000
10001efc:	42ab      	cmp	r3, r5
10001efe:	d1d0      	bne.n	10001ea2 <pll_init+0x1a>
10001f00:	e7ed      	b.n	10001ede <pll_init+0x56>
10001f02:	bf00      	nop
10001f04:	00b71b00 	.word	0x00b71b00
10001f08:	40058000 	.word	0x40058000
10001f0c:	40022000 	.word	0x40022000
10001f10:	40020000 	.word	0x40020000

10001f14 <watchdog_reboot>:
10001f14:	b430      	push	{r4, r5}
10001f16:	f04f 4480 	mov.w	r4, #1073741824	@ 0x40000000
10001f1a:	4b1c      	ldr	r3, [pc, #112]	@ (10001f8c <watchdog_reboot+0x78>)
10001f1c:	601c      	str	r4, [r3, #0]
10001f1e:	b1e0      	cbz	r0, 10001f5a <watchdog_reboot+0x46>
10001f20:	4c1b      	ldr	r4, [pc, #108]	@ (10001f90 <watchdog_reboot+0x7c>)
10001f22:	f5a3 5340 	sub.w	r3, r3, #12288	@ 0x3000
10001f26:	61dc      	str	r4, [r3, #28]
10001f28:	4c1a      	ldr	r4, [pc, #104]	@ (10001f94 <watchdog_reboot+0x80>)
10001f2a:	f040 0001 	orr.w	r0, r0, #1
10001f2e:	4044      	eors	r4, r0
10001f30:	621c      	str	r4, [r3, #32]
10001f32:	6259      	str	r1, [r3, #36]	@ 0x24
10001f34:	6298      	str	r0, [r3, #40]	@ 0x28
10001f36:	f04f 4580 	mov.w	r5, #1073741824	@ 0x40000000
10001f3a:	f04f 61e0 	mov.w	r1, #117440512	@ 0x7000000
10001f3e:	4b13      	ldr	r3, [pc, #76]	@ (10001f8c <watchdog_reboot+0x78>)
10001f40:	4815      	ldr	r0, [pc, #84]	@ (10001f98 <watchdog_reboot+0x84>)
10001f42:	4c16      	ldr	r4, [pc, #88]	@ (10001f9c <watchdog_reboot+0x88>)
10001f44:	601d      	str	r5, [r3, #0]
10001f46:	6084      	str	r4, [r0, #8]
10001f48:	6019      	str	r1, [r3, #0]
10001f4a:	b94a      	cbnz	r2, 10001f60 <watchdog_reboot+0x4c>
10001f4c:	bc30      	pop	{r4, r5}
10001f4e:	f04f 4200 	mov.w	r2, #2147483648	@ 0x80000000
10001f52:	f5a3 5380 	sub.w	r3, r3, #4096	@ 0x1000
10001f56:	601a      	str	r2, [r3, #0]
10001f58:	4770      	bx	lr
10001f5a:	4b11      	ldr	r3, [pc, #68]	@ (10001fa0 <watchdog_reboot+0x8c>)
10001f5c:	61d8      	str	r0, [r3, #28]
10001f5e:	e7ea      	b.n	10001f36 <watchdog_reboot+0x22>
10001f60:	f44f 737a 	mov.w	r3, #1000	@ 0x3e8
10001f64:	fb03 f202 	mul.w	r2, r3, r2
10001f68:	f1b2 7f80 	cmp.w	r2, #16777216	@ 0x1000000
10001f6c:	bf2a      	itet	cs
10001f6e:	f06f 437f 	mvncs.w	r3, #4278190080	@ 0xff000000
10001f72:	4613      	movcc	r3, r2
10001f74:	461a      	movcs	r2, r3
10001f76:	f04f 4180 	mov.w	r1, #1073741824	@ 0x40000000
10001f7a:	4c0a      	ldr	r4, [pc, #40]	@ (10001fa4 <watchdog_reboot+0x90>)
10001f7c:	4808      	ldr	r0, [pc, #32]	@ (10001fa0 <watchdog_reboot+0x8c>)
10001f7e:	6023      	str	r3, [r4, #0]
10001f80:	4b09      	ldr	r3, [pc, #36]	@ (10001fa8 <watchdog_reboot+0x94>)
10001f82:	6042      	str	r2, [r0, #4]
10001f84:	bc30      	pop	{r4, r5}
10001f86:	6019      	str	r1, [r3, #0]
10001f88:	4770      	bx	lr
10001f8a:	bf00      	nop
10001f8c:	400db000 	.word	0x400db000
10001f90:	b007c0d3 	.word	0xb007c0d3
10001f94:	4ff83f2d 	.word	0x4ff83f2d
10001f98:	4001a000 	.word	0x4001a000
10001f9c:	01fffff3 	.word	0x01fffff3
10001fa0:	400d8000 	.word	0x400d8000
10001fa4:	200027e0 	.word	0x200027e0
10001fa8:	400da000 	.word	0x400da000

10001fac <tick_start>:
10001fac:	2301      	movs	r3, #1
10001fae:	eb00 0040 	add.w	r0, r0, r0, lsl #1
10001fb2:	0080      	lsls	r0, r0, #2
10001fb4:	f100 4080 	add.w	r0, r0, #1073741824	@ 0x40000000
10001fb8:	f500 1084 	add.w	r0, r0, #1081344	@ 0x108000
10001fbc:	6041      	str	r1, [r0, #4]
10001fbe:	6003      	str	r3, [r0, #0]
10001fc0:	4770      	bx	lr
10001fc2:	bf00      	nop

10001fc4 <rom_reboot.constprop.0.isra.0>:
10001fc4:	2300      	movs	r3, #0
10001fc6:	b570      	push	{r4, r5, r6, lr}
10001fc8:	8adb      	ldrh	r3, [r3, #22]
10001fca:	4604      	mov	r4, r0
10001fcc:	460d      	mov	r5, r1
10001fce:	2200      	movs	r2, #0
10001fd0:	e842 f200 	tt	r2, r2
10001fd4:	0252      	lsls	r2, r2, #9
10001fd6:	bf54      	ite	pl
10001fd8:	2110      	movpl	r1, #16
10001fda:	2104      	movmi	r1, #4
10001fdc:	f244 2052 	movw	r0, #16978	@ 0x4252
10001fe0:	4798      	blx	r3
10001fe2:	4686      	mov	lr, r0
10001fe4:	462b      	mov	r3, r5
10001fe6:	4622      	mov	r2, r4
10001fe8:	46f4      	mov	ip, lr
10001fea:	e8bd 4070 	ldmia.w	sp!, {r4, r5, r6, lr}
10001fee:	210a      	movs	r1, #10
10001ff0:	f44f 7081 	mov.w	r0, #258	@ 0x102
10001ff4:	4760      	bx	ip
10001ff6:	bf00      	nop

10001ff8 <rom_func_lookup>:
10001ff8:	2300      	movs	r3, #0
10001ffa:	8adb      	ldrh	r3, [r3, #22]
10001ffc:	2200      	movs	r2, #0
10001ffe:	e842 f200 	tt	r2, r2
10002002:	0252      	lsls	r2, r2, #9
10002004:	d401      	bmi.n	1000200a <rom_func_lookup+0x12>
10002006:	2110      	movs	r1, #16
10002008:	4718      	bx	r3
1000200a:	2104      	movs	r1, #4
1000200c:	4718      	bx	r3
1000200e:	bf00      	nop

10002010 <rom_reset_usb_boot_extra>:
10002010:	b508      	push	{r3, lr}
10002012:	4603      	mov	r3, r0
10002014:	4608      	mov	r0, r1
10002016:	1e19      	subs	r1, r3, #0
10002018:	db02      	blt.n	10002020 <rom_reset_usb_boot_extra+0x10>
1000201a:	b11a      	cbz	r2, 10002024 <rom_reset_usb_boot_extra+0x14>
1000201c:	f040 0030 	orr.w	r0, r0, #48	@ 0x30
10002020:	f7ff ffd0 	bl	10001fc4 <rom_reboot.constprop.0.isra.0>
10002024:	f040 0020 	orr.w	r0, r0, #32
10002028:	e7fa      	b.n	10002020 <rom_reset_usb_boot_extra+0x10>
1000202a:	bf00      	nop

1000202c <runtime_init_bootrom_locking_enable>:
1000202c:	4a03      	ldr	r2, [pc, #12]	@ (1000203c <runtime_init_bootrom_locking_enable+0x10>)
1000202e:	f8d2 3828 	ldr.w	r3, [r2, #2088]	@ 0x828
10002032:	2b00      	cmp	r3, #0
10002034:	d0fb      	beq.n	1000202e <runtime_init_bootrom_locking_enable+0x2>
10002036:	f3bf 8f5f 	dmb	sy
1000203a:	4770      	bx	lr
1000203c:	400e0000 	.word	0x400e0000

10002040 <runtime_init_boot_locks_reset>:
10002040:	2100      	movs	r1, #0
10002042:	4b04      	ldr	r3, [pc, #16]	@ (10002054 <runtime_init_boot_locks_reset+0x14>)
10002044:	4a04      	ldr	r2, [pc, #16]	@ (10002058 <runtime_init_boot_locks_reset+0x18>)
10002046:	f3bf 8f5f 	dmb	sy
1000204a:	f843 1b04 	str.w	r1, [r3], #4
1000204e:	4293      	cmp	r3, r2
10002050:	d1f9      	bne.n	10002046 <runtime_init_boot_locks_reset+0x6>
10002052:	4770      	bx	lr
10002054:	400e080c 	.word	0x400e080c
10002058:	400e082c 	.word	0x400e082c

1000205c <xosc_init>:
1000205c:	b410      	push	{r4}
1000205e:	f44f 708d 	mov.w	r0, #282	@ 0x11a
10002062:	f44f 642a 	mov.w	r4, #2720	@ 0xaa0
10002066:	4a06      	ldr	r2, [pc, #24]	@ (10002080 <xosc_init+0x24>)
10002068:	4b06      	ldr	r3, [pc, #24]	@ (10002084 <xosc_init+0x28>)
1000206a:	4907      	ldr	r1, [pc, #28]	@ (10002088 <xosc_init+0x2c>)
1000206c:	6014      	str	r4, [r2, #0]
1000206e:	60d0      	str	r0, [r2, #12]
10002070:	6019      	str	r1, [r3, #0]
10002072:	6853      	ldr	r3, [r2, #4]
10002074:	2b00      	cmp	r3, #0
10002076:	dafc      	bge.n	10002072 <xosc_init+0x16>
10002078:	f85d 4b04 	ldr.w	r4, [sp], #4
1000207c:	4770      	bx	lr
1000207e:	bf00      	nop
10002080:	40048000 	.word	0x40048000
10002084:	4004a000 	.word	0x4004a000
10002088:	00fab000 	.word	0x00fab000

1000208c <first_per_core_initializer>:
1000208c:	4770      	bx	lr
1000208e:	bf00      	nop

10002090 <hard_assertion_failure>:
10002090:	b508      	push	{r3, lr}
10002092:	4801      	ldr	r0, [pc, #4]	@ (10002098 <hard_assertion_failure+0x8>)
10002094:	f7fe fcfc 	bl	10000a90 <panic>
10002098:	10005a74 	.word	0x10005a74

1000209c <runtime_run_initializers>:
1000209c:	b538      	push	{r3, r4, r5, lr}
1000209e:	4c05      	ldr	r4, [pc, #20]	@ (100020b4 <runtime_run_initializers+0x18>)
100020a0:	4d05      	ldr	r5, [pc, #20]	@ (100020b8 <runtime_run_initializers+0x1c>)
100020a2:	42ac      	cmp	r4, r5
100020a4:	d204      	bcs.n	100020b0 <runtime_run_initializers+0x14>
100020a6:	f854 3b04 	ldr.w	r3, [r4], #4
100020aa:	4798      	blx	r3
100020ac:	42ac      	cmp	r4, r5
100020ae:	d3fa      	bcc.n	100020a6 <runtime_run_initializers+0xa>
100020b0:	bd38      	pop	{r3, r4, r5, pc}
100020b2:	bf00      	nop
100020b4:	10005970 	.word	0x10005970
100020b8:	100059b0 	.word	0x100059b0

100020bc <runtime_init_early_resets>:
100020bc:	b410      	push	{r4}
100020be:	4807      	ldr	r0, [pc, #28]	@ (100020dc <runtime_init_early_resets+0x20>)
100020c0:	4c07      	ldr	r4, [pc, #28]	@ (100020e0 <runtime_init_early_resets+0x24>)
100020c2:	4b08      	ldr	r3, [pc, #32]	@ (100020e4 <runtime_init_early_resets+0x28>)
100020c4:	4a08      	ldr	r2, [pc, #32]	@ (100020e8 <runtime_init_early_resets+0x2c>)
100020c6:	4909      	ldr	r1, [pc, #36]	@ (100020ec <runtime_init_early_resets+0x30>)
100020c8:	6004      	str	r4, [r0, #0]
100020ca:	601a      	str	r2, [r3, #0]
100020cc:	688b      	ldr	r3, [r1, #8]
100020ce:	ea32 0303 	bics.w	r3, r2, r3
100020d2:	d1fb      	bne.n	100020cc <runtime_init_early_resets+0x10>
100020d4:	f85d 4b04 	ldr.w	r4, [sp], #4
100020d8:	4770      	bx	lr
100020da:	bf00      	nop
100020dc:	40022000 	.word	0x40022000
100020e0:	efef3b7f 	.word	0xefef3b7f
100020e4:	40023000 	.word	0x40023000
100020e8:	03f3fff6 	.word	0x03f3fff6
100020ec:	40020000 	.word	0x40020000

100020f0 <runtime_init_usb_power_down>:
100020f0:	4b04      	ldr	r3, [pc, #16]	@ (10002104 <runtime_init_usb_power_down+0x14>)
100020f2:	6cdb      	ldr	r3, [r3, #76]	@ 0x4c
100020f4:	f5b3 4f00 	cmp.w	r3, #32768	@ 0x8000
100020f8:	d103      	bne.n	10002102 <runtime_init_usb_power_down+0x12>
100020fa:	f44f 2280 	mov.w	r2, #262144	@ 0x40000
100020fe:	4b02      	ldr	r3, [pc, #8]	@ (10002108 <runtime_init_usb_power_down+0x18>)
10002100:	64da      	str	r2, [r3, #76]	@ 0x4c
10002102:	4770      	bx	lr
10002104:	50110000 	.word	0x50110000
10002108:	50112000 	.word	0x50112000

1000210c <runtime_init_per_core_enable_coprocessors>:
1000210c:	f04f 22e0 	mov.w	r2, #3758153728	@ 0xe000e000
10002110:	4b04      	ldr	r3, [pc, #16]	@ (10002124 <runtime_init_per_core_enable_coprocessors+0x18>)
10002112:	f8d2 1d88 	ldr.w	r1, [r2, #3464]	@ 0xd88
10002116:	430b      	orrs	r3, r1
10002118:	f8c2 3d88 	str.w	r3, [r2, #3464]	@ 0xd88
1000211c:	ee10 0430 			dcp_rcmp r0
10002120:	4770      	bx	lr
10002122:	bf00      	nop
10002124:	00300303 	.word	0x00300303

10002128 <runtime_init_post_clock_resets>:
10002128:	f06f 4160 	mvn.w	r1, #3758096384	@ 0xe0000000
1000212c:	4b04      	ldr	r3, [pc, #16]	@ (10002140 <runtime_init_post_clock_resets+0x18>)
1000212e:	4a05      	ldr	r2, [pc, #20]	@ (10002144 <runtime_init_post_clock_resets+0x1c>)
10002130:	6019      	str	r1, [r3, #0]
10002132:	6893      	ldr	r3, [r2, #8]
10002134:	43db      	mvns	r3, r3
10002136:	f033 4360 	bics.w	r3, r3, #3758096384	@ 0xe0000000
1000213a:	d1fa      	bne.n	10002132 <runtime_init_post_clock_resets+0xa>
1000213c:	4770      	bx	lr
1000213e:	bf00      	nop
10002140:	40023000 	.word	0x40023000
10002144:	40020000 	.word	0x40020000

10002148 <runtime_init_bootrom_reset>:
10002148:	b510      	push	{r4, lr}
1000214a:	f245 2053 	movw	r0, #21075	@ 0x5253
1000214e:	f7ff ff53 	bl	10001ff8 <rom_func_lookup>
10002152:	e8bd 4010 	ldmia.w	sp!, {r4, lr}
10002156:	4603      	mov	r3, r0
10002158:	2004      	movs	r0, #4
1000215a:	4718      	bx	r3

1000215c <runtime_init_per_core_bootrom_reset>:
1000215c:	b510      	push	{r4, lr}
1000215e:	f245 2053 	movw	r0, #21075	@ 0x5253
10002162:	f7ff ff49 	bl	10001ff8 <rom_func_lookup>
10002166:	e8bd 4010 	ldmia.w	sp!, {r4, lr}
1000216a:	4603      	mov	r3, r0
1000216c:	2001      	movs	r0, #1
1000216e:	4718      	bx	r3

10002170 <runtime_init_spin_locks_reset>:
10002170:	f7fe bd36 	b.w	10000be0 <spin_locks_reset>

10002174 <runtime_init_install_ram_vector_table>:
10002174:	4914      	ldr	r1, [pc, #80]	@ (100021c8 <runtime_init_install_ram_vector_table+0x54>)
10002176:	4b15      	ldr	r3, [pc, #84]	@ (100021cc <runtime_init_install_ram_vector_table+0x58>)
10002178:	b570      	push	{r4, r5, r6, lr}
1000217a:	1a5c      	subs	r4, r3, r1
1000217c:	10a6      	asrs	r6, r4, #2
1000217e:	2e44      	cmp	r6, #68	@ 0x44
10002180:	4632      	mov	r2, r6
10002182:	bf28      	it	cs
10002184:	2244      	movcs	r2, #68	@ 0x44
10002186:	4d12      	ldr	r5, [pc, #72]	@ (100021d0 <runtime_init_install_ram_vector_table+0x5c>)
10002188:	0092      	lsls	r2, r2, #2
1000218a:	4628      	mov	r0, r5
1000218c:	f003 f9d0 	bl	10005530 <memcpy>
10002190:	f5b4 7f86 	cmp.w	r4, #268	@ 0x10c
10002194:	d813      	bhi.n	100021be <runtime_init_install_ram_vector_table+0x4a>
10002196:	4a0f      	ldr	r2, [pc, #60]	@ (100021d4 <runtime_init_install_ram_vector_table+0x60>)
10002198:	f1c6 0044 	rsb	r0, r6, #68	@ 0x44
1000219c:	d012      	beq.n	100021c4 <runtime_init_install_ram_vector_table+0x50>
1000219e:	192b      	adds	r3, r5, r4
100021a0:	0841      	lsrs	r1, r0, #1
100021a2:	eb03 01c1 	add.w	r1, r3, r1, lsl #3
100021a6:	e9c3 2200 	strd	r2, r2, [r3]
100021aa:	3308      	adds	r3, #8
100021ac:	428b      	cmp	r3, r1
100021ae:	d1fa      	bne.n	100021a6 <runtime_init_install_ram_vector_table+0x32>
100021b0:	07c3      	lsls	r3, r0, #31
100021b2:	d504      	bpl.n	100021be <runtime_init_install_ram_vector_table+0x4a>
100021b4:	f020 0001 	bic.w	r0, r0, #1
100021b8:	4430      	add	r0, r6
100021ba:	f845 2020 	str.w	r2, [r5, r0, lsl #2]
100021be:	4b06      	ldr	r3, [pc, #24]	@ (100021d8 <runtime_init_install_ram_vector_table+0x64>)
100021c0:	609d      	str	r5, [r3, #8]
100021c2:	bd70      	pop	{r4, r5, r6, pc}
100021c4:	2043      	movs	r0, #67	@ 0x43
100021c6:	e7f8      	b.n	100021ba <runtime_init_install_ram_vector_table+0x46>
100021c8:	10000000 	.word	0x10000000
100021cc:	10000110 	.word	0x10000110
100021d0:	20000000 	.word	0x20000000
100021d4:	10000111 	.word	0x10000111
100021d8:	e000ed00 	.word	0xe000ed00

100021dc <runtime_init_clocks>:
100021dc:	2300      	movs	r3, #0
100021de:	b570      	push	{r4, r5, r6, lr}
100021e0:	4c2b      	ldr	r4, [pc, #172]	@ (10002290 <runtime_init_clocks+0xb4>)
100021e2:	b082      	sub	sp, #8
100021e4:	f8c4 3084 	str.w	r3, [r4, #132]	@ 0x84
100021e8:	f7ff ff38 	bl	1000205c <xosc_init>
100021ec:	2201      	movs	r2, #1
100021ee:	4b29      	ldr	r3, [pc, #164]	@ (10002294 <runtime_init_clocks+0xb8>)
100021f0:	63da      	str	r2, [r3, #60]	@ 0x3c
100021f2:	6c63      	ldr	r3, [r4, #68]	@ 0x44
100021f4:	2b01      	cmp	r3, #1
100021f6:	d1fc      	bne.n	100021f2 <runtime_init_clocks+0x16>
100021f8:	2103      	movs	r1, #3
100021fa:	4a26      	ldr	r2, [pc, #152]	@ (10002294 <runtime_init_clocks+0xb8>)
100021fc:	4b24      	ldr	r3, [pc, #144]	@ (10002290 <runtime_init_clocks+0xb4>)
100021fe:	6311      	str	r1, [r2, #48]	@ 0x30
10002200:	6b9c      	ldr	r4, [r3, #56]	@ 0x38
10002202:	2c01      	cmp	r4, #1
10002204:	d1fc      	bne.n	10002200 <runtime_init_clocks+0x24>
10002206:	2602      	movs	r6, #2
10002208:	2505      	movs	r5, #5
1000220a:	4621      	mov	r1, r4
1000220c:	2305      	movs	r3, #5
1000220e:	4a22      	ldr	r2, [pc, #136]	@ (10002298 <runtime_init_clocks+0xbc>)
10002210:	4822      	ldr	r0, [pc, #136]	@ (1000229c <runtime_init_clocks+0xc0>)
10002212:	9600      	str	r6, [sp, #0]
10002214:	f7ff fe38 	bl	10001e88 <pll_init>
10002218:	4621      	mov	r1, r4
1000221a:	462b      	mov	r3, r5
1000221c:	4a20      	ldr	r2, [pc, #128]	@ (100022a0 <runtime_init_clocks+0xc4>)
1000221e:	4821      	ldr	r0, [pc, #132]	@ (100022a4 <runtime_init_clocks+0xc8>)
10002220:	9500      	str	r5, [sp, #0]
10002222:	f7ff fe31 	bl	10001e88 <pll_init>
10002226:	2200      	movs	r2, #0
10002228:	2004      	movs	r0, #4
1000222a:	4631      	mov	r1, r6
1000222c:	4b1e      	ldr	r3, [pc, #120]	@ (100022a8 <runtime_init_clocks+0xcc>)
1000222e:	f7ff fc51 	bl	10001ad4 <clock_configure_undivided>
10002232:	4621      	mov	r1, r4
10002234:	4628      	mov	r0, r5
10002236:	2200      	movs	r2, #0
10002238:	4b1c      	ldr	r3, [pc, #112]	@ (100022ac <runtime_init_clocks+0xd0>)
1000223a:	f7ff fc4b 	bl	10001ad4 <clock_configure_undivided>
1000223e:	2200      	movs	r2, #0
10002240:	2008      	movs	r0, #8
10002242:	4611      	mov	r1, r2
10002244:	4b1a      	ldr	r3, [pc, #104]	@ (100022b0 <runtime_init_clocks+0xd4>)
10002246:	f7ff fc45 	bl	10001ad4 <clock_configure_undivided>
1000224a:	2200      	movs	r2, #0
1000224c:	2009      	movs	r0, #9
1000224e:	4611      	mov	r1, r2
10002250:	4b17      	ldr	r3, [pc, #92]	@ (100022b0 <runtime_init_clocks+0xd4>)
10002252:	f7ff fc3f 	bl	10001ad4 <clock_configure_undivided>
10002256:	2200      	movs	r2, #0
10002258:	2006      	movs	r0, #6
1000225a:	4611      	mov	r1, r2
1000225c:	4b13      	ldr	r3, [pc, #76]	@ (100022ac <runtime_init_clocks+0xd0>)
1000225e:	f7ff fc39 	bl	10001ad4 <clock_configure_undivided>
10002262:	2200      	movs	r2, #0
10002264:	4b11      	ldr	r3, [pc, #68]	@ (100022ac <runtime_init_clocks+0xd0>)
10002266:	2007      	movs	r0, #7
10002268:	4611      	mov	r1, r2
1000226a:	f7ff fc33 	bl	10001ad4 <clock_configure_undivided>
1000226e:	2004      	movs	r0, #4
10002270:	f7ff fc98 	bl	10001ba4 <clock_get_hz>
10002274:	2400      	movs	r4, #0
10002276:	4b0f      	ldr	r3, [pc, #60]	@ (100022b4 <runtime_init_clocks+0xd8>)
10002278:	fba3 3500 	umull	r3, r5, r3, r0
1000227c:	0cad      	lsrs	r5, r5, #18
1000227e:	b2e0      	uxtb	r0, r4
10002280:	4629      	mov	r1, r5
10002282:	3401      	adds	r4, #1
10002284:	f7ff fe92 	bl	10001fac <tick_start>
10002288:	2c06      	cmp	r4, #6
1000228a:	d1f8      	bne.n	1000227e <runtime_init_clocks+0xa2>
1000228c:	b002      	add	sp, #8
1000228e:	bd70      	pop	{r4, r5, r6, pc}
10002290:	40010000 	.word	0x40010000
10002294:	40013000 	.word	0x40013000
10002298:	59682f00 	.word	0x59682f00
1000229c:	40050000 	.word	0x40050000
100022a0:	47868c00 	.word	0x47868c00
100022a4:	40058000 	.word	0x40058000
100022a8:	00b71b00 	.word	0x00b71b00
100022ac:	08f0d180 	.word	0x08f0d180
100022b0:	02dc6c00 	.word	0x02dc6c00
100022b4:	431bde83 	.word	0x431bde83

100022b8 <__wrap_malloc>:
100022b8:	b510      	push	{r4, lr}
100022ba:	4604      	mov	r4, r0
100022bc:	f002 fde8 	bl	10004e90 <malloc>
100022c0:	b128      	cbz	r0, 100022ce <__wrap_malloc+0x16>
100022c2:	4603      	mov	r3, r0
100022c4:	4a03      	ldr	r2, [pc, #12]	@ (100022d4 <__wrap_malloc+0x1c>)
100022c6:	4423      	add	r3, r4
100022c8:	4293      	cmp	r3, r2
100022ca:	d800      	bhi.n	100022ce <__wrap_malloc+0x16>
100022cc:	bd10      	pop	{r4, pc}
100022ce:	4802      	ldr	r0, [pc, #8]	@ (100022d8 <__wrap_malloc+0x20>)
100022d0:	f7fe fbde 	bl	10000a90 <panic>
100022d4:	20080000 	.word	0x20080000
100022d8:	10005a80 	.word	0x10005a80

100022dc <__wrap_free>:
100022dc:	f002 bde0 	b.w	10004ea0 <free>

100022e0 <_out_char>:
100022e0:	b900      	cbnz	r0, 100022e4 <_out_char+0x4>
100022e2:	4770      	bx	lr
100022e4:	f000 b92e 	b.w	10002544 <__wrap_putchar>

100022e8 <weak_raw_vprintf>:
100022e8:	b510      	push	{r4, lr}
100022ea:	4b09      	ldr	r3, [pc, #36]	@ (10002310 <weak_raw_vprintf+0x28>)
100022ec:	b084      	sub	sp, #16
100022ee:	681c      	ldr	r4, [r3, #0]
100022f0:	b14c      	cbz	r4, 10002306 <weak_raw_vprintf+0x1e>
100022f2:	4603      	mov	r3, r0
100022f4:	9100      	str	r1, [sp, #0]
100022f6:	f04f 32ff 	mov.w	r2, #4294967295	@ 0xffffffff
100022fa:	a903      	add	r1, sp, #12
100022fc:	4805      	ldr	r0, [pc, #20]	@ (10002314 <weak_raw_vprintf+0x2c>)
100022fe:	47a0      	blx	r4
10002300:	2001      	movs	r0, #1
10002302:	b004      	add	sp, #16
10002304:	bd10      	pop	{r4, pc}
10002306:	f000 f95f 	bl	100025c8 <__wrap_puts>
1000230a:	4620      	mov	r0, r4
1000230c:	b004      	add	sp, #16
1000230e:	bd10      	pop	{r4, pc}
10002310:	200027dc 	.word	0x200027dc
10002314:	100022e1 	.word	0x100022e1

10002318 <_exit>:
10002318:	be00      	bkpt	0x0000
1000231a:	e7fd      	b.n	10002318 <_exit>

1000231c <_sbrk>:
1000231c:	4a07      	ldr	r2, [pc, #28]	@ (1000233c <_sbrk+0x20>)
1000231e:	4603      	mov	r3, r0
10002320:	6810      	ldr	r0, [r2, #0]
10002322:	b138      	cbz	r0, 10002334 <_sbrk+0x18>
10002324:	4906      	ldr	r1, [pc, #24]	@ (10002340 <_sbrk+0x24>)
10002326:	4403      	add	r3, r0
10002328:	428b      	cmp	r3, r1
1000232a:	bf8c      	ite	hi
1000232c:	f04f 30ff 	movhi.w	r0, #4294967295	@ 0xffffffff
10002330:	6013      	strls	r3, [r2, #0]
10002332:	4770      	bx	lr
10002334:	4903      	ldr	r1, [pc, #12]	@ (10002344 <_sbrk+0x28>)
10002336:	4608      	mov	r0, r1
10002338:	6011      	str	r1, [r2, #0]
1000233a:	e7f3      	b.n	10002324 <_sbrk+0x8>
1000233c:	200023d8 	.word	0x200023d8
10002340:	20080000 	.word	0x20080000
10002344:	200028a0 	.word	0x200028a0

10002348 <exit>:
10002348:	b508      	push	{r3, lr}
1000234a:	f7ff ffe5 	bl	10002318 <_exit>
1000234e:	bf00      	nop

10002350 <runtime_init>:
10002350:	b538      	push	{r3, r4, r5, lr}
10002352:	4c06      	ldr	r4, [pc, #24]	@ (1000236c <runtime_init+0x1c>)
10002354:	4d06      	ldr	r5, [pc, #24]	@ (10002370 <runtime_init+0x20>)
10002356:	f7ff fea1 	bl	1000209c <runtime_run_initializers>
1000235a:	42ac      	cmp	r4, r5
1000235c:	d204      	bcs.n	10002368 <runtime_init+0x18>
1000235e:	f854 3b04 	ldr.w	r3, [r4], #4
10002362:	4798      	blx	r3
10002364:	42ac      	cmp	r4, r5
10002366:	d3fa      	bcc.n	1000235e <runtime_init+0xe>
10002368:	bd38      	pop	{r3, r4, r5, pc}
1000236a:	bf00      	nop
1000236c:	100059b0 	.word	0x100059b0
10002370:	100059b8 	.word	0x100059b8

10002374 <stdio_out_chars_no_crlf>:
10002374:	6803      	ldr	r3, [r0, #0]
10002376:	4608      	mov	r0, r1
10002378:	4611      	mov	r1, r2
1000237a:	4718      	bx	r3

1000237c <stdio_out_chars_crlf>:
1000237c:	e92d 41f0 	stmdb	sp!, {r4, r5, r6, r7, r8, lr}
10002380:	4615      	mov	r5, r2
10002382:	7d42      	ldrb	r2, [r0, #21]
10002384:	4607      	mov	r7, r0
10002386:	4688      	mov	r8, r1
10002388:	2a00      	cmp	r2, #0
1000238a:	d046      	beq.n	1000241a <stdio_out_chars_crlf+0x9e>
1000238c:	2d00      	cmp	r5, #0
1000238e:	dd1d      	ble.n	100023cc <stdio_out_chars_crlf+0x50>
10002390:	780b      	ldrb	r3, [r1, #0]
10002392:	2b0a      	cmp	r3, #10
10002394:	d023      	beq.n	100023de <stdio_out_chars_crlf+0x62>
10002396:	2d01      	cmp	r5, #1
10002398:	f04f 0c00 	mov.w	ip, #0
1000239c:	d018      	beq.n	100023d0 <stdio_out_chars_crlf+0x54>
1000239e:	4646      	mov	r6, r8
100023a0:	2401      	movs	r4, #1
100023a2:	f816 2f01 	ldrb.w	r2, [r6, #1]!
100023a6:	4621      	mov	r1, r4
100023a8:	2a0a      	cmp	r2, #10
100023aa:	f104 0401 	add.w	r4, r4, #1
100023ae:	d022      	beq.n	100023f6 <stdio_out_chars_crlf+0x7a>
100023b0:	42a5      	cmp	r5, r4
100023b2:	d1f6      	bne.n	100023a2 <stdio_out_chars_crlf+0x26>
100023b4:	4565      	cmp	r5, ip
100023b6:	dc0b      	bgt.n	100023d0 <stdio_out_chars_crlf+0x54>
100023b8:	eb08 0305 	add.w	r3, r8, r5
100023bc:	f813 3c01 	ldrb.w	r3, [r3, #-1]
100023c0:	f1a3 030d 	sub.w	r3, r3, #13
100023c4:	fab3 f383 	clz	r3, r3
100023c8:	095b      	lsrs	r3, r3, #5
100023ca:	753b      	strb	r3, [r7, #20]
100023cc:	e8bd 81f0 	ldmia.w	sp!, {r4, r5, r6, r7, r8, pc}
100023d0:	683b      	ldr	r3, [r7, #0]
100023d2:	eba5 010c 	sub.w	r1, r5, ip
100023d6:	eb08 000c 	add.w	r0, r8, ip
100023da:	4798      	blx	r3
100023dc:	e7ec      	b.n	100023b8 <stdio_out_chars_crlf+0x3c>
100023de:	7d03      	ldrb	r3, [r0, #20]
100023e0:	2b00      	cmp	r3, #0
100023e2:	d1d8      	bne.n	10002396 <stdio_out_chars_crlf+0x1a>
100023e4:	6803      	ldr	r3, [r0, #0]
100023e6:	2102      	movs	r1, #2
100023e8:	480f      	ldr	r0, [pc, #60]	@ (10002428 <stdio_out_chars_crlf+0xac>)
100023ea:	4798      	blx	r3
100023ec:	2d01      	cmp	r5, #1
100023ee:	d0e3      	beq.n	100023b8 <stdio_out_chars_crlf+0x3c>
100023f0:	f04f 0c01 	mov.w	ip, #1
100023f4:	e7d3      	b.n	1000239e <stdio_out_chars_crlf+0x22>
100023f6:	f816 3c01 	ldrb.w	r3, [r6, #-1]
100023fa:	2b0d      	cmp	r3, #13
100023fc:	d0d8      	beq.n	100023b0 <stdio_out_chars_crlf+0x34>
100023fe:	458c      	cmp	ip, r1
10002400:	eb08 000c 	add.w	r0, r8, ip
10002404:	eba1 010c 	sub.w	r1, r1, ip
10002408:	da01      	bge.n	1000240e <stdio_out_chars_crlf+0x92>
1000240a:	683b      	ldr	r3, [r7, #0]
1000240c:	4798      	blx	r3
1000240e:	2102      	movs	r1, #2
10002410:	4805      	ldr	r0, [pc, #20]	@ (10002428 <stdio_out_chars_crlf+0xac>)
10002412:	683b      	ldr	r3, [r7, #0]
10002414:	4798      	blx	r3
10002416:	46a4      	mov	ip, r4
10002418:	e7ca      	b.n	100023b0 <stdio_out_chars_crlf+0x34>
1000241a:	4629      	mov	r1, r5
1000241c:	4640      	mov	r0, r8
1000241e:	683b      	ldr	r3, [r7, #0]
10002420:	e8bd 41f0 	ldmia.w	sp!, {r4, r5, r6, r7, r8, lr}
10002424:	4718      	bx	r3
10002426:	bf00      	nop
10002428:	10005c00 	.word	0x10005c00

1000242c <stdio_put_string>:
1000242c:	e92d 47f0 	stmdb	sp!, {r4, r5, r6, r7, r8, r9, sl, lr}
10002430:	b082      	sub	sp, #8
10002432:	460d      	mov	r5, r1
10002434:	4691      	mov	r9, r2
10002436:	461c      	mov	r4, r3
10002438:	4606      	mov	r6, r0
1000243a:	f7ff fa47 	bl	100018cc <time_us_64>
1000243e:	f04f 3cff 	mov.w	ip, #4294967295	@ 0xffffffff
10002442:	f06f 4700 	mvn.w	r7, #2147483648	@ 0x80000000
10002446:	4a2e      	ldr	r2, [pc, #184]	@ (10002500 <stdio_put_string+0xd4>)
10002448:	1882      	adds	r2, r0, r2
1000244a:	f141 0300 	adc.w	r3, r1, #0
1000244e:	4594      	cmp	ip, r2
10002450:	eb77 0103 	sbcs.w	r1, r7, r3
10002454:	bf3c      	itt	cc
10002456:	4662      	movcc	r2, ip
10002458:	463b      	movcc	r3, r7
1000245a:	482a      	ldr	r0, [pc, #168]	@ (10002504 <stdio_put_string+0xd8>)
1000245c:	f003 fa7c 	bl	10005958 <__mutex_try_enter_block_until_veneer>
10002460:	1c6b      	adds	r3, r5, #1
10002462:	4680      	mov	r8, r0
10002464:	d040      	beq.n	100024e8 <stdio_put_string+0xbc>
10002466:	b30c      	cbz	r4, 100024ac <stdio_put_string+0x80>
10002468:	4f27      	ldr	r7, [pc, #156]	@ (10002508 <stdio_put_string+0xdc>)
1000246a:	4b28      	ldr	r3, [pc, #160]	@ (1000250c <stdio_put_string+0xe0>)
1000246c:	681c      	ldr	r4, [r3, #0]
1000246e:	b1b4      	cbz	r4, 1000249e <stdio_put_string+0x72>
10002470:	f1b9 0f00 	cmp.w	r9, #0
10002474:	d11c      	bne.n	100024b0 <stdio_put_string+0x84>
10002476:	f8df 909c 	ldr.w	r9, [pc, #156]	@ 10002514 <stdio_put_string+0xe8>
1000247a:	e001      	b.n	10002480 <stdio_put_string+0x54>
1000247c:	6924      	ldr	r4, [r4, #16]
1000247e:	b174      	cbz	r4, 1000249e <stdio_put_string+0x72>
10002480:	6823      	ldr	r3, [r4, #0]
10002482:	2b00      	cmp	r3, #0
10002484:	d0fa      	beq.n	1000247c <stdio_put_string+0x50>
10002486:	f8d9 3000 	ldr.w	r3, [r9]
1000248a:	b10b      	cbz	r3, 10002490 <stdio_put_string+0x64>
1000248c:	429c      	cmp	r4, r3
1000248e:	d1f5      	bne.n	1000247c <stdio_put_string+0x50>
10002490:	4620      	mov	r0, r4
10002492:	462a      	mov	r2, r5
10002494:	4631      	mov	r1, r6
10002496:	47b8      	blx	r7
10002498:	6924      	ldr	r4, [r4, #16]
1000249a:	2c00      	cmp	r4, #0
1000249c:	d1f0      	bne.n	10002480 <stdio_put_string+0x54>
1000249e:	f1b8 0f00 	cmp.w	r8, #0
100024a2:	d126      	bne.n	100024f2 <stdio_put_string+0xc6>
100024a4:	4628      	mov	r0, r5
100024a6:	b002      	add	sp, #8
100024a8:	e8bd 87f0 	ldmia.w	sp!, {r4, r5, r6, r7, r8, r9, sl, pc}
100024ac:	4f18      	ldr	r7, [pc, #96]	@ (10002510 <stdio_put_string+0xe4>)
100024ae:	e7dc      	b.n	1000246a <stdio_put_string+0x3e>
100024b0:	f04f 0a0a 	mov.w	sl, #10
100024b4:	f8df 905c 	ldr.w	r9, [pc, #92]	@ 10002514 <stdio_put_string+0xe8>
100024b8:	e002      	b.n	100024c0 <stdio_put_string+0x94>
100024ba:	6924      	ldr	r4, [r4, #16]
100024bc:	2c00      	cmp	r4, #0
100024be:	d0ee      	beq.n	1000249e <stdio_put_string+0x72>
100024c0:	6823      	ldr	r3, [r4, #0]
100024c2:	2b00      	cmp	r3, #0
100024c4:	d0f9      	beq.n	100024ba <stdio_put_string+0x8e>
100024c6:	f8d9 3000 	ldr.w	r3, [r9]
100024ca:	b10b      	cbz	r3, 100024d0 <stdio_put_string+0xa4>
100024cc:	42a3      	cmp	r3, r4
100024ce:	d1f4      	bne.n	100024ba <stdio_put_string+0x8e>
100024d0:	462a      	mov	r2, r5
100024d2:	4631      	mov	r1, r6
100024d4:	4620      	mov	r0, r4
100024d6:	47b8      	blx	r7
100024d8:	2201      	movs	r2, #1
100024da:	4620      	mov	r0, r4
100024dc:	f10d 0107 	add.w	r1, sp, #7
100024e0:	f88d a007 	strb.w	sl, [sp, #7]
100024e4:	47b8      	blx	r7
100024e6:	e7e8      	b.n	100024ba <stdio_put_string+0x8e>
100024e8:	4630      	mov	r0, r6
100024ea:	f003 f897 	bl	1000561c <strlen>
100024ee:	4605      	mov	r5, r0
100024f0:	e7b9      	b.n	10002466 <stdio_put_string+0x3a>
100024f2:	4804      	ldr	r0, [pc, #16]	@ (10002504 <stdio_put_string+0xd8>)
100024f4:	f003 fa28 	bl	10005948 <__mutex_exit_veneer>
100024f8:	4628      	mov	r0, r5
100024fa:	b002      	add	sp, #8
100024fc:	e8bd 87f0 	ldmia.w	sp!, {r4, r5, r6, r7, r8, r9, sl, pc}
10002500:	000f4240 	.word	0x000f4240
10002504:	200018a8 	.word	0x200018a8
10002508:	1000237d 	.word	0x1000237d
1000250c:	200021c8 	.word	0x200021c8
10002510:	10002375 	.word	0x10002375
10002514:	200023d4 	.word	0x200023d4

10002518 <stdio_set_driver_enabled>:
10002518:	4a08      	ldr	r2, [pc, #32]	@ (1000253c <stdio_set_driver_enabled+0x24>)
1000251a:	6813      	ldr	r3, [r2, #0]
1000251c:	b923      	cbnz	r3, 10002528 <stdio_set_driver_enabled+0x10>
1000251e:	e00a      	b.n	10002536 <stdio_set_driver_enabled+0x1e>
10002520:	f103 0210 	add.w	r2, r3, #16
10002524:	691b      	ldr	r3, [r3, #16]
10002526:	b133      	cbz	r3, 10002536 <stdio_set_driver_enabled+0x1e>
10002528:	4283      	cmp	r3, r0
1000252a:	d1f9      	bne.n	10002520 <stdio_set_driver_enabled+0x8>
1000252c:	b929      	cbnz	r1, 1000253a <stdio_set_driver_enabled+0x22>
1000252e:	6918      	ldr	r0, [r3, #16]
10002530:	6010      	str	r0, [r2, #0]
10002532:	6119      	str	r1, [r3, #16]
10002534:	4770      	bx	lr
10002536:	b101      	cbz	r1, 1000253a <stdio_set_driver_enabled+0x22>
10002538:	6010      	str	r0, [r2, #0]
1000253a:	4770      	bx	lr
1000253c:	200021c8 	.word	0x200021c8

10002540 <stdio_init_all>:
10002540:	f000 ba6e 	b.w	10002a20 <stdio_usb_init>

10002544 <__wrap_putchar>:
10002544:	b5f0      	push	{r4, r5, r6, r7, lr}
10002546:	b083      	sub	sp, #12
10002548:	4606      	mov	r6, r0
1000254a:	f88d 0007 	strb.w	r0, [sp, #7]
1000254e:	f7ff f9bd 	bl	100018cc <time_us_64>
10002552:	f04f 35ff 	mov.w	r5, #4294967295	@ 0xffffffff
10002556:	f06f 4400 	mvn.w	r4, #2147483648	@ 0x80000000
1000255a:	4a17      	ldr	r2, [pc, #92]	@ (100025b8 <__wrap_putchar+0x74>)
1000255c:	1882      	adds	r2, r0, r2
1000255e:	f141 0300 	adc.w	r3, r1, #0
10002562:	4295      	cmp	r5, r2
10002564:	eb74 0103 	sbcs.w	r1, r4, r3
10002568:	bf3c      	itt	cc
1000256a:	4623      	movcc	r3, r4
1000256c:	462a      	movcc	r2, r5
1000256e:	4813      	ldr	r0, [pc, #76]	@ (100025bc <__wrap_putchar+0x78>)
10002570:	f003 f9f2 	bl	10005958 <__mutex_try_enter_block_until_veneer>
10002574:	4b12      	ldr	r3, [pc, #72]	@ (100025c0 <__wrap_putchar+0x7c>)
10002576:	4607      	mov	r7, r0
10002578:	681c      	ldr	r4, [r3, #0]
1000257a:	b19c      	cbz	r4, 100025a4 <__wrap_putchar+0x60>
1000257c:	4d11      	ldr	r5, [pc, #68]	@ (100025c4 <__wrap_putchar+0x80>)
1000257e:	e001      	b.n	10002584 <__wrap_putchar+0x40>
10002580:	6924      	ldr	r4, [r4, #16]
10002582:	b17c      	cbz	r4, 100025a4 <__wrap_putchar+0x60>
10002584:	6823      	ldr	r3, [r4, #0]
10002586:	2b00      	cmp	r3, #0
10002588:	d0fa      	beq.n	10002580 <__wrap_putchar+0x3c>
1000258a:	682b      	ldr	r3, [r5, #0]
1000258c:	b10b      	cbz	r3, 10002592 <__wrap_putchar+0x4e>
1000258e:	429c      	cmp	r4, r3
10002590:	d1f6      	bne.n	10002580 <__wrap_putchar+0x3c>
10002592:	4620      	mov	r0, r4
10002594:	2201      	movs	r2, #1
10002596:	f10d 0107 	add.w	r1, sp, #7
1000259a:	f7ff feef 	bl	1000237c <stdio_out_chars_crlf>
1000259e:	6924      	ldr	r4, [r4, #16]
100025a0:	2c00      	cmp	r4, #0
100025a2:	d1ef      	bne.n	10002584 <__wrap_putchar+0x40>
100025a4:	b917      	cbnz	r7, 100025ac <__wrap_putchar+0x68>
100025a6:	4630      	mov	r0, r6
100025a8:	b003      	add	sp, #12
100025aa:	bdf0      	pop	{r4, r5, r6, r7, pc}
100025ac:	4803      	ldr	r0, [pc, #12]	@ (100025bc <__wrap_putchar+0x78>)
100025ae:	f003 f9cb 	bl	10005948 <__mutex_exit_veneer>
100025b2:	4630      	mov	r0, r6
100025b4:	b003      	add	sp, #12
100025b6:	bdf0      	pop	{r4, r5, r6, r7, pc}
100025b8:	000f4240 	.word	0x000f4240
100025bc:	200018a8 	.word	0x200018a8
100025c0:	200021c8 	.word	0x200021c8
100025c4:	200023d4 	.word	0x200023d4

100025c8 <__wrap_puts>:
100025c8:	b538      	push	{r3, r4, r5, lr}
100025ca:	4604      	mov	r4, r0
100025cc:	f003 f826 	bl	1000561c <strlen>
100025d0:	2301      	movs	r3, #1
100025d2:	4605      	mov	r5, r0
100025d4:	461a      	mov	r2, r3
100025d6:	4620      	mov	r0, r4
100025d8:	4629      	mov	r1, r5
100025da:	f7ff ff27 	bl	1000242c <stdio_put_string>
100025de:	4b08      	ldr	r3, [pc, #32]	@ (10002600 <__wrap_puts+0x38>)
100025e0:	681c      	ldr	r4, [r3, #0]
100025e2:	b12c      	cbz	r4, 100025f0 <__wrap_puts+0x28>
100025e4:	6863      	ldr	r3, [r4, #4]
100025e6:	b12b      	cbz	r3, 100025f4 <__wrap_puts+0x2c>
100025e8:	4798      	blx	r3
100025ea:	6924      	ldr	r4, [r4, #16]
100025ec:	2c00      	cmp	r4, #0
100025ee:	d1f9      	bne.n	100025e4 <__wrap_puts+0x1c>
100025f0:	4628      	mov	r0, r5
100025f2:	bd38      	pop	{r3, r4, r5, pc}
100025f4:	6924      	ldr	r4, [r4, #16]
100025f6:	2c00      	cmp	r4, #0
100025f8:	d1f4      	bne.n	100025e4 <__wrap_puts+0x1c>
100025fa:	4628      	mov	r0, r5
100025fc:	bd38      	pop	{r3, r4, r5, pc}
100025fe:	bf00      	nop
10002600:	200021c8 	.word	0x200021c8

10002604 <resetd_init>:
10002604:	4770      	bx	lr
10002606:	bf00      	nop

10002608 <resetd_reset>:
10002608:	2200      	movs	r2, #0
1000260a:	4b01      	ldr	r3, [pc, #4]	@ (10002610 <resetd_reset+0x8>)
1000260c:	701a      	strb	r2, [r3, #0]
1000260e:	4770      	bx	lr
10002610:	20002899 	.word	0x20002899

10002614 <resetd_open>:
10002614:	794b      	ldrb	r3, [r1, #5]
10002616:	2bff      	cmp	r3, #255	@ 0xff
10002618:	d10b      	bne.n	10002632 <resetd_open+0x1e>
1000261a:	7988      	ldrb	r0, [r1, #6]
1000261c:	b948      	cbnz	r0, 10002632 <resetd_open+0x1e>
1000261e:	79cb      	ldrb	r3, [r1, #7]
10002620:	2b01      	cmp	r3, #1
10002622:	d107      	bne.n	10002634 <resetd_open+0x20>
10002624:	2a08      	cmp	r2, #8
10002626:	d905      	bls.n	10002634 <resetd_open+0x20>
10002628:	4b03      	ldr	r3, [pc, #12]	@ (10002638 <resetd_open+0x24>)
1000262a:	788a      	ldrb	r2, [r1, #2]
1000262c:	2009      	movs	r0, #9
1000262e:	701a      	strb	r2, [r3, #0]
10002630:	4770      	bx	lr
10002632:	2000      	movs	r0, #0
10002634:	4770      	bx	lr
10002636:	bf00      	nop
10002638:	20002899 	.word	0x20002899

1000263c <resetd_xfer_cb>:
1000263c:	2001      	movs	r0, #1
1000263e:	4770      	bx	lr

10002640 <resetd_control_xfer_cb>:
10002640:	2901      	cmp	r1, #1
10002642:	d001      	beq.n	10002648 <resetd_control_xfer_cb+0x8>
10002644:	2001      	movs	r0, #1
10002646:	4770      	bx	lr
10002648:	b508      	push	{r3, lr}
1000264a:	4b10      	ldr	r3, [pc, #64]	@ (1000268c <resetd_control_xfer_cb+0x4c>)
1000264c:	8891      	ldrh	r1, [r2, #4]
1000264e:	781b      	ldrb	r3, [r3, #0]
10002650:	4299      	cmp	r1, r3
10002652:	d001      	beq.n	10002658 <resetd_control_xfer_cb+0x18>
10002654:	2000      	movs	r0, #0
10002656:	bd08      	pop	{r3, pc}
10002658:	7853      	ldrb	r3, [r2, #1]
1000265a:	2b01      	cmp	r3, #1
1000265c:	d008      	beq.n	10002670 <resetd_control_xfer_cb+0x30>
1000265e:	2b02      	cmp	r3, #2
10002660:	d1f8      	bne.n	10002654 <resetd_control_xfer_cb+0x14>
10002662:	2100      	movs	r1, #0
10002664:	2264      	movs	r2, #100	@ 0x64
10002666:	4608      	mov	r0, r1
10002668:	f7ff fc54 	bl	10001f14 <watchdog_reboot>
1000266c:	2001      	movs	r0, #1
1000266e:	bd08      	pop	{r3, pc}
10002670:	8851      	ldrh	r1, [r2, #2]
10002672:	05cb      	lsls	r3, r1, #23
10002674:	bf48      	it	mi
10002676:	0a48      	lsrmi	r0, r1, #9
10002678:	f3c1 2240 	ubfx	r2, r1, #9, #1
1000267c:	bf58      	it	pl
1000267e:	f04f 30ff 	movpl.w	r0, #4294967295	@ 0xffffffff
10002682:	f001 017f 	and.w	r1, r1, #127	@ 0x7f
10002686:	f7ff fcc3 	bl	10002010 <rom_reset_usb_boot_extra>
1000268a:	bf00      	nop
1000268c:	20002899 	.word	0x20002899

10002690 <tud_descriptor_bos_cb>:
10002690:	4800      	ldr	r0, [pc, #0]	@ (10002694 <tud_descriptor_bos_cb+0x4>)
10002692:	4770      	bx	lr
10002694:	10005ccc 	.word	0x10005ccc

10002698 <tud_vendor_control_xfer_cb>:
10002698:	2901      	cmp	r1, #1
1000269a:	d107      	bne.n	100026ac <tud_vendor_control_xfer_cb+0x14>
1000269c:	7853      	ldrb	r3, [r2, #1]
1000269e:	2b01      	cmp	r3, #1
100026a0:	d102      	bne.n	100026a8 <tud_vendor_control_xfer_cb+0x10>
100026a2:	8893      	ldrh	r3, [r2, #4]
100026a4:	2b07      	cmp	r3, #7
100026a6:	d003      	beq.n	100026b0 <tud_vendor_control_xfer_cb+0x18>
100026a8:	2000      	movs	r0, #0
100026aa:	4770      	bx	lr
100026ac:	2001      	movs	r0, #1
100026ae:	4770      	bx	lr
100026b0:	4611      	mov	r1, r2
100026b2:	23a6      	movs	r3, #166	@ 0xa6
100026b4:	4a01      	ldr	r2, [pc, #4]	@ (100026bc <tud_vendor_control_xfer_cb+0x24>)
100026b6:	f001 ba39 	b.w	10003b2c <tud_control_xfer>
100026ba:	bf00      	nop
100026bc:	10005c24 	.word	0x10005c24

100026c0 <usbd_app_driver_get_cb>:
100026c0:	4603      	mov	r3, r0
100026c2:	2201      	movs	r2, #1
100026c4:	4801      	ldr	r0, [pc, #4]	@ (100026cc <usbd_app_driver_get_cb+0xc>)
100026c6:	701a      	strb	r2, [r3, #0]
100026c8:	4770      	bx	lr
100026ca:	bf00      	nop
100026cc:	10005c04 	.word	0x10005c04

100026d0 <tud_cdc_line_coding_cb>:
100026d0:	b508      	push	{r3, lr}
100026d2:	680b      	ldr	r3, [r1, #0]
100026d4:	f5b3 6f96 	cmp.w	r3, #1200	@ 0x4b0
100026d8:	d000      	beq.n	100026dc <tud_cdc_line_coding_cb+0xc>
100026da:	bd08      	pop	{r3, pc}
100026dc:	2200      	movs	r2, #0
100026de:	f04f 30ff 	mov.w	r0, #4294967295	@ 0xffffffff
100026e2:	4611      	mov	r1, r2
100026e4:	f7ff fc94 	bl	10002010 <rom_reset_usb_boot_extra>

100026e8 <stdio_usb_set_chars_available_callback>:
100026e8:	4a02      	ldr	r2, [pc, #8]	@ (100026f4 <stdio_usb_set_chars_available_callback+0xc>)
100026ea:	4b03      	ldr	r3, [pc, #12]	@ (100026f8 <stdio_usb_set_chars_available_callback+0x10>)
100026ec:	6010      	str	r0, [r2, #0]
100026ee:	6019      	str	r1, [r3, #0]
100026f0:	4770      	bx	lr
100026f2:	bf00      	nop
100026f4:	20002160 	.word	0x20002160
100026f8:	20002164 	.word	0x20002164

100026fc <timer_task>:
100026fc:	4b18      	ldr	r3, [pc, #96]	@ (10002760 <timer_task+0x64>)
100026fe:	b570      	push	{r4, r5, r6, lr}
10002700:	681a      	ldr	r2, [r3, #0]
10002702:	2a00      	cmp	r2, #0
10002704:	d028      	beq.n	10002758 <timer_task+0x5c>
10002706:	f3ef 8110 	mrs	r1, PRIMASK
1000270a:	b672      	cpsid	i
1000270c:	e8d2 4fcf 	ldaexb	r4, [r2]
10002710:	2001      	movs	r0, #1
10002712:	2c00      	cmp	r4, #0
10002714:	d1fa      	bne.n	1000270c <timer_task+0x10>
10002716:	e8c2 0f44 	strexb	r4, r0, [r2]
1000271a:	2c00      	cmp	r4, #0
1000271c:	d1f6      	bne.n	1000270c <timer_task+0x10>
1000271e:	f3bf 8f5f 	dmb	sy
10002722:	2200      	movs	r2, #0
10002724:	4c0f      	ldr	r4, [pc, #60]	@ (10002764 <timer_task+0x68>)
10002726:	6818      	ldr	r0, [r3, #0]
10002728:	6059      	str	r1, [r3, #4]
1000272a:	7022      	strb	r2, [r4, #0]
1000272c:	e8c0 2f8f 	stlb	r2, [r0]
10002730:	f381 8810 	msr	PRIMASK, r1
10002734:	2400      	movs	r4, #0
10002736:	2500      	movs	r5, #0
10002738:	4e0b      	ldr	r6, [pc, #44]	@ (10002768 <timer_task+0x6c>)
1000273a:	7830      	ldrb	r0, [r6, #0]
1000273c:	f7fe fa92 	bl	10000c64 <irq_is_enabled>
10002740:	b920      	cbnz	r0, 1000274c <timer_task+0x50>
10002742:	2400      	movs	r4, #0
10002744:	2500      	movs	r5, #0
10002746:	4620      	mov	r0, r4
10002748:	4629      	mov	r1, r5
1000274a:	bd70      	pop	{r4, r5, r6, pc}
1000274c:	7830      	ldrb	r0, [r6, #0]
1000274e:	f7fe fa99 	bl	10000c84 <irq_set_pending>
10002752:	4620      	mov	r0, r4
10002754:	4629      	mov	r1, r5
10002756:	bd70      	pop	{r4, r5, r6, pc}
10002758:	f44f 747a 	mov.w	r4, #1000	@ 0x3e8
1000275c:	2500      	movs	r5, #0
1000275e:	e7eb      	b.n	10002738 <timer_task+0x3c>
10002760:	20002800 	.word	0x20002800
10002764:	2000289b 	.word	0x2000289b
10002768:	2000289a 	.word	0x2000289a

1000276c <usb_irq>:
1000276c:	4b01      	ldr	r3, [pc, #4]	@ (10002774 <usb_irq+0x8>)
1000276e:	7818      	ldrb	r0, [r3, #0]
10002770:	f7fe ba88 	b.w	10000c84 <irq_set_pending>
10002774:	2000289a 	.word	0x2000289a

10002778 <stdio_usb_in_chars>:
10002778:	b538      	push	{r3, r4, r5, lr}
1000277a:	4604      	mov	r4, r0
1000277c:	2000      	movs	r0, #0
1000277e:	460d      	mov	r5, r1
10002780:	f001 fb04 	bl	10003d8c <tud_cdc_n_connected>
10002784:	b3a8      	cbz	r0, 100027f2 <stdio_usb_in_chars+0x7a>
10002786:	2000      	movs	r0, #0
10002788:	f001 fb16 	bl	10003db8 <tud_cdc_n_available>
1000278c:	b388      	cbz	r0, 100027f2 <stdio_usb_in_chars+0x7a>
1000278e:	f7ff f89d 	bl	100018cc <time_us_64>
10002792:	f04f 3eff 	mov.w	lr, #4294967295	@ 0xffffffff
10002796:	f06f 4c00 	mvn.w	ip, #2147483648	@ 0x80000000
1000279a:	4a17      	ldr	r2, [pc, #92]	@ (100027f8 <stdio_usb_in_chars+0x80>)
1000279c:	1882      	adds	r2, r0, r2
1000279e:	f141 0300 	adc.w	r3, r1, #0
100027a2:	4596      	cmp	lr, r2
100027a4:	eb7c 0103 	sbcs.w	r1, ip, r3
100027a8:	bf3c      	itt	cc
100027aa:	4672      	movcc	r2, lr
100027ac:	4663      	movcc	r3, ip
100027ae:	4813      	ldr	r0, [pc, #76]	@ (100027fc <stdio_usb_in_chars+0x84>)
100027b0:	f003 f8d2 	bl	10005958 <__mutex_try_enter_block_until_veneer>
100027b4:	b1e8      	cbz	r0, 100027f2 <stdio_usb_in_chars+0x7a>
100027b6:	2000      	movs	r0, #0
100027b8:	f001 fae8 	bl	10003d8c <tud_cdc_n_connected>
100027bc:	b958      	cbnz	r0, 100027d6 <stdio_usb_in_chars+0x5e>
100027be:	2100      	movs	r1, #0
100027c0:	f04f 30ff 	mov.w	r0, #4294967295	@ 0xffffffff
100027c4:	f000 fd0a 	bl	100031dc <tud_task_ext>
100027c8:	f06f 0402 	mvn.w	r4, #2
100027cc:	480b      	ldr	r0, [pc, #44]	@ (100027fc <stdio_usb_in_chars+0x84>)
100027ce:	f003 f8bb 	bl	10005948 <__mutex_exit_veneer>
100027d2:	4620      	mov	r0, r4
100027d4:	bd38      	pop	{r3, r4, r5, pc}
100027d6:	2000      	movs	r0, #0
100027d8:	f001 faee 	bl	10003db8 <tud_cdc_n_available>
100027dc:	2800      	cmp	r0, #0
100027de:	d0ee      	beq.n	100027be <stdio_usb_in_chars+0x46>
100027e0:	4621      	mov	r1, r4
100027e2:	462a      	mov	r2, r5
100027e4:	2000      	movs	r0, #0
100027e6:	f001 faf1 	bl	10003dcc <tud_cdc_n_read>
100027ea:	4604      	mov	r4, r0
100027ec:	2800      	cmp	r0, #0
100027ee:	d1ed      	bne.n	100027cc <stdio_usb_in_chars+0x54>
100027f0:	e7ea      	b.n	100027c8 <stdio_usb_in_chars+0x50>
100027f2:	f06f 0402 	mvn.w	r4, #2
100027f6:	e7ec      	b.n	100027d2 <stdio_usb_in_chars+0x5a>
100027f8:	000f4240 	.word	0x000f4240
100027fc:	20002834 	.word	0x20002834

10002800 <stdio_usb_out_flush>:
10002800:	b508      	push	{r3, lr}
10002802:	f7ff f863 	bl	100018cc <time_us_64>
10002806:	f04f 3eff 	mov.w	lr, #4294967295	@ 0xffffffff
1000280a:	f06f 4c00 	mvn.w	ip, #2147483648	@ 0x80000000
1000280e:	4a0f      	ldr	r2, [pc, #60]	@ (1000284c <stdio_usb_out_flush+0x4c>)
10002810:	1882      	adds	r2, r0, r2
10002812:	f141 0300 	adc.w	r3, r1, #0
10002816:	4596      	cmp	lr, r2
10002818:	eb7c 0103 	sbcs.w	r1, ip, r3
1000281c:	bf3c      	itt	cc
1000281e:	4672      	movcc	r2, lr
10002820:	4663      	movcc	r3, ip
10002822:	480b      	ldr	r0, [pc, #44]	@ (10002850 <stdio_usb_out_flush+0x50>)
10002824:	f003 f898 	bl	10005958 <__mutex_try_enter_block_until_veneer>
10002828:	b170      	cbz	r0, 10002848 <stdio_usb_out_flush+0x48>
1000282a:	f04f 30ff 	mov.w	r0, #4294967295	@ 0xffffffff
1000282e:	2100      	movs	r1, #0
10002830:	f000 fcd4 	bl	100031dc <tud_task_ext>
10002834:	2000      	movs	r0, #0
10002836:	f001 fb11 	bl	10003e5c <tud_cdc_n_write_flush>
1000283a:	2800      	cmp	r0, #0
1000283c:	d1f5      	bne.n	1000282a <stdio_usb_out_flush+0x2a>
1000283e:	e8bd 4008 	ldmia.w	sp!, {r3, lr}
10002842:	4803      	ldr	r0, [pc, #12]	@ (10002850 <stdio_usb_out_flush+0x50>)
10002844:	f003 b880 	b.w	10005948 <__mutex_exit_veneer>
10002848:	bd08      	pop	{r3, pc}
1000284a:	bf00      	nop
1000284c:	000f4240 	.word	0x000f4240
10002850:	20002834 	.word	0x20002834

10002854 <stdio_usb_out_chars>:
10002854:	e92d 43f8 	stmdb	sp!, {r3, r4, r5, r6, r7, r8, r9, lr}
10002858:	4680      	mov	r8, r0
1000285a:	460f      	mov	r7, r1
1000285c:	f7ff f836 	bl	100018cc <time_us_64>
10002860:	f04f 35ff 	mov.w	r5, #4294967295	@ 0xffffffff
10002864:	f06f 4400 	mvn.w	r4, #2147483648	@ 0x80000000
10002868:	4a33      	ldr	r2, [pc, #204]	@ (10002938 <stdio_usb_out_chars+0xe4>)
1000286a:	1882      	adds	r2, r0, r2
1000286c:	f141 0300 	adc.w	r3, r1, #0
10002870:	4295      	cmp	r5, r2
10002872:	eb74 0103 	sbcs.w	r1, r4, r3
10002876:	bf3c      	itt	cc
10002878:	462a      	movcc	r2, r5
1000287a:	4623      	movcc	r3, r4
1000287c:	482f      	ldr	r0, [pc, #188]	@ (1000293c <stdio_usb_out_chars+0xe8>)
1000287e:	f003 f86b 	bl	10005958 <__mutex_try_enter_block_until_veneer>
10002882:	b908      	cbnz	r0, 10002888 <stdio_usb_out_chars+0x34>
10002884:	e8bd 83f8 	ldmia.w	sp!, {r3, r4, r5, r6, r7, r8, r9, pc}
10002888:	2000      	movs	r0, #0
1000288a:	f001 fa7f 	bl	10003d8c <tud_cdc_n_connected>
1000288e:	2800      	cmp	r0, #0
10002890:	d047      	beq.n	10002922 <stdio_usb_out_chars+0xce>
10002892:	2f00      	cmp	r7, #0
10002894:	dd40      	ble.n	10002918 <stdio_usb_out_chars+0xc4>
10002896:	2500      	movs	r5, #0
10002898:	f8df 90a8 	ldr.w	r9, [pc, #168]	@ 10002944 <stdio_usb_out_chars+0xf0>
1000289c:	4e28      	ldr	r6, [pc, #160]	@ (10002940 <stdio_usb_out_chars+0xec>)
1000289e:	e013      	b.n	100028c8 <stdio_usb_out_chars+0x74>
100028a0:	4622      	mov	r2, r4
100028a2:	2000      	movs	r0, #0
100028a4:	f001 fb20 	bl	10003ee8 <tud_cdc_n_write>
100028a8:	2100      	movs	r1, #0
100028aa:	4604      	mov	r4, r0
100028ac:	f04f 30ff 	mov.w	r0, #4294967295	@ 0xffffffff
100028b0:	f000 fc94 	bl	100031dc <tud_task_ext>
100028b4:	2000      	movs	r0, #0
100028b6:	f001 fad1 	bl	10003e5c <tud_cdc_n_write_flush>
100028ba:	f7ff f807 	bl	100018cc <time_us_64>
100028be:	e9c9 0100 	strd	r0, r1, [r9]
100028c2:	4425      	add	r5, r4
100028c4:	42af      	cmp	r7, r5
100028c6:	dd27      	ble.n	10002918 <stdio_usb_out_chars+0xc4>
100028c8:	2000      	movs	r0, #0
100028ca:	f001 fb2d 	bl	10003f28 <tud_cdc_n_write_available>
100028ce:	1b7c      	subs	r4, r7, r5
100028d0:	4284      	cmp	r4, r0
100028d2:	bfa8      	it	ge
100028d4:	4604      	movge	r4, r0
100028d6:	eb08 0105 	add.w	r1, r8, r5
100028da:	2c00      	cmp	r4, #0
100028dc:	d1e0      	bne.n	100028a0 <stdio_usb_out_chars+0x4c>
100028de:	4621      	mov	r1, r4
100028e0:	f04f 30ff 	mov.w	r0, #4294967295	@ 0xffffffff
100028e4:	f000 fc7a 	bl	100031dc <tud_task_ext>
100028e8:	4620      	mov	r0, r4
100028ea:	f001 fab7 	bl	10003e5c <tud_cdc_n_write_flush>
100028ee:	4620      	mov	r0, r4
100028f0:	f001 fa4c 	bl	10003d8c <tud_cdc_n_connected>
100028f4:	b180      	cbz	r0, 10002918 <stdio_usb_out_chars+0xc4>
100028f6:	4620      	mov	r0, r4
100028f8:	f001 fb16 	bl	10003f28 <tud_cdc_n_write_available>
100028fc:	2800      	cmp	r0, #0
100028fe:	d1e1      	bne.n	100028c4 <stdio_usb_out_chars+0x70>
10002900:	f7fe ffe4 	bl	100018cc <time_us_64>
10002904:	f8d9 3000 	ldr.w	r3, [r9]
10002908:	f8d9 2004 	ldr.w	r2, [r9, #4]
1000290c:	199b      	adds	r3, r3, r6
1000290e:	f142 0200 	adc.w	r2, r2, #0
10002912:	4283      	cmp	r3, r0
10002914:	418a      	sbcs	r2, r1
10002916:	d2d5      	bcs.n	100028c4 <stdio_usb_out_chars+0x70>
10002918:	4808      	ldr	r0, [pc, #32]	@ (1000293c <stdio_usb_out_chars+0xe8>)
1000291a:	e8bd 43f8 	ldmia.w	sp!, {r3, r4, r5, r6, r7, r8, r9, lr}
1000291e:	f003 b813 	b.w	10005948 <__mutex_exit_veneer>
10002922:	2000      	movs	r0, #0
10002924:	2100      	movs	r1, #0
10002926:	4b07      	ldr	r3, [pc, #28]	@ (10002944 <stdio_usb_out_chars+0xf0>)
10002928:	e9c3 0100 	strd	r0, r1, [r3]
1000292c:	e8bd 43f8 	ldmia.w	sp!, {r3, r4, r5, r6, r7, r8, r9, lr}
10002930:	4802      	ldr	r0, [pc, #8]	@ (1000293c <stdio_usb_out_chars+0xe8>)
10002932:	f003 b809 	b.w	10005948 <__mutex_exit_veneer>
10002936:	bf00      	nop
10002938:	000f4240 	.word	0x000f4240
1000293c:	20002834 	.word	0x20002834
10002940:	0007a120 	.word	0x0007a120
10002944:	20001a30 	.word	0x20001a30

10002948 <low_priority_worker_irq>:
10002948:	b530      	push	{r4, r5, lr}
1000294a:	2100      	movs	r1, #0
1000294c:	b085      	sub	sp, #20
1000294e:	482e      	ldr	r0, [pc, #184]	@ (10002a08 <low_priority_worker_irq+0xc0>)
10002950:	f003 f806 	bl	10005960 <__mutex_try_enter_veneer>
10002954:	b9f0      	cbnz	r0, 10002994 <low_priority_worker_irq+0x4c>
10002956:	4b2d      	ldr	r3, [pc, #180]	@ (10002a0c <low_priority_worker_irq+0xc4>)
10002958:	681a      	ldr	r2, [r3, #0]
1000295a:	b1ca      	cbz	r2, 10002990 <low_priority_worker_irq+0x48>
1000295c:	f3ef 8110 	mrs	r1, PRIMASK
10002960:	b672      	cpsid	i
10002962:	e8d2 5fcf 	ldaexb	r5, [r2]
10002966:	2401      	movs	r4, #1
10002968:	2d00      	cmp	r5, #0
1000296a:	d1fa      	bne.n	10002962 <low_priority_worker_irq+0x1a>
1000296c:	e8c2 4f45 	strexb	r5, r4, [r2]
10002970:	2d00      	cmp	r5, #0
10002972:	d1f6      	bne.n	10002962 <low_priority_worker_irq+0x1a>
10002974:	f3bf 8f5f 	dmb	sy
10002978:	4c25      	ldr	r4, [pc, #148]	@ (10002a10 <low_priority_worker_irq+0xc8>)
1000297a:	681d      	ldr	r5, [r3, #0]
1000297c:	7822      	ldrb	r2, [r4, #0]
1000297e:	6059      	str	r1, [r3, #4]
10002980:	b2d3      	uxtb	r3, r2
10002982:	2201      	movs	r2, #1
10002984:	7022      	strb	r2, [r4, #0]
10002986:	e8c5 0f8f 	stlb	r0, [r5]
1000298a:	f381 8810 	msr	PRIMASK, r1
1000298e:	b1cb      	cbz	r3, 100029c4 <low_priority_worker_irq+0x7c>
10002990:	b005      	add	sp, #20
10002992:	bd30      	pop	{r4, r5, pc}
10002994:	2100      	movs	r1, #0
10002996:	f04f 30ff 	mov.w	r0, #4294967295	@ 0xffffffff
1000299a:	f000 fc1f 	bl	100031dc <tud_task_ext>
1000299e:	2000      	movs	r0, #0
100029a0:	f001 fa0a 	bl	10003db8 <tud_cdc_n_available>
100029a4:	4604      	mov	r4, r0
100029a6:	4818      	ldr	r0, [pc, #96]	@ (10002a08 <low_priority_worker_irq+0xc0>)
100029a8:	f002 ffce 	bl	10005948 <__mutex_exit_veneer>
100029ac:	2c00      	cmp	r4, #0
100029ae:	d0ef      	beq.n	10002990 <low_priority_worker_irq+0x48>
100029b0:	4b18      	ldr	r3, [pc, #96]	@ (10002a14 <low_priority_worker_irq+0xcc>)
100029b2:	681b      	ldr	r3, [r3, #0]
100029b4:	2b00      	cmp	r3, #0
100029b6:	d0eb      	beq.n	10002990 <low_priority_worker_irq+0x48>
100029b8:	4a17      	ldr	r2, [pc, #92]	@ (10002a18 <low_priority_worker_irq+0xd0>)
100029ba:	6810      	ldr	r0, [r2, #0]
100029bc:	b005      	add	sp, #20
100029be:	e8bd 4030 	ldmia.w	sp!, {r4, r5, lr}
100029c2:	4718      	bx	r3
100029c4:	f7fe fd78 	bl	100014b8 <alarm_pool_get_default>
100029c8:	4604      	mov	r4, r0
100029ca:	f7fe ff7f 	bl	100018cc <time_us_64>
100029ce:	f04f 3cff 	mov.w	ip, #4294967295	@ 0xffffffff
100029d2:	f06f 4500 	mvn.w	r5, #2147483648	@ 0x80000000
100029d6:	f510 727a 	adds.w	r2, r0, #1000	@ 0x3e8
100029da:	f141 0300 	adc.w	r3, r1, #0
100029de:	4594      	cmp	ip, r2
100029e0:	eb75 0103 	sbcs.w	r1, r5, r3
100029e4:	bf38      	it	cc
100029e6:	462b      	movcc	r3, r5
100029e8:	f04f 0100 	mov.w	r1, #0
100029ec:	f04f 0501 	mov.w	r5, #1
100029f0:	4620      	mov	r0, r4
100029f2:	4c0a      	ldr	r4, [pc, #40]	@ (10002a1c <low_priority_worker_irq+0xd4>)
100029f4:	bf38      	it	cc
100029f6:	4662      	movcc	r2, ip
100029f8:	e9cd 1501 	strd	r1, r5, [sp, #4]
100029fc:	9400      	str	r4, [sp, #0]
100029fe:	f7fe fd5f 	bl	100014c0 <alarm_pool_add_alarm_at>
10002a02:	b005      	add	sp, #20
10002a04:	bd30      	pop	{r4, r5, pc}
10002a06:	bf00      	nop
10002a08:	20002834 	.word	0x20002834
10002a0c:	20002800 	.word	0x20002800
10002a10:	2000289b 	.word	0x2000289b
10002a14:	20002160 	.word	0x20002160
10002a18:	20002164 	.word	0x20002164
10002a1c:	100026fd 	.word	0x100026fd

10002a20 <stdio_usb_init>:
10002a20:	f04f 4350 	mov.w	r3, #3489660928	@ 0xd0000000
10002a24:	b530      	push	{r4, r5, lr}
10002a26:	b085      	sub	sp, #20
10002a28:	681c      	ldr	r4, [r3, #0]
10002a2a:	f7fe fd45 	bl	100014b8 <alarm_pool_get_default>
10002a2e:	f7fe fe59 	bl	100016e4 <alarm_pool_core_num>
10002a32:	42a0      	cmp	r0, r4
10002a34:	d002      	beq.n	10002a3c <stdio_usb_init+0x1c>
10002a36:	2000      	movs	r0, #0
10002a38:	b005      	add	sp, #20
10002a3a:	bd30      	pop	{r4, r5, pc}
10002a3c:	2100      	movs	r1, #0
10002a3e:	4b2a      	ldr	r3, [pc, #168]	@ (10002ae8 <stdio_usb_init+0xc8>)
10002a40:	4608      	mov	r0, r1
10002a42:	781b      	ldrb	r3, [r3, #0]
10002a44:	f001 fd38 	bl	100044b8 <tusb_rhport_init>
10002a48:	4828      	ldr	r0, [pc, #160]	@ (10002aec <stdio_usb_init+0xcc>)
10002a4a:	6803      	ldr	r3, [r0, #0]
10002a4c:	2b00      	cmp	r3, #0
10002a4e:	d047      	beq.n	10002ae0 <stdio_usb_init+0xc0>
10002a50:	2001      	movs	r0, #1
10002a52:	f7fe fab5 	bl	10000fc0 <user_irq_claim_unused>
10002a56:	4603      	mov	r3, r0
10002a58:	4c25      	ldr	r4, [pc, #148]	@ (10002af0 <stdio_usb_init+0xd0>)
10002a5a:	4926      	ldr	r1, [pc, #152]	@ (10002af4 <stdio_usb_init+0xd4>)
10002a5c:	b2c0      	uxtb	r0, r0
10002a5e:	7023      	strb	r3, [r4, #0]
10002a60:	f7fe f92c 	bl	10000cbc <irq_set_exclusive_handler>
10002a64:	7820      	ldrb	r0, [r4, #0]
10002a66:	2101      	movs	r1, #1
10002a68:	f7fe f8e6 	bl	10000c38 <irq_set_enabled>
10002a6c:	200e      	movs	r0, #14
10002a6e:	f7fe f915 	bl	10000c9c <irq_has_shared_handler>
10002a72:	bb40      	cbnz	r0, 10002ac6 <stdio_usb_init+0xa6>
10002a74:	4b20      	ldr	r3, [pc, #128]	@ (10002af8 <stdio_usb_init+0xd8>)
10002a76:	2501      	movs	r5, #1
10002a78:	e9c3 0000 	strd	r0, r0, [r3]
10002a7c:	f7fe fd1c 	bl	100014b8 <alarm_pool_get_default>
10002a80:	4604      	mov	r4, r0
10002a82:	f7fe ff23 	bl	100018cc <time_us_64>
10002a86:	f04f 3eff 	mov.w	lr, #4294967295	@ 0xffffffff
10002a8a:	f06f 4c00 	mvn.w	ip, #2147483648	@ 0x80000000
10002a8e:	f510 727a 	adds.w	r2, r0, #1000	@ 0x3e8
10002a92:	f141 0300 	adc.w	r3, r1, #0
10002a96:	4596      	cmp	lr, r2
10002a98:	eb7c 0103 	sbcs.w	r1, ip, r3
10002a9c:	f04f 0100 	mov.w	r1, #0
10002aa0:	4620      	mov	r0, r4
10002aa2:	4c16      	ldr	r4, [pc, #88]	@ (10002afc <stdio_usb_init+0xdc>)
10002aa4:	bf3c      	itt	cc
10002aa6:	4672      	movcc	r2, lr
10002aa8:	4663      	movcc	r3, ip
10002aaa:	e9cd 1501 	strd	r1, r5, [sp, #4]
10002aae:	9400      	str	r4, [sp, #0]
10002ab0:	f7fe fd06 	bl	100014c0 <alarm_pool_add_alarm_at>
10002ab4:	2800      	cmp	r0, #0
10002ab6:	dbbe      	blt.n	10002a36 <stdio_usb_init+0x16>
10002ab8:	2101      	movs	r1, #1
10002aba:	4811      	ldr	r0, [pc, #68]	@ (10002b00 <stdio_usb_init+0xe0>)
10002abc:	f7ff fd2c 	bl	10002518 <stdio_set_driver_enabled>
10002ac0:	2001      	movs	r0, #1
10002ac2:	b005      	add	sp, #20
10002ac4:	bd30      	pop	{r4, r5, pc}
10002ac6:	2001      	movs	r0, #1
10002ac8:	f7fe f872 	bl	10000bb0 <spin_lock_claim_unused>
10002acc:	4601      	mov	r1, r0
10002ace:	480a      	ldr	r0, [pc, #40]	@ (10002af8 <stdio_usb_init+0xd8>)
10002ad0:	f7fe fad2 	bl	10001078 <critical_section_init_with_lock_num>
10002ad4:	2200      	movs	r2, #0
10002ad6:	200e      	movs	r0, #14
10002ad8:	490a      	ldr	r1, [pc, #40]	@ (10002b04 <stdio_usb_init+0xe4>)
10002ada:	f7fe f91f 	bl	10000d1c <irq_add_shared_handler>
10002ade:	e7eb      	b.n	10002ab8 <stdio_usb_init+0x98>
10002ae0:	f7fe faae 	bl	10001040 <mutex_init>
10002ae4:	e7b4      	b.n	10002a50 <stdio_usb_init+0x30>
10002ae6:	bf00      	nop
10002ae8:	10005de4 	.word	0x10005de4
10002aec:	20002834 	.word	0x20002834
10002af0:	2000289a 	.word	0x2000289a
10002af4:	10002949 	.word	0x10002949
10002af8:	20002800 	.word	0x20002800
10002afc:	100026fd 	.word	0x100026fd
10002b00:	2000130c 	.word	0x2000130c
10002b04:	1000276d 	.word	0x1000276d

10002b08 <tud_descriptor_device_cb>:
10002b08:	4800      	ldr	r0, [pc, #0]	@ (10002b0c <tud_descriptor_device_cb+0x4>)
10002b0a:	4770      	bx	lr
10002b0c:	10005d68 	.word	0x10005d68

10002b10 <tud_descriptor_configuration_cb>:
10002b10:	4800      	ldr	r0, [pc, #0]	@ (10002b14 <tud_descriptor_configuration_cb+0x4>)
10002b12:	4770      	bx	lr
10002b14:	10005d14 	.word	0x10005d14

10002b18 <tud_descriptor_string_cb>:
10002b18:	b538      	push	{r3, r4, r5, lr}
10002b1a:	4b18      	ldr	r3, [pc, #96]	@ (10002b7c <tud_descriptor_string_cb+0x64>)
10002b1c:	4604      	mov	r4, r0
10002b1e:	781a      	ldrb	r2, [r3, #0]
10002b20:	b30a      	cbz	r2, 10002b66 <tud_descriptor_string_cb+0x4e>
10002b22:	b944      	cbnz	r4, 10002b36 <tud_descriptor_string_cb+0x1e>
10002b24:	f240 4209 	movw	r2, #1033	@ 0x409
10002b28:	f44f 7341 	mov.w	r3, #772	@ 0x304
10002b2c:	4d14      	ldr	r5, [pc, #80]	@ (10002b80 <tud_descriptor_string_cb+0x68>)
10002b2e:	806a      	strh	r2, [r5, #2]
10002b30:	4813      	ldr	r0, [pc, #76]	@ (10002b80 <tud_descriptor_string_cb+0x68>)
10002b32:	802b      	strh	r3, [r5, #0]
10002b34:	bd38      	pop	{r3, r4, r5, pc}
10002b36:	2c05      	cmp	r4, #5
10002b38:	d81d      	bhi.n	10002b76 <tud_descriptor_string_cb+0x5e>
10002b3a:	4b12      	ldr	r3, [pc, #72]	@ (10002b84 <tud_descriptor_string_cb+0x6c>)
10002b3c:	4d10      	ldr	r5, [pc, #64]	@ (10002b80 <tud_descriptor_string_cb+0x68>)
10002b3e:	f853 1024 	ldr.w	r1, [r3, r4, lsl #2]
10002b42:	4628      	mov	r0, r5
10002b44:	2300      	movs	r3, #0
10002b46:	3901      	subs	r1, #1
10002b48:	e003      	b.n	10002b52 <tud_descriptor_string_cb+0x3a>
10002b4a:	2b13      	cmp	r3, #19
10002b4c:	f820 2f02 	strh.w	r2, [r0, #2]!
10002b50:	d00e      	beq.n	10002b70 <tud_descriptor_string_cb+0x58>
10002b52:	f811 2f01 	ldrb.w	r2, [r1, #1]!
10002b56:	3301      	adds	r3, #1
10002b58:	b2db      	uxtb	r3, r3
10002b5a:	2a00      	cmp	r2, #0
10002b5c:	d1f5      	bne.n	10002b4a <tud_descriptor_string_cb+0x32>
10002b5e:	005b      	lsls	r3, r3, #1
10002b60:	f443 7340 	orr.w	r3, r3, #768	@ 0x300
10002b64:	e7e4      	b.n	10002b30 <tud_descriptor_string_cb+0x18>
10002b66:	2111      	movs	r1, #17
10002b68:	4618      	mov	r0, r3
10002b6a:	f000 f825 	bl	10002bb8 <pico_get_unique_board_id_string>
10002b6e:	e7d8      	b.n	10002b22 <tud_descriptor_string_cb+0xa>
10002b70:	f44f 734a 	mov.w	r3, #808	@ 0x328
10002b74:	e7dc      	b.n	10002b30 <tud_descriptor_string_cb+0x18>
10002b76:	2000      	movs	r0, #0
10002b78:	bd38      	pop	{r3, r4, r5, pc}
10002b7a:	bf00      	nop
10002b7c:	20002884 	.word	0x20002884
10002b80:	200021a0 	.word	0x200021a0
10002b84:	10005cfc 	.word	0x10005cfc

10002b88 <_retrieve_unique_id_on_boot>:
10002b88:	b500      	push	{lr}
10002b8a:	f245 3047 	movw	r0, #21319	@ 0x5347
10002b8e:	b08b      	sub	sp, #44	@ 0x2c
10002b90:	f7ff fa32 	bl	10001ff8 <rom_func_lookup>
10002b94:	2201      	movs	r2, #1
10002b96:	4603      	mov	r3, r0
10002b98:	2109      	movs	r1, #9
10002b9a:	a801      	add	r0, sp, #4
10002b9c:	4798      	blx	r3
10002b9e:	e9dd 3203 	ldrd	r3, r2, [sp, #12]
10002ba2:	4904      	ldr	r1, [pc, #16]	@ (10002bb4 <_retrieve_unique_id_on_boot+0x2c>)
10002ba4:	ba12      	rev	r2, r2
10002ba6:	ba1b      	rev	r3, r3
10002ba8:	e9c1 2300 	strd	r2, r3, [r1]
10002bac:	b00b      	add	sp, #44	@ 0x2c
10002bae:	f85d fb04 	ldr.w	pc, [sp], #4
10002bb2:	bf00      	nop
10002bb4:	20002828 	.word	0x20002828

10002bb8 <pico_get_unique_board_id_string>:
10002bb8:	2901      	cmp	r1, #1
10002bba:	f101 33ff 	add.w	r3, r1, #4294967295	@ 0xffffffff
10002bbe:	f000 80b3 	beq.w	10002d28 <pico_get_unique_board_id_string+0x170>
10002bc2:	495d      	ldr	r1, [pc, #372]	@ (10002d38 <pico_get_unique_board_id_string+0x180>)
10002bc4:	780a      	ldrb	r2, [r1, #0]
10002bc6:	ea4f 1c12 	mov.w	ip, r2, lsr #4
10002bca:	2a9f      	cmp	r2, #159	@ 0x9f
10002bcc:	bf8c      	ite	hi
10002bce:	f10c 0c37 	addhi.w	ip, ip, #55	@ 0x37
10002bd2:	f10c 0c30 	addls.w	ip, ip, #48	@ 0x30
10002bd6:	2b01      	cmp	r3, #1
10002bd8:	f880 c000 	strb.w	ip, [r0]
10002bdc:	f000 80a7 	beq.w	10002d2e <pico_get_unique_board_id_string+0x176>
10002be0:	f002 020f 	and.w	r2, r2, #15
10002be4:	2a09      	cmp	r2, #9
10002be6:	bf8c      	ite	hi
10002be8:	3237      	addhi	r2, #55	@ 0x37
10002bea:	3230      	addls	r2, #48	@ 0x30
10002bec:	2b02      	cmp	r3, #2
10002bee:	7042      	strb	r2, [r0, #1]
10002bf0:	f000 809d 	beq.w	10002d2e <pico_get_unique_board_id_string+0x176>
10002bf4:	784a      	ldrb	r2, [r1, #1]
10002bf6:	ea4f 1c12 	mov.w	ip, r2, lsr #4
10002bfa:	2a9f      	cmp	r2, #159	@ 0x9f
10002bfc:	bf8c      	ite	hi
10002bfe:	f10c 0c37 	addhi.w	ip, ip, #55	@ 0x37
10002c02:	f10c 0c30 	addls.w	ip, ip, #48	@ 0x30
10002c06:	2b03      	cmp	r3, #3
10002c08:	f880 c002 	strb.w	ip, [r0, #2]
10002c0c:	f000 808f 	beq.w	10002d2e <pico_get_unique_board_id_string+0x176>
10002c10:	f002 020f 	and.w	r2, r2, #15
10002c14:	2a09      	cmp	r2, #9
10002c16:	bf8c      	ite	hi
10002c18:	3237      	addhi	r2, #55	@ 0x37
10002c1a:	3230      	addls	r2, #48	@ 0x30
10002c1c:	2b04      	cmp	r3, #4
10002c1e:	70c2      	strb	r2, [r0, #3]
10002c20:	f000 8085 	beq.w	10002d2e <pico_get_unique_board_id_string+0x176>
10002c24:	788a      	ldrb	r2, [r1, #2]
10002c26:	ea4f 1c12 	mov.w	ip, r2, lsr #4
10002c2a:	2a9f      	cmp	r2, #159	@ 0x9f
10002c2c:	bf8c      	ite	hi
10002c2e:	f10c 0c37 	addhi.w	ip, ip, #55	@ 0x37
10002c32:	f10c 0c30 	addls.w	ip, ip, #48	@ 0x30
10002c36:	2b05      	cmp	r3, #5
10002c38:	f880 c004 	strb.w	ip, [r0, #4]
10002c3c:	d077      	beq.n	10002d2e <pico_get_unique_board_id_string+0x176>
10002c3e:	f002 020f 	and.w	r2, r2, #15
10002c42:	2a09      	cmp	r2, #9
10002c44:	bf8c      	ite	hi
10002c46:	3237      	addhi	r2, #55	@ 0x37
10002c48:	3230      	addls	r2, #48	@ 0x30
10002c4a:	2b06      	cmp	r3, #6
10002c4c:	7142      	strb	r2, [r0, #5]
10002c4e:	d06e      	beq.n	10002d2e <pico_get_unique_board_id_string+0x176>
10002c50:	78ca      	ldrb	r2, [r1, #3]
10002c52:	ea4f 1c12 	mov.w	ip, r2, lsr #4
10002c56:	2a9f      	cmp	r2, #159	@ 0x9f
10002c58:	bf8c      	ite	hi
10002c5a:	f10c 0c37 	addhi.w	ip, ip, #55	@ 0x37
10002c5e:	f10c 0c30 	addls.w	ip, ip, #48	@ 0x30
10002c62:	2b07      	cmp	r3, #7
10002c64:	f880 c006 	strb.w	ip, [r0, #6]
10002c68:	d061      	beq.n	10002d2e <pico_get_unique_board_id_string+0x176>
10002c6a:	f002 020f 	and.w	r2, r2, #15
10002c6e:	2a09      	cmp	r2, #9
10002c70:	bf8c      	ite	hi
10002c72:	3237      	addhi	r2, #55	@ 0x37
10002c74:	3230      	addls	r2, #48	@ 0x30
10002c76:	2b08      	cmp	r3, #8
10002c78:	71c2      	strb	r2, [r0, #7]
10002c7a:	d058      	beq.n	10002d2e <pico_get_unique_board_id_string+0x176>
10002c7c:	790a      	ldrb	r2, [r1, #4]
10002c7e:	ea4f 1c12 	mov.w	ip, r2, lsr #4
10002c82:	2a9f      	cmp	r2, #159	@ 0x9f
10002c84:	bf8c      	ite	hi
10002c86:	f10c 0c37 	addhi.w	ip, ip, #55	@ 0x37
10002c8a:	f10c 0c30 	addls.w	ip, ip, #48	@ 0x30
10002c8e:	2b09      	cmp	r3, #9
10002c90:	f880 c008 	strb.w	ip, [r0, #8]
10002c94:	d04b      	beq.n	10002d2e <pico_get_unique_board_id_string+0x176>
10002c96:	f002 020f 	and.w	r2, r2, #15
10002c9a:	2a09      	cmp	r2, #9
10002c9c:	bf8c      	ite	hi
10002c9e:	3237      	addhi	r2, #55	@ 0x37
10002ca0:	3230      	addls	r2, #48	@ 0x30
10002ca2:	2b0a      	cmp	r3, #10
10002ca4:	7242      	strb	r2, [r0, #9]
10002ca6:	d042      	beq.n	10002d2e <pico_get_unique_board_id_string+0x176>
10002ca8:	794a      	ldrb	r2, [r1, #5]
10002caa:	ea4f 1c12 	mov.w	ip, r2, lsr #4
10002cae:	2a9f      	cmp	r2, #159	@ 0x9f
10002cb0:	bf8c      	ite	hi
10002cb2:	f10c 0c37 	addhi.w	ip, ip, #55	@ 0x37
10002cb6:	f10c 0c30 	addls.w	ip, ip, #48	@ 0x30
10002cba:	2b0b      	cmp	r3, #11
10002cbc:	f880 c00a 	strb.w	ip, [r0, #10]
10002cc0:	d035      	beq.n	10002d2e <pico_get_unique_board_id_string+0x176>
10002cc2:	f002 020f 	and.w	r2, r2, #15
10002cc6:	2a09      	cmp	r2, #9
10002cc8:	bf8c      	ite	hi
10002cca:	3237      	addhi	r2, #55	@ 0x37
10002ccc:	3230      	addls	r2, #48	@ 0x30
10002cce:	2b0c      	cmp	r3, #12
10002cd0:	72c2      	strb	r2, [r0, #11]
10002cd2:	d02c      	beq.n	10002d2e <pico_get_unique_board_id_string+0x176>
10002cd4:	798a      	ldrb	r2, [r1, #6]
10002cd6:	ea4f 1c12 	mov.w	ip, r2, lsr #4
10002cda:	2a9f      	cmp	r2, #159	@ 0x9f
10002cdc:	bf8c      	ite	hi
10002cde:	f10c 0c37 	addhi.w	ip, ip, #55	@ 0x37
10002ce2:	f10c 0c30 	addls.w	ip, ip, #48	@ 0x30
10002ce6:	2b0d      	cmp	r3, #13
10002ce8:	f880 c00c 	strb.w	ip, [r0, #12]
10002cec:	d01f      	beq.n	10002d2e <pico_get_unique_board_id_string+0x176>
10002cee:	f002 020f 	and.w	r2, r2, #15
10002cf2:	2a09      	cmp	r2, #9
10002cf4:	bf8c      	ite	hi
10002cf6:	3237      	addhi	r2, #55	@ 0x37
10002cf8:	3230      	addls	r2, #48	@ 0x30
10002cfa:	2b0e      	cmp	r3, #14
10002cfc:	7342      	strb	r2, [r0, #13]
10002cfe:	d016      	beq.n	10002d2e <pico_get_unique_board_id_string+0x176>
10002d00:	79ca      	ldrb	r2, [r1, #7]
10002d02:	0911      	lsrs	r1, r2, #4
10002d04:	2a9f      	cmp	r2, #159	@ 0x9f
10002d06:	bf8c      	ite	hi
10002d08:	3137      	addhi	r1, #55	@ 0x37
10002d0a:	3130      	addls	r1, #48	@ 0x30
10002d0c:	2b0f      	cmp	r3, #15
10002d0e:	7381      	strb	r1, [r0, #14]
10002d10:	d00d      	beq.n	10002d2e <pico_get_unique_board_id_string+0x176>
10002d12:	f002 020f 	and.w	r2, r2, #15
10002d16:	2a09      	cmp	r2, #9
10002d18:	bf94      	ite	ls
10002d1a:	3230      	addls	r2, #48	@ 0x30
10002d1c:	3237      	addhi	r2, #55	@ 0x37
10002d1e:	2b10      	cmp	r3, #16
10002d20:	73c2      	strb	r2, [r0, #15]
10002d22:	bf18      	it	ne
10002d24:	3010      	addne	r0, #16
10002d26:	d002      	beq.n	10002d2e <pico_get_unique_board_id_string+0x176>
10002d28:	2300      	movs	r3, #0
10002d2a:	7003      	strb	r3, [r0, #0]
10002d2c:	4770      	bx	lr
10002d2e:	4418      	add	r0, r3
10002d30:	2300      	movs	r3, #0
10002d32:	7003      	strb	r3, [r0, #0]
10002d34:	4770      	bx	lr
10002d36:	bf00      	nop
10002d38:	20002828 	.word	0x20002828

10002d3c <dcd_init>:
10002d3c:	b570      	push	{r4, r5, r6, lr}
10002d3e:	f000 f92d 	bl	10002f9c <rp2040_usb_init>
10002d42:	230c      	movs	r3, #12
10002d44:	2640      	movs	r6, #64	@ 0x40
10002d46:	4c19      	ldr	r4, [pc, #100]	@ (10002dac <dcd_init+0x70>)
10002d48:	22ff      	movs	r2, #255	@ 0xff
10002d4a:	67a3      	str	r3, [r4, #120]	@ 0x78
10002d4c:	200e      	movs	r0, #14
10002d4e:	4918      	ldr	r1, [pc, #96]	@ (10002db0 <dcd_init+0x74>)
10002d50:	f7fd ffe4 	bl	10000d1c <irq_add_shared_handler>
10002d54:	4632      	mov	r2, r6
10002d56:	2100      	movs	r1, #0
10002d58:	4816      	ldr	r0, [pc, #88]	@ (10002db4 <dcd_init+0x78>)
10002d5a:	f002 fb71 	bl	10005440 <memset>
10002d5e:	2501      	movs	r5, #1
10002d60:	2300      	movs	r3, #0
10002d62:	2180      	movs	r1, #128	@ 0x80
10002d64:	4813      	ldr	r0, [pc, #76]	@ (10002db4 <dcd_init+0x78>)
10002d66:	4a14      	ldr	r2, [pc, #80]	@ (10002db8 <dcd_init+0x7c>)
10002d68:	8441      	strh	r1, [r0, #34]	@ 0x22
10002d6a:	7045      	strb	r5, [r0, #1]
10002d6c:	8306      	strh	r6, [r0, #24]
10002d6e:	8706      	strh	r6, [r0, #56]	@ 0x38
10002d70:	6082      	str	r2, [r0, #8]
10002d72:	6043      	str	r3, [r0, #4]
10002d74:	6013      	str	r3, [r2, #0]
10002d76:	f842 3c04 	str.w	r3, [r2, #-4]
10002d7a:	f880 3021 	strb.w	r3, [r0, #33]	@ 0x21
10002d7e:	f880 303b 	strb.w	r3, [r0, #59]	@ 0x3b
10002d82:	6243      	str	r3, [r0, #36]	@ 0x24
10002d84:	4b0d      	ldr	r3, [pc, #52]	@ (10002dbc <dcd_init+0x80>)
10002d86:	f04f 5600 	mov.w	r6, #536870912	@ 0x20000000
10002d8a:	60c3      	str	r3, [r0, #12]
10002d8c:	62c3      	str	r3, [r0, #44]	@ 0x2c
10002d8e:	3b80      	subs	r3, #128	@ 0x80
10002d90:	6283      	str	r3, [r0, #40]	@ 0x28
10002d92:	f002 fdd1 	bl	10005938 <__reset_non_control_endpoints_veneer>
10002d96:	f44f 3280 	mov.w	r2, #65536	@ 0x10000
10002d9a:	4909      	ldr	r1, [pc, #36]	@ (10002dc0 <dcd_init+0x84>)
10002d9c:	4b09      	ldr	r3, [pc, #36]	@ (10002dc4 <dcd_init+0x88>)
10002d9e:	6425      	str	r5, [r4, #64]	@ 0x40
10002da0:	4628      	mov	r0, r5
10002da2:	64e6      	str	r6, [r4, #76]	@ 0x4c
10002da4:	f8c4 1090 	str.w	r1, [r4, #144]	@ 0x90
10002da8:	64da      	str	r2, [r3, #76]	@ 0x4c
10002daa:	bd70      	pop	{r4, r5, r6, pc}
10002dac:	50110000 	.word	0x50110000
10002db0:	2000039d 	.word	0x2000039d
10002db4:	200023dc 	.word	0x200023dc
10002db8:	50100084 	.word	0x50100084
10002dbc:	50100100 	.word	0x50100100
10002dc0:	0001d010 	.word	0x0001d010
10002dc4:	50112000 	.word	0x50112000

10002dc8 <dcd_int_enable>:
10002dc8:	2101      	movs	r1, #1
10002dca:	200e      	movs	r0, #14
10002dcc:	f7fd bf34 	b.w	10000c38 <irq_set_enabled>

10002dd0 <dcd_set_address>:
10002dd0:	2200      	movs	r2, #0
10002dd2:	4802      	ldr	r0, [pc, #8]	@ (10002ddc <dcd_set_address+0xc>)
10002dd4:	4611      	mov	r1, r2
10002dd6:	f000 b901 	b.w	10002fdc <hw_endpoint_xfer_start>
10002dda:	bf00      	nop
10002ddc:	200023fc 	.word	0x200023fc

10002de0 <dcd_sof_enable>:
10002de0:	4b04      	ldr	r3, [pc, #16]	@ (10002df4 <dcd_sof_enable+0x14>)
10002de2:	7019      	strb	r1, [r3, #0]
10002de4:	b121      	cbz	r1, 10002df0 <dcd_sof_enable+0x10>
10002de6:	f44f 3200 	mov.w	r2, #131072	@ 0x20000
10002dea:	4b03      	ldr	r3, [pc, #12]	@ (10002df8 <dcd_sof_enable+0x18>)
10002dec:	f8c3 2090 	str.w	r2, [r3, #144]	@ 0x90
10002df0:	4770      	bx	lr
10002df2:	bf00      	nop
10002df4:	20002896 	.word	0x20002896
10002df8:	50112000 	.word	0x50112000

10002dfc <dcd_edpt0_status_complete>:
10002dfc:	780b      	ldrb	r3, [r1, #0]
10002dfe:	065b      	lsls	r3, r3, #25
10002e00:	d102      	bne.n	10002e08 <dcd_edpt0_status_complete+0xc>
10002e02:	784b      	ldrb	r3, [r1, #1]
10002e04:	2b05      	cmp	r3, #5
10002e06:	d000      	beq.n	10002e0a <dcd_edpt0_status_complete+0xe>
10002e08:	4770      	bx	lr
10002e0a:	884b      	ldrh	r3, [r1, #2]
10002e0c:	4a01      	ldr	r2, [pc, #4]	@ (10002e14 <dcd_edpt0_status_complete+0x18>)
10002e0e:	b2db      	uxtb	r3, r3
10002e10:	6013      	str	r3, [r2, #0]
10002e12:	4770      	bx	lr
10002e14:	50110000 	.word	0x50110000

10002e18 <dcd_edpt_open>:
10002e18:	78cb      	ldrb	r3, [r1, #3]
10002e1a:	e92d 41f0 	stmdb	sp!, {r4, r5, r6, r7, r8, lr}
10002e1e:	f003 0e03 	and.w	lr, r3, #3
10002e22:	f1be 0f01 	cmp.w	lr, #1
10002e26:	f3c3 0001 	ubfx	r0, r3, #0, #2
10002e2a:	d05b      	beq.n	10002ee4 <dcd_edpt_open+0xcc>
10002e2c:	2700      	movs	r7, #0
10002e2e:	f891 c002 	ldrb.w	ip, [r1, #2]
10002e32:	4c34      	ldr	r4, [pc, #208]	@ (10002f04 <dcd_edpt_open+0xec>)
10002e34:	f00c 027f 	and.w	r2, ip, #127	@ 0x7f
10002e38:	0056      	lsls	r6, r2, #1
10002e3a:	8889      	ldrh	r1, [r1, #4]
10002e3c:	eb06 13dc 	add.w	r3, r6, ip, lsr #7
10002e40:	eb04 1343 	add.w	r3, r4, r3, lsl #5
10002e44:	ea4f 15dc 	mov.w	r5, ip, lsr #7
10002e48:	76d8      	strb	r0, [r3, #27]
10002e4a:	f3c1 010a 	ubfx	r1, r1, #0, #11
10002e4e:	f085 0001 	eor.w	r0, r5, #1
10002e52:	f883 c002 	strb.w	ip, [r3, #2]
10002e56:	8319      	strh	r1, [r3, #24]
10002e58:	7058      	strb	r0, [r3, #1]
10002e5a:	70df      	strb	r7, [r3, #3]
10002e5c:	00d3      	lsls	r3, r2, #3
10002e5e:	bb8d      	cbnz	r5, 10002ec4 <dcd_edpt_open+0xac>
10002e60:	4829      	ldr	r0, [pc, #164]	@ (10002f08 <dcd_edpt_open+0xf0>)
10002e62:	3304      	adds	r3, #4
10002e64:	eb04 1c82 	add.w	ip, r4, r2, lsl #6
10002e68:	eb03 0800 	add.w	r8, r3, r0
10002e6c:	f8cc 8008 	str.w	r8, [ip, #8]
10002e70:	501f      	str	r7, [r3, r0]
10002e72:	b382      	cbz	r2, 10002ed6 <dcd_edpt_open+0xbe>
10002e74:	4b25      	ldr	r3, [pc, #148]	@ (10002f0c <dcd_edpt_open+0xf4>)
10002e76:	00d2      	lsls	r2, r2, #3
10002e78:	4413      	add	r3, r2
10002e7a:	f8cc 3004 	str.w	r3, [ip, #4]
10002e7e:	4b24      	ldr	r3, [pc, #144]	@ (10002f10 <dcd_edpt_open+0xf8>)
10002e80:	313f      	adds	r1, #63	@ 0x3f
10002e82:	681a      	ldr	r2, [r3, #0]
10002e84:	f021 013f 	bic.w	r1, r1, #63	@ 0x3f
10002e88:	f1be 0f02 	cmp.w	lr, #2
10002e8c:	bf08      	it	eq
10002e8e:	0049      	lsleq	r1, r1, #1
10002e90:	4411      	add	r1, r2
10002e92:	6019      	str	r1, [r3, #0]
10002e94:	4b1f      	ldr	r3, [pc, #124]	@ (10002f14 <dcd_edpt_open+0xfc>)
10002e96:	1977      	adds	r7, r6, r5
10002e98:	eb04 1747 	add.w	r7, r4, r7, lsl #5
10002e9c:	4299      	cmp	r1, r3
10002e9e:	60fa      	str	r2, [r7, #12]
10002ea0:	d82b      	bhi.n	10002efa <dcd_edpt_open+0xe2>
10002ea2:	442e      	add	r6, r5
10002ea4:	eb04 1346 	add.w	r3, r4, r6, lsl #5
10002ea8:	7ed9      	ldrb	r1, [r3, #27]
10002eaa:	f082 42a0 	eor.w	r2, r2, #1342177280	@ 0x50000000
10002eae:	f482 1280 	eor.w	r2, r2, #1048576	@ 0x100000
10002eb2:	685b      	ldr	r3, [r3, #4]
10002eb4:	ea42 6281 	orr.w	r2, r2, r1, lsl #26
10002eb8:	f042 4200 	orr.w	r2, r2, #2147483648	@ 0x80000000
10002ebc:	601a      	str	r2, [r3, #0]
10002ebe:	2001      	movs	r0, #1
10002ec0:	e8bd 81f0 	ldmia.w	sp!, {r4, r5, r6, r7, r8, pc}
10002ec4:	4810      	ldr	r0, [pc, #64]	@ (10002f08 <dcd_edpt_open+0xf0>)
10002ec6:	eb04 1c82 	add.w	ip, r4, r2, lsl #6
10002eca:	4403      	add	r3, r0
10002ecc:	f8cc 3028 	str.w	r3, [ip, #40]	@ 0x28
10002ed0:	f840 7032 	str.w	r7, [r0, r2, lsl #3]
10002ed4:	b94a      	cbnz	r2, 10002eea <dcd_edpt_open+0xd2>
10002ed6:	2200      	movs	r2, #0
10002ed8:	490f      	ldr	r1, [pc, #60]	@ (10002f18 <dcd_edpt_open+0x100>)
10002eda:	eb04 1345 	add.w	r3, r4, r5, lsl #5
10002ede:	60d9      	str	r1, [r3, #12]
10002ee0:	605a      	str	r2, [r3, #4]
10002ee2:	e7ec      	b.n	10002ebe <dcd_edpt_open+0xa6>
10002ee4:	2000      	movs	r0, #0
10002ee6:	e8bd 81f0 	ldmia.w	sp!, {r4, r5, r6, r7, r8, pc}
10002eea:	00d2      	lsls	r2, r2, #3
10002eec:	f102 42a0 	add.w	r2, r2, #1342177280	@ 0x50000000
10002ef0:	f502 1280 	add.w	r2, r2, #1048576	@ 0x100000
10002ef4:	f8cc 2024 	str.w	r2, [ip, #36]	@ 0x24
10002ef8:	e7c1      	b.n	10002e7e <dcd_edpt_open+0x66>
10002efa:	f7ff f8c9 	bl	10002090 <hard_assertion_failure>
10002efe:	68fa      	ldr	r2, [r7, #12]
10002f00:	e7cf      	b.n	10002ea2 <dcd_edpt_open+0x8a>
10002f02:	bf00      	nop
10002f04:	200023dc 	.word	0x200023dc
10002f08:	50100080 	.word	0x50100080
10002f0c:	50100004 	.word	0x50100004
10002f10:	200027e4 	.word	0x200027e4
10002f14:	50100fff 	.word	0x50100fff
10002f18:	50100100 	.word	0x50100100

10002f1c <dcd_edpt_close_all>:
10002f1c:	f002 bd0c 	b.w	10005938 <__reset_non_control_endpoints_veneer>

10002f20 <dcd_edpt_xfer>:
10002f20:	468c      	mov	ip, r1
10002f22:	b508      	push	{r3, lr}
10002f24:	4611      	mov	r1, r2
10002f26:	4807      	ldr	r0, [pc, #28]	@ (10002f44 <dcd_edpt_xfer+0x24>)
10002f28:	461a      	mov	r2, r3
10002f2a:	f00c 037f 	and.w	r3, ip, #127	@ 0x7f
10002f2e:	ea4f 1cdc 	mov.w	ip, ip, lsr #7
10002f32:	eb0c 0c43 	add.w	ip, ip, r3, lsl #1
10002f36:	eb00 104c 	add.w	r0, r0, ip, lsl #5
10002f3a:	f000 f84f 	bl	10002fdc <hw_endpoint_xfer_start>
10002f3e:	2001      	movs	r0, #1
10002f40:	bd08      	pop	{r3, pc}
10002f42:	bf00      	nop
10002f44:	200023dc 	.word	0x200023dc

10002f48 <dcd_edpt_stall>:
10002f48:	f011 027f 	ands.w	r2, r1, #127	@ 0x7f
10002f4c:	d105      	bne.n	10002f5a <dcd_edpt_stall+0x12>
10002f4e:	2900      	cmp	r1, #0
10002f50:	bf0c      	ite	eq
10002f52:	2002      	moveq	r0, #2
10002f54:	2001      	movne	r0, #1
10002f56:	4b06      	ldr	r3, [pc, #24]	@ (10002f70 <dcd_edpt_stall+0x28>)
10002f58:	6698      	str	r0, [r3, #104]	@ 0x68
10002f5a:	09c9      	lsrs	r1, r1, #7
10002f5c:	4b05      	ldr	r3, [pc, #20]	@ (10002f74 <dcd_edpt_stall+0x2c>)
10002f5e:	eb01 0042 	add.w	r0, r1, r2, lsl #1
10002f62:	eb03 1040 	add.w	r0, r3, r0, lsl #5
10002f66:	f44f 6200 	mov.w	r2, #2048	@ 0x800
10002f6a:	2100      	movs	r1, #0
10002f6c:	f002 bcf0 	b.w	10005950 <___hw_endpoint_buffer_control_update32_veneer>
10002f70:	50112000 	.word	0x50112000
10002f74:	200023dc 	.word	0x200023dc

10002f78 <dcd_edpt_clear_stall>:
10002f78:	f011 037f 	ands.w	r3, r1, #127	@ 0x7f
10002f7c:	d100      	bne.n	10002f80 <dcd_edpt_clear_stall+0x8>
10002f7e:	4770      	bx	lr
10002f80:	2200      	movs	r2, #0
10002f82:	4805      	ldr	r0, [pc, #20]	@ (10002f98 <dcd_edpt_clear_stall+0x20>)
10002f84:	005b      	lsls	r3, r3, #1
10002f86:	eb03 13d1 	add.w	r3, r3, r1, lsr #7
10002f8a:	eb00 1043 	add.w	r0, r0, r3, lsl #5
10002f8e:	f46f 6100 	mvn.w	r1, #2048	@ 0x800
10002f92:	70c2      	strb	r2, [r0, #3]
10002f94:	f002 bcdc 	b.w	10005950 <___hw_endpoint_buffer_control_update32_veneer>
10002f98:	200023dc 	.word	0x200023dc

10002f9c <rp2040_usb_init>:
10002f9c:	f04f 5280 	mov.w	r2, #268435456	@ 0x10000000
10002fa0:	4809      	ldr	r0, [pc, #36]	@ (10002fc8 <rp2040_usb_init+0x2c>)
10002fa2:	490a      	ldr	r1, [pc, #40]	@ (10002fcc <rp2040_usb_init+0x30>)
10002fa4:	b508      	push	{r3, lr}
10002fa6:	4b0a      	ldr	r3, [pc, #40]	@ (10002fd0 <rp2040_usb_init+0x34>)
10002fa8:	6002      	str	r2, [r0, #0]
10002faa:	600a      	str	r2, [r1, #0]
10002fac:	6899      	ldr	r1, [r3, #8]
10002fae:	43c9      	mvns	r1, r1
10002fb0:	f011 5180 	ands.w	r1, r1, #268435456	@ 0x10000000
10002fb4:	d1fa      	bne.n	10002fac <rp2040_usb_init+0x10>
10002fb6:	f44f 5280 	mov.w	r2, #4096	@ 0x1000
10002fba:	4806      	ldr	r0, [pc, #24]	@ (10002fd4 <rp2040_usb_init+0x38>)
10002fbc:	f002 fa40 	bl	10005440 <memset>
10002fc0:	2209      	movs	r2, #9
10002fc2:	4b05      	ldr	r3, [pc, #20]	@ (10002fd8 <rp2040_usb_init+0x3c>)
10002fc4:	675a      	str	r2, [r3, #116]	@ 0x74
10002fc6:	bd08      	pop	{r3, pc}
10002fc8:	40022000 	.word	0x40022000
10002fcc:	40023000 	.word	0x40023000
10002fd0:	40020000 	.word	0x40020000
10002fd4:	50100000 	.word	0x50100000
10002fd8:	50110000 	.word	0x50110000

10002fdc <hw_endpoint_xfer_start>:
10002fdc:	2300      	movs	r3, #0
10002fde:	f04f 0c01 	mov.w	ip, #1
10002fe2:	b510      	push	{r4, lr}
10002fe4:	f880 c01a 	strb.w	ip, [r0, #26]
10002fe8:	8282      	strh	r2, [r0, #20]
10002fea:	82c3      	strh	r3, [r0, #22]
10002fec:	6101      	str	r1, [r0, #16]
10002fee:	4604      	mov	r4, r0
10002ff0:	f002 fcba 	bl	10005968 <__e15_is_bulkin_ep_veneer>
10002ff4:	b120      	cbz	r0, 10003000 <hw_endpoint_xfer_start+0x24>
10002ff6:	f44f 3200 	mov.w	r2, #131072	@ 0x20000
10002ffa:	4b07      	ldr	r3, [pc, #28]	@ (10003018 <hw_endpoint_xfer_start+0x3c>)
10002ffc:	f8c3 2090 	str.w	r2, [r3, #144]	@ 0x90
10003000:	4620      	mov	r0, r4
10003002:	f002 fc8d 	bl	10005920 <__e15_is_critical_frame_period_veneer>
10003006:	b110      	cbz	r0, 1000300e <hw_endpoint_xfer_start+0x32>
10003008:	2301      	movs	r3, #1
1000300a:	7723      	strb	r3, [r4, #28]
1000300c:	bd10      	pop	{r4, pc}
1000300e:	4620      	mov	r0, r4
10003010:	e8bd 4010 	ldmia.w	sp!, {r4, lr}
10003014:	f002 bc8c 	b.w	10005930 <__hw_endpoint_start_next_buffer_veneer>
10003018:	50112000 	.word	0x50112000

1000301c <configuration_reset>:
1000301c:	e92d 41f0 	stmdb	sp!, {r4, r5, r6, r7, r8, lr}
10003020:	2400      	movs	r4, #0
10003022:	4e1d      	ldr	r6, [pc, #116]	@ (10003098 <configuration_reset+0x7c>)
10003024:	4605      	mov	r5, r0
10003026:	4623      	mov	r3, r4
10003028:	7832      	ldrb	r2, [r6, #0]
1000302a:	f8df 8078 	ldr.w	r8, [pc, #120]	@ 100030a4 <configuration_reset+0x88>
1000302e:	4f1b      	ldr	r7, [pc, #108]	@ (1000309c <configuration_reset+0x80>)
10003030:	e00d      	b.n	1000304e <configuration_reset+0x32>
10003032:	683b      	ldr	r3, [r7, #0]
10003034:	eb13 1344 	adds.w	r3, r3, r4, lsl #5
10003038:	d024      	beq.n	10003084 <configuration_reset+0x68>
1000303a:	68db      	ldr	r3, [r3, #12]
1000303c:	4628      	mov	r0, r5
1000303e:	4798      	blx	r3
10003040:	7832      	ldrb	r2, [r6, #0]
10003042:	3401      	adds	r4, #1
10003044:	b2e4      	uxtb	r4, r4
10003046:	1c51      	adds	r1, r2, #1
10003048:	42a1      	cmp	r1, r4
1000304a:	4623      	mov	r3, r4
1000304c:	db06      	blt.n	1000305c <configuration_reset+0x40>
1000304e:	42a2      	cmp	r2, r4
10003050:	eba3 0302 	sub.w	r3, r3, r2
10003054:	d8ed      	bhi.n	10003032 <configuration_reset+0x16>
10003056:	eb08 1343 	add.w	r3, r8, r3, lsl #5
1000305a:	e7ee      	b.n	1000303a <configuration_reset+0x1e>
1000305c:	2254      	movs	r2, #84	@ 0x54
1000305e:	2100      	movs	r1, #0
10003060:	480f      	ldr	r0, [pc, #60]	@ (100030a0 <configuration_reset+0x84>)
10003062:	f002 f9ed 	bl	10005440 <memset>
10003066:	f04f 33ff 	mov.w	r3, #4294967295	@ 0xffffffff
1000306a:	480d      	ldr	r0, [pc, #52]	@ (100030a0 <configuration_reset+0x84>)
1000306c:	2220      	movs	r2, #32
1000306e:	1d04      	adds	r4, r0, #4
10003070:	6043      	str	r3, [r0, #4]
10003072:	e9c4 3301 	strd	r3, r3, [r4, #4]
10003076:	60e3      	str	r3, [r4, #12]
10003078:	21ff      	movs	r1, #255	@ 0xff
1000307a:	e8bd 41f0 	ldmia.w	sp!, {r4, r5, r6, r7, r8, lr}
1000307e:	3014      	adds	r0, #20
10003080:	f002 b9de 	b.w	10005440 <memset>
10003084:	f04f 23e0 	mov.w	r3, #3758153728	@ 0xe000e000
10003088:	f8d3 3df0 	ldr.w	r3, [r3, #3568]	@ 0xdf0
1000308c:	07db      	lsls	r3, r3, #31
1000308e:	d500      	bpl.n	10003092 <configuration_reset+0x76>
10003090:	be00      	bkpt	0x0000
10003092:	e8bd 81f0 	ldmia.w	sp!, {r4, r5, r6, r7, r8, pc}
10003096:	bf00      	nop
10003098:	20002895 	.word	0x20002895
1000309c:	20001ba8 	.word	0x20001ba8
100030a0:	20001d78 	.word	0x20001d78
100030a4:	10005d7c 	.word	0x10005d7c

100030a8 <tud_event_hook_cb>:
100030a8:	4770      	bx	lr
100030aa:	bf00      	nop

100030ac <tud_sof_cb>:
100030ac:	4770      	bx	lr
100030ae:	bf00      	nop

100030b0 <tud_descriptor_device_qualifier_cb>:
100030b0:	2000      	movs	r0, #0
100030b2:	4770      	bx	lr

100030b4 <tud_descriptor_other_speed_configuration_cb>:
100030b4:	2000      	movs	r0, #0
100030b6:	4770      	bx	lr

100030b8 <tud_mount_cb>:
100030b8:	4770      	bx	lr
100030ba:	bf00      	nop

100030bc <tud_umount_cb>:
100030bc:	4770      	bx	lr
100030be:	bf00      	nop

100030c0 <tud_suspend_cb>:
100030c0:	4770      	bx	lr
100030c2:	bf00      	nop

100030c4 <tud_resume_cb>:
100030c4:	4770      	bx	lr
100030c6:	bf00      	nop

100030c8 <tud_mounted>:
100030c8:	4b02      	ldr	r3, [pc, #8]	@ (100030d4 <tud_mounted+0xc>)
100030ca:	7858      	ldrb	r0, [r3, #1]
100030cc:	3800      	subs	r0, #0
100030ce:	bf18      	it	ne
100030d0:	2001      	movne	r0, #1
100030d2:	4770      	bx	lr
100030d4:	20001d78 	.word	0x20001d78

100030d8 <tud_suspended>:
100030d8:	4b02      	ldr	r3, [pc, #8]	@ (100030e4 <tud_suspended+0xc>)
100030da:	7818      	ldrb	r0, [r3, #0]
100030dc:	f3c0 0080 	ubfx	r0, r0, #2, #1
100030e0:	4770      	bx	lr
100030e2:	bf00      	nop
100030e4:	20001d78 	.word	0x20001d78

100030e8 <tud_rhport_init>:
100030e8:	e92d 47f0 	stmdb	sp!, {r4, r5, r6, r7, r8, r9, sl, lr}
100030ec:	f8df a0e4 	ldr.w	sl, [pc, #228]	@ 100031d4 <tud_rhport_init+0xec>
100030f0:	f89a 3000 	ldrb.w	r3, [sl]
100030f4:	2bff      	cmp	r3, #255	@ 0xff
100030f6:	d156      	bne.n	100031a6 <tud_rhport_init+0xbe>
100030f8:	460e      	mov	r6, r1
100030fa:	2900      	cmp	r1, #0
100030fc:	d03e      	beq.n	1000317c <tud_rhport_init+0x94>
100030fe:	2100      	movs	r1, #0
10003100:	2254      	movs	r2, #84	@ 0x54
10003102:	4607      	mov	r7, r0
10003104:	4829      	ldr	r0, [pc, #164]	@ (100031ac <tud_rhport_init+0xc4>)
10003106:	f002 f99b 	bl	10005440 <memset>
1000310a:	2200      	movs	r2, #0
1000310c:	4c28      	ldr	r4, [pc, #160]	@ (100031b0 <tud_rhport_init+0xc8>)
1000310e:	4b29      	ldr	r3, [pc, #164]	@ (100031b4 <tud_rhport_init+0xcc>)
10003110:	4620      	mov	r0, r4
10003112:	701a      	strb	r2, [r3, #0]
10003114:	f7fd ff94 	bl	10001040 <mutex_init>
10003118:	4b27      	ldr	r3, [pc, #156]	@ (100031b8 <tud_rhport_init+0xd0>)
1000311a:	4828      	ldr	r0, [pc, #160]	@ (100031bc <tud_rhport_init+0xd4>)
1000311c:	601c      	str	r4, [r3, #0]
1000311e:	4c28      	ldr	r4, [pc, #160]	@ (100031c0 <tud_rhport_init+0xd8>)
10003120:	f7fd ff9c 	bl	1000105c <critical_section_init>
10003124:	4620      	mov	r0, r4
10003126:	f001 fdab 	bl	10004c80 <tu_fifo_clear>
1000312a:	4a26      	ldr	r2, [pc, #152]	@ (100031c4 <tud_rhport_init+0xdc>)
1000312c:	4b26      	ldr	r3, [pc, #152]	@ (100031c8 <tud_rhport_init+0xe0>)
1000312e:	6014      	str	r4, [r2, #0]
10003130:	b123      	cbz	r3, 1000313c <tud_rhport_init+0x54>
10003132:	4826      	ldr	r0, [pc, #152]	@ (100031cc <tud_rhport_init+0xe4>)
10003134:	f7ff fac4 	bl	100026c0 <usbd_app_driver_get_cb>
10003138:	4b25      	ldr	r3, [pc, #148]	@ (100031d0 <tud_rhport_init+0xe8>)
1000313a:	6018      	str	r0, [r3, #0]
1000313c:	2400      	movs	r4, #0
1000313e:	4d23      	ldr	r5, [pc, #140]	@ (100031cc <tud_rhport_init+0xe4>)
10003140:	4623      	mov	r3, r4
10003142:	782a      	ldrb	r2, [r5, #0]
10003144:	f8df 9090 	ldr.w	r9, [pc, #144]	@ 100031d8 <tud_rhport_init+0xf0>
10003148:	f8df 8084 	ldr.w	r8, [pc, #132]	@ 100031d0 <tud_rhport_init+0xe8>
1000314c:	e00e      	b.n	1000316c <tud_rhport_init+0x84>
1000314e:	f8d8 3000 	ldr.w	r3, [r8]
10003152:	eb13 1344 	adds.w	r3, r3, r4, lsl #5
10003156:	d011      	beq.n	1000317c <tud_rhport_init+0x94>
10003158:	685b      	ldr	r3, [r3, #4]
1000315a:	b17b      	cbz	r3, 1000317c <tud_rhport_init+0x94>
1000315c:	4798      	blx	r3
1000315e:	782a      	ldrb	r2, [r5, #0]
10003160:	3401      	adds	r4, #1
10003162:	b2e4      	uxtb	r4, r4
10003164:	1c51      	adds	r1, r2, #1
10003166:	42a1      	cmp	r1, r4
10003168:	4623      	mov	r3, r4
1000316a:	db11      	blt.n	10003190 <tud_rhport_init+0xa8>
1000316c:	42a2      	cmp	r2, r4
1000316e:	d8ee      	bhi.n	1000314e <tud_rhport_init+0x66>
10003170:	1a9b      	subs	r3, r3, r2
10003172:	eb09 1343 	add.w	r3, r9, r3, lsl #5
10003176:	685b      	ldr	r3, [r3, #4]
10003178:	2b00      	cmp	r3, #0
1000317a:	d1ef      	bne.n	1000315c <tud_rhport_init+0x74>
1000317c:	f04f 23e0 	mov.w	r3, #3758153728	@ 0xe000e000
10003180:	f8d3 3df0 	ldr.w	r3, [r3, #3568]	@ 0xdf0
10003184:	07db      	lsls	r3, r3, #31
10003186:	d500      	bpl.n	1000318a <tud_rhport_init+0xa2>
10003188:	be00      	bkpt	0x0000
1000318a:	2000      	movs	r0, #0
1000318c:	e8bd 87f0 	ldmia.w	sp!, {r4, r5, r6, r7, r8, r9, sl, pc}
10003190:	4631      	mov	r1, r6
10003192:	4638      	mov	r0, r7
10003194:	f88a 7000 	strb.w	r7, [sl]
10003198:	f7ff fdd0 	bl	10002d3c <dcd_init>
1000319c:	2800      	cmp	r0, #0
1000319e:	d0ed      	beq.n	1000317c <tud_rhport_init+0x94>
100031a0:	4638      	mov	r0, r7
100031a2:	f7ff fe11 	bl	10002dc8 <dcd_int_enable>
100031a6:	2001      	movs	r0, #1
100031a8:	e8bd 87f0 	ldmia.w	sp!, {r4, r5, r6, r7, r8, r9, sl, pc}
100031ac:	20001d78 	.word	0x20001d78
100031b0:	20001d70 	.word	0x20001d70
100031b4:	20002897 	.word	0x20002897
100031b8:	20001dcc 	.word	0x20001dcc
100031bc:	20001338 	.word	0x20001338
100031c0:	20001324 	.word	0x20001324
100031c4:	20001dd0 	.word	0x20001dd0
100031c8:	100026c1 	.word	0x100026c1
100031cc:	20002895 	.word	0x20002895
100031d0:	20001ba8 	.word	0x20001ba8
100031d4:	20001340 	.word	0x20001340
100031d8:	10005d7c 	.word	0x10005d7c

100031dc <tud_task_ext>:
100031dc:	e92d 4ff0 	stmdb	sp!, {r4, r5, r6, r7, r8, r9, sl, fp, lr}
100031e0:	f8df 92c8 	ldr.w	r9, [pc, #712]	@ 100034ac <tud_task_ext+0x2d0>
100031e4:	b08b      	sub	sp, #44	@ 0x2c
100031e6:	f899 3000 	ldrb.w	r3, [r9]
100031ea:	2bff      	cmp	r3, #255	@ 0xff
100031ec:	f000 80f1 	beq.w	100033d2 <tud_task_ext+0x1f6>
100031f0:	4ca8      	ldr	r4, [pc, #672]	@ (10003494 <tud_task_ext+0x2b8>)
100031f2:	4da9      	ldr	r5, [pc, #676]	@ (10003498 <tud_task_ext+0x2bc>)
100031f4:	f8df a2b0 	ldr.w	sl, [pc, #688]	@ 100034a8 <tud_task_ext+0x2cc>
100031f8:	f8df b2b4 	ldr.w	fp, [pc, #692]	@ 100034b0 <tud_task_ext+0x2d4>
100031fc:	6826      	ldr	r6, [r4, #0]
100031fe:	6973      	ldr	r3, [r6, #20]
10003200:	f3ef 8210 	mrs	r2, PRIMASK
10003204:	b672      	cpsid	i
10003206:	e8d3 0fcf 	ldaexb	r0, [r3]
1000320a:	2101      	movs	r1, #1
1000320c:	2800      	cmp	r0, #0
1000320e:	d1fa      	bne.n	10003206 <tud_task_ext+0x2a>
10003210:	e8c3 1f40 	strexb	r0, r1, [r3]
10003214:	2800      	cmp	r0, #0
10003216:	d1f6      	bne.n	10003206 <tud_task_ext+0x2a>
10003218:	f3bf 8f5f 	dmb	sy
1000321c:	61b2      	str	r2, [r6, #24]
1000321e:	4630      	mov	r0, r6
10003220:	a907      	add	r1, sp, #28
10003222:	f001 fb77 	bl	10004914 <tu_fifo_read>
10003226:	2300      	movs	r3, #0
10003228:	6972      	ldr	r2, [r6, #20]
1000322a:	e8c2 3f8f 	stlb	r3, [r2]
1000322e:	69b3      	ldr	r3, [r6, #24]
10003230:	f383 8810 	msr	PRIMASK, r3
10003234:	2800      	cmp	r0, #0
10003236:	f000 80cc 	beq.w	100033d2 <tud_task_ext+0x1f6>
1000323a:	f89d 301d 	ldrb.w	r3, [sp, #29]
1000323e:	3b01      	subs	r3, #1
10003240:	2b07      	cmp	r3, #7
10003242:	f200 837d 	bhi.w	10003940 <tud_task_ext+0x764>
10003246:	e8df f003 	tbb	[pc, r3]
1000324a:	b1a7      	.short	0xb1a7
1000324c:	358e9d95 	.word	0x358e9d95
10003250:	040a      	.short	0x040a
10003252:	9b08      	ldr	r3, [sp, #32]
10003254:	2b00      	cmp	r3, #0
10003256:	d0d1      	beq.n	100031fc <tud_task_ext+0x20>
10003258:	9809      	ldr	r0, [sp, #36]	@ 0x24
1000325a:	4798      	blx	r3
1000325c:	e7ce      	b.n	100031fc <tud_task_ext+0x20>
1000325e:	f89d 1020 	ldrb.w	r1, [sp, #32]
10003262:	f001 067f 	and.w	r6, r1, #127	@ 0x7f
10003266:	eb05 0046 	add.w	r0, r5, r6, lsl #1
1000326a:	eb00 10d1 	add.w	r0, r0, r1, lsr #7
1000326e:	f890 3034 	ldrb.w	r3, [r0, #52]	@ 0x34
10003272:	f023 0301 	bic.w	r3, r3, #1
10003276:	f880 3034 	strb.w	r3, [r0, #52]	@ 0x34
1000327a:	f890 3034 	ldrb.w	r3, [r0, #52]	@ 0x34
1000327e:	f023 0304 	bic.w	r3, r3, #4
10003282:	f880 3034 	strb.w	r3, [r0, #52]	@ 0x34
10003286:	2e00      	cmp	r6, #0
10003288:	f000 80a6 	beq.w	100033d8 <tud_task_ext+0x1fc>
1000328c:	7d03      	ldrb	r3, [r0, #20]
1000328e:	f89a 2000 	ldrb.w	r2, [sl]
10003292:	4293      	cmp	r3, r2
10003294:	f080 8093 	bcs.w	100033be <tud_task_ext+0x1e2>
10003298:	4a80      	ldr	r2, [pc, #512]	@ (1000349c <tud_task_ext+0x2c0>)
1000329a:	6812      	ldr	r2, [r2, #0]
1000329c:	eb12 1343 	adds.w	r3, r2, r3, lsl #5
100032a0:	f000 8090 	beq.w	100033c4 <tud_task_ext+0x1e8>
100032a4:	699e      	ldr	r6, [r3, #24]
100032a6:	f89d 2021 	ldrb.w	r2, [sp, #33]	@ 0x21
100032aa:	9b09      	ldr	r3, [sp, #36]	@ 0x24
100032ac:	f89d 001c 	ldrb.w	r0, [sp, #28]
100032b0:	47b0      	blx	r6
100032b2:	e7a3      	b.n	100031fc <tud_task_ext+0x20>
100032b4:	f89b 3000 	ldrb.w	r3, [fp]
100032b8:	2b00      	cmp	r3, #0
100032ba:	f000 8083 	beq.w	100033c4 <tud_task_ext+0x1e8>
100032be:	f89b 3000 	ldrb.w	r3, [fp]
100032c2:	3b01      	subs	r3, #1
100032c4:	b2db      	uxtb	r3, r3
100032c6:	f88b 3000 	strb.w	r3, [fp]
100032ca:	f89b 3000 	ldrb.w	r3, [fp]
100032ce:	f003 00ff 	and.w	r0, r3, #255	@ 0xff
100032d2:	2b00      	cmp	r3, #0
100032d4:	d192      	bne.n	100031fc <tud_task_ext+0x20>
100032d6:	4f70      	ldr	r7, [pc, #448]	@ (10003498 <tud_task_ext+0x2bc>)
100032d8:	f89d 801c 	ldrb.w	r8, [sp, #28]
100032dc:	783b      	ldrb	r3, [r7, #0]
100032de:	f043 0301 	orr.w	r3, r3, #1
100032e2:	703b      	strb	r3, [r7, #0]
100032e4:	f897 3034 	ldrb.w	r3, [r7, #52]	@ 0x34
100032e8:	f360 0300 	bfi	r3, r0, #0, #1
100032ec:	f887 3034 	strb.w	r3, [r7, #52]	@ 0x34
100032f0:	f897 3034 	ldrb.w	r3, [r7, #52]	@ 0x34
100032f4:	f360 0382 	bfi	r3, r0, #2, #1
100032f8:	f887 3034 	strb.w	r3, [r7, #52]	@ 0x34
100032fc:	f897 3035 	ldrb.w	r3, [r7, #53]	@ 0x35
10003300:	f360 0300 	bfi	r3, r0, #0, #1
10003304:	f887 3035 	strb.w	r3, [r7, #53]	@ 0x35
10003308:	f897 3035 	ldrb.w	r3, [r7, #53]	@ 0x35
1000330c:	f360 0382 	bfi	r3, r0, #2, #1
10003310:	f887 3035 	strb.w	r3, [r7, #53]	@ 0x35
10003314:	f000 fc6c 	bl	10003bf0 <usbd_control_set_complete_callback>
10003318:	f89d 3020 	ldrb.w	r3, [sp, #32]
1000331c:	f003 0260 	and.w	r2, r3, #96	@ 0x60
10003320:	2a60      	cmp	r2, #96	@ 0x60
10003322:	d06c      	beq.n	100033fe <tud_task_ext+0x222>
10003324:	2a40      	cmp	r2, #64	@ 0x40
10003326:	d07c      	beq.n	10003422 <tud_task_ext+0x246>
10003328:	f003 031f 	and.w	r3, r3, #31
1000332c:	2b01      	cmp	r3, #1
1000332e:	f000 80c1 	beq.w	100034b4 <tud_task_ext+0x2d8>
10003332:	2b02      	cmp	r3, #2
10003334:	f000 8081 	beq.w	1000343a <tud_task_ext+0x25e>
10003338:	2b00      	cmp	r3, #0
1000333a:	d160      	bne.n	100033fe <tud_task_ext+0x222>
1000333c:	2a20      	cmp	r2, #32
1000333e:	f000 81e9 	beq.w	10003714 <tud_task_ext+0x538>
10003342:	2a00      	cmp	r2, #0
10003344:	d15b      	bne.n	100033fe <tud_task_ext+0x222>
10003346:	f89d 3021 	ldrb.w	r3, [sp, #33]	@ 0x21
1000334a:	2b09      	cmp	r3, #9
1000334c:	d857      	bhi.n	100033fe <tud_task_ext+0x222>
1000334e:	e8df f013 	tbh	[pc, r3, lsl #1]
10003352:	01b0      	.short	0x01b0
10003354:	005601a2 	.word	0x005601a2
10003358:	005601c1 	.word	0x005601c1
1000335c:	016b0195 	.word	0x016b0195
10003360:	01600056 	.word	0x01600056
10003364:	00f4      	.short	0x00f4
10003366:	782b      	ldrb	r3, [r5, #0]
10003368:	07d9      	lsls	r1, r3, #31
1000336a:	f57f af47 	bpl.w	100031fc <tud_task_ext+0x20>
1000336e:	f7ff fea9 	bl	100030c4 <tud_resume_cb>
10003372:	e743      	b.n	100031fc <tud_task_ext+0x20>
10003374:	78eb      	ldrb	r3, [r5, #3]
10003376:	07da      	lsls	r2, r3, #31
10003378:	f57f af40 	bpl.w	100031fc <tud_task_ext+0x20>
1000337c:	9808      	ldr	r0, [sp, #32]
1000337e:	f7ff fe95 	bl	100030ac <tud_sof_cb>
10003382:	e73b      	b.n	100031fc <tud_task_ext+0x20>
10003384:	782b      	ldrb	r3, [r5, #0]
10003386:	07d8      	lsls	r0, r3, #31
10003388:	f57f af38 	bpl.w	100031fc <tud_task_ext+0x20>
1000338c:	7828      	ldrb	r0, [r5, #0]
1000338e:	f3c0 00c0 	ubfx	r0, r0, #3, #1
10003392:	f7ff fe95 	bl	100030c0 <tud_suspend_cb>
10003396:	e731      	b.n	100031fc <tud_task_ext+0x20>
10003398:	f89d 001c 	ldrb.w	r0, [sp, #28]
1000339c:	f7ff fe3e 	bl	1000301c <configuration_reset>
100033a0:	f000 fc1c 	bl	10003bdc <usbd_control_reset>
100033a4:	f89d 3020 	ldrb.w	r3, [sp, #32]
100033a8:	70ab      	strb	r3, [r5, #2]
100033aa:	e727      	b.n	100031fc <tud_task_ext+0x20>
100033ac:	f89d 001c 	ldrb.w	r0, [sp, #28]
100033b0:	f7ff fe34 	bl	1000301c <configuration_reset>
100033b4:	f000 fc12 	bl	10003bdc <usbd_control_reset>
100033b8:	f7ff fe80 	bl	100030bc <tud_umount_cb>
100033bc:	e71e      	b.n	100031fc <tud_task_ext+0x20>
100033be:	1c50      	adds	r0, r2, #1
100033c0:	4298      	cmp	r0, r3
100033c2:	da11      	bge.n	100033e8 <tud_task_ext+0x20c>
100033c4:	f04f 23e0 	mov.w	r3, #3758153728	@ 0xe000e000
100033c8:	f8d3 3df0 	ldr.w	r3, [r3, #3568]	@ 0xdf0
100033cc:	07dc      	lsls	r4, r3, #31
100033ce:	d500      	bpl.n	100033d2 <tud_task_ext+0x1f6>
100033d0:	be00      	bkpt	0x0000
100033d2:	b00b      	add	sp, #44	@ 0x2c
100033d4:	e8bd 8ff0 	ldmia.w	sp!, {r4, r5, r6, r7, r8, r9, sl, fp, pc}
100033d8:	9b09      	ldr	r3, [sp, #36]	@ 0x24
100033da:	f89d 2021 	ldrb.w	r2, [sp, #33]	@ 0x21
100033de:	f89d 001c 	ldrb.w	r0, [sp, #28]
100033e2:	f000 fc19 	bl	10003c18 <usbd_control_xfer_cb>
100033e6:	e709      	b.n	100031fc <tud_task_ext+0x20>
100033e8:	1a9b      	subs	r3, r3, r2
100033ea:	4a2d      	ldr	r2, [pc, #180]	@ (100034a0 <tud_task_ext+0x2c4>)
100033ec:	eb02 1343 	add.w	r3, r2, r3, lsl #5
100033f0:	e758      	b.n	100032a4 <tud_task_ext+0xc8>
100033f2:	f7ff fb8d 	bl	10002b10 <tud_descriptor_configuration_cb>
100033f6:	4602      	mov	r2, r0
100033f8:	2800      	cmp	r0, #0
100033fa:	f040 8182 	bne.w	10003702 <tud_task_ext+0x526>
100033fe:	f04f 23e0 	mov.w	r3, #3758153728	@ 0xe000e000
10003402:	f8d3 3df0 	ldr.w	r3, [r3, #3568]	@ 0xdf0
10003406:	07de      	lsls	r6, r3, #31
10003408:	d500      	bpl.n	1000340c <tud_task_ext+0x230>
1000340a:	be00      	bkpt	0x0000
1000340c:	f89d 001c 	ldrb.w	r0, [sp, #28]
10003410:	2100      	movs	r1, #0
10003412:	f7ff fd99 	bl	10002f48 <dcd_edpt_stall>
10003416:	2180      	movs	r1, #128	@ 0x80
10003418:	f89d 001c 	ldrb.w	r0, [sp, #28]
1000341c:	f7ff fd94 	bl	10002f48 <dcd_edpt_stall>
10003420:	e6ec      	b.n	100031fc <tud_task_ext+0x20>
10003422:	4820      	ldr	r0, [pc, #128]	@ (100034a4 <tud_task_ext+0x2c8>)
10003424:	f000 fbe4 	bl	10003bf0 <usbd_control_set_complete_callback>
10003428:	2101      	movs	r1, #1
1000342a:	4640      	mov	r0, r8
1000342c:	aa08      	add	r2, sp, #32
1000342e:	f7ff f933 	bl	10002698 <tud_vendor_control_xfer_cb>
10003432:	2800      	cmp	r0, #0
10003434:	f47f aee2 	bne.w	100031fc <tud_task_ext+0x20>
10003438:	e7e8      	b.n	1000340c <tud_task_ext+0x230>
1000343a:	f89d 1024 	ldrb.w	r1, [sp, #36]	@ 0x24
1000343e:	f011 0f70 	tst.w	r1, #112	@ 0x70
10003442:	d1dc      	bne.n	100033fe <tud_task_ext+0x222>
10003444:	f001 067f 	and.w	r6, r1, #127	@ 0x7f
10003448:	eb07 0046 	add.w	r0, r7, r6, lsl #1
1000344c:	4b16      	ldr	r3, [pc, #88]	@ (100034a8 <tud_task_ext+0x2cc>)
1000344e:	eb00 10d1 	add.w	r0, r0, r1, lsr #7
10003452:	781b      	ldrb	r3, [r3, #0]
10003454:	7d00      	ldrb	r0, [r0, #20]
10003456:	0076      	lsls	r6, r6, #1
10003458:	9601      	str	r6, [sp, #4]
1000345a:	4298      	cmp	r0, r3
1000345c:	ea4f 16d1 	mov.w	r6, r1, lsr #7
10003460:	9600      	str	r6, [sp, #0]
10003462:	d359      	bcc.n	10003518 <tud_task_ext+0x33c>
10003464:	1c5e      	adds	r6, r3, #1
10003466:	4286      	cmp	r6, r0
10003468:	f2c0 8166 	blt.w	10003738 <tud_task_ext+0x55c>
1000346c:	1ac0      	subs	r0, r0, r3
1000346e:	4b0c      	ldr	r3, [pc, #48]	@ (100034a0 <tud_task_ext+0x2c4>)
10003470:	eb03 1640 	add.w	r6, r3, r0, lsl #5
10003474:	2a00      	cmp	r2, #0
10003476:	f000 8163 	beq.w	10003740 <tud_task_ext+0x564>
1000347a:	6970      	ldr	r0, [r6, #20]
1000347c:	f000 fbb8 	bl	10003bf0 <usbd_control_set_complete_callback>
10003480:	2101      	movs	r1, #1
10003482:	4640      	mov	r0, r8
10003484:	6973      	ldr	r3, [r6, #20]
10003486:	aa08      	add	r2, sp, #32
10003488:	4798      	blx	r3
1000348a:	2800      	cmp	r0, #0
1000348c:	f47f aeb6 	bne.w	100031fc <tud_task_ext+0x20>
10003490:	e7bc      	b.n	1000340c <tud_task_ext+0x230>
10003492:	bf00      	nop
10003494:	20001dd0 	.word	0x20001dd0
10003498:	20001d78 	.word	0x20001d78
1000349c:	20001ba8 	.word	0x20001ba8
100034a0:	10005d7c 	.word	0x10005d7c
100034a4:	10002699 	.word	0x10002699
100034a8:	20002895 	.word	0x20002895
100034ac:	20001340 	.word	0x20001340
100034b0:	20002897 	.word	0x20002897
100034b4:	f89d 3024 	ldrb.w	r3, [sp, #36]	@ 0x24
100034b8:	2b0f      	cmp	r3, #15
100034ba:	d8a7      	bhi.n	1000340c <tud_task_ext+0x230>
100034bc:	4aae      	ldr	r2, [pc, #696]	@ (10003778 <tud_task_ext+0x59c>)
100034be:	443b      	add	r3, r7
100034c0:	791b      	ldrb	r3, [r3, #4]
100034c2:	7812      	ldrb	r2, [r2, #0]
100034c4:	4293      	cmp	r3, r2
100034c6:	d332      	bcc.n	1000352e <tud_task_ext+0x352>
100034c8:	1c51      	adds	r1, r2, #1
100034ca:	4299      	cmp	r1, r3
100034cc:	db9e      	blt.n	1000340c <tud_task_ext+0x230>
100034ce:	4eab      	ldr	r6, [pc, #684]	@ (1000377c <tud_task_ext+0x5a0>)
100034d0:	1a9b      	subs	r3, r3, r2
100034d2:	eb06 1643 	add.w	r6, r6, r3, lsl #5
100034d6:	6970      	ldr	r0, [r6, #20]
100034d8:	f000 fb8a 	bl	10003bf0 <usbd_control_set_complete_callback>
100034dc:	2101      	movs	r1, #1
100034de:	4640      	mov	r0, r8
100034e0:	6973      	ldr	r3, [r6, #20]
100034e2:	aa08      	add	r2, sp, #32
100034e4:	4798      	blx	r3
100034e6:	2800      	cmp	r0, #0
100034e8:	f47f ae88 	bne.w	100031fc <tud_task_ext+0x20>
100034ec:	f89d 3020 	ldrb.w	r3, [sp, #32]
100034f0:	f013 0660 	ands.w	r6, r3, #96	@ 0x60
100034f4:	d18a      	bne.n	1000340c <tud_task_ext+0x230>
100034f6:	f89d 3021 	ldrb.w	r3, [sp, #33]	@ 0x21
100034fa:	3b0a      	subs	r3, #10
100034fc:	2b01      	cmp	r3, #1
100034fe:	d885      	bhi.n	1000340c <tud_task_ext+0x230>
10003500:	f000 fb76 	bl	10003bf0 <usbd_control_set_complete_callback>
10003504:	f89d 3021 	ldrb.w	r3, [sp, #33]	@ 0x21
10003508:	2b0a      	cmp	r3, #10
1000350a:	f000 81f2 	beq.w	100038f2 <tud_task_ext+0x716>
1000350e:	4640      	mov	r0, r8
10003510:	a908      	add	r1, sp, #32
10003512:	f000 faf1 	bl	10003af8 <tud_control_status>
10003516:	e671      	b.n	100031fc <tud_task_ext+0x20>
10003518:	4b99      	ldr	r3, [pc, #612]	@ (10003780 <tud_task_ext+0x5a4>)
1000351a:	681b      	ldr	r3, [r3, #0]
1000351c:	eb03 1640 	add.w	r6, r3, r0, lsl #5
10003520:	2a00      	cmp	r2, #0
10003522:	f000 810d 	beq.w	10003740 <tud_task_ext+0x564>
10003526:	2e00      	cmp	r6, #0
10003528:	f43f af70 	beq.w	1000340c <tud_task_ext+0x230>
1000352c:	e7a5      	b.n	1000347a <tud_task_ext+0x29e>
1000352e:	4a94      	ldr	r2, [pc, #592]	@ (10003780 <tud_task_ext+0x5a4>)
10003530:	6816      	ldr	r6, [r2, #0]
10003532:	eb16 1643 	adds.w	r6, r6, r3, lsl #5
10003536:	d1ce      	bne.n	100034d6 <tud_task_ext+0x2fa>
10003538:	e768      	b.n	1000340c <tud_task_ext+0x230>
1000353a:	787b      	ldrb	r3, [r7, #1]
1000353c:	f89d 6022 	ldrb.w	r6, [sp, #34]	@ 0x22
10003540:	429e      	cmp	r6, r3
10003542:	f000 814f 	beq.w	100037e4 <tud_task_ext+0x608>
10003546:	787b      	ldrb	r3, [r7, #1]
10003548:	2b00      	cmp	r3, #0
1000354a:	f040 81be 	bne.w	100038ca <tud_task_ext+0x6ee>
1000354e:	707e      	strb	r6, [r7, #1]
10003550:	2e00      	cmp	r6, #0
10003552:	f000 8145 	beq.w	100037e0 <tud_task_ext+0x604>
10003556:	1e70      	subs	r0, r6, #1
10003558:	b2c0      	uxtb	r0, r0
1000355a:	f7ff fad9 	bl	10002b10 <tud_descriptor_configuration_cb>
1000355e:	4603      	mov	r3, r0
10003560:	2800      	cmp	r0, #0
10003562:	f000 815f 	beq.w	10003824 <tud_task_ext+0x648>
10003566:	7842      	ldrb	r2, [r0, #1]
10003568:	2a02      	cmp	r2, #2
1000356a:	f040 815b 	bne.w	10003824 <tud_task_ext+0x648>
1000356e:	79c1      	ldrb	r1, [r0, #7]
10003570:	f103 0609 	add.w	r6, r3, #9
10003574:	f3c1 1240 	ubfx	r2, r1, #5, #1
10003578:	0112      	lsls	r2, r2, #4
1000357a:	f3c1 1180 	ubfx	r1, r1, #6, #1
1000357e:	ea42 1241 	orr.w	r2, r2, r1, lsl #5
10003582:	4631      	mov	r1, r6
10003584:	7838      	ldrb	r0, [r7, #0]
10003586:	f020 0030 	bic.w	r0, r0, #48	@ 0x30
1000358a:	4302      	orrs	r2, r0
1000358c:	703a      	strb	r2, [r7, #0]
1000358e:	885a      	ldrh	r2, [r3, #2]
10003590:	f8cd 800c 	str.w	r8, [sp, #12]
10003594:	189a      	adds	r2, r3, r2
10003596:	9201      	str	r2, [sp, #4]
10003598:	9b01      	ldr	r3, [sp, #4]
1000359a:	428b      	cmp	r3, r1
1000359c:	f240 81a4 	bls.w	100038e8 <tud_task_ext+0x70c>
100035a0:	784a      	ldrb	r2, [r1, #1]
100035a2:	2a0b      	cmp	r2, #11
100035a4:	f000 81af 	beq.w	10003906 <tud_task_ext+0x72a>
100035a8:	2301      	movs	r3, #1
100035aa:	2a04      	cmp	r2, #4
100035ac:	f040 813a 	bne.w	10003824 <tud_task_ext+0x648>
100035b0:	2600      	movs	r6, #0
100035b2:	9a01      	ldr	r2, [sp, #4]
100035b4:	9600      	str	r6, [sp, #0]
100035b6:	1a52      	subs	r2, r2, r1
100035b8:	b292      	uxth	r2, r2
100035ba:	9202      	str	r2, [sp, #8]
100035bc:	4a6e      	ldr	r2, [pc, #440]	@ (10003778 <tud_task_ext+0x59c>)
100035be:	9304      	str	r3, [sp, #16]
100035c0:	7812      	ldrb	r2, [r2, #0]
100035c2:	e01d      	b.n	10003600 <tud_task_ext+0x424>
100035c4:	4b6e      	ldr	r3, [pc, #440]	@ (10003780 <tud_task_ext+0x5a4>)
100035c6:	681b      	ldr	r3, [r3, #0]
100035c8:	eb13 1846 	adds.w	r8, r3, r6, lsl #5
100035cc:	f000 812a 	beq.w	10003824 <tud_task_ext+0x648>
100035d0:	9a02      	ldr	r2, [sp, #8]
100035d2:	f8d8 3010 	ldr.w	r3, [r8, #16]
100035d6:	9803      	ldr	r0, [sp, #12]
100035d8:	9105      	str	r1, [sp, #20]
100035da:	4798      	blx	r3
100035dc:	2808      	cmp	r0, #8
100035de:	4602      	mov	r2, r0
100035e0:	9905      	ldr	r1, [sp, #20]
100035e2:	f106 0301 	add.w	r3, r6, #1
100035e6:	d903      	bls.n	100035f0 <tud_task_ext+0x414>
100035e8:	9802      	ldr	r0, [sp, #8]
100035ea:	4290      	cmp	r0, r2
100035ec:	f080 80ff 	bcs.w	100037ee <tud_task_ext+0x612>
100035f0:	b2de      	uxtb	r6, r3
100035f2:	4b61      	ldr	r3, [pc, #388]	@ (10003778 <tud_task_ext+0x59c>)
100035f4:	9600      	str	r6, [sp, #0]
100035f6:	781a      	ldrb	r2, [r3, #0]
100035f8:	1c53      	adds	r3, r2, #1
100035fa:	429e      	cmp	r6, r3
100035fc:	f300 8112 	bgt.w	10003824 <tud_task_ext+0x648>
10003600:	9b00      	ldr	r3, [sp, #0]
10003602:	42b2      	cmp	r2, r6
10003604:	eba3 0202 	sub.w	r2, r3, r2
10003608:	d8dc      	bhi.n	100035c4 <tud_task_ext+0x3e8>
1000360a:	4b5c      	ldr	r3, [pc, #368]	@ (1000377c <tud_task_ext+0x5a0>)
1000360c:	eb03 1842 	add.w	r8, r3, r2, lsl #5
10003610:	e7de      	b.n	100035d0 <tud_task_ext+0x3f4>
10003612:	787b      	ldrb	r3, [r7, #1]
10003614:	4640      	mov	r0, r8
10003616:	f88d 301a 	strb.w	r3, [sp, #26]
1000361a:	f10d 021a 	add.w	r2, sp, #26
1000361e:	2301      	movs	r3, #1
10003620:	a908      	add	r1, sp, #32
10003622:	f000 fa83 	bl	10003b2c <tud_control_xfer>
10003626:	e5e9      	b.n	100031fc <tud_task_ext+0x20>
10003628:	f8bd 0022 	ldrh.w	r0, [sp, #34]	@ 0x22
1000362c:	0a03      	lsrs	r3, r0, #8
1000362e:	3b01      	subs	r3, #1
10003630:	0a02      	lsrs	r2, r0, #8
10003632:	b2c0      	uxtb	r0, r0
10003634:	2b0e      	cmp	r3, #14
10003636:	f63f aee9 	bhi.w	1000340c <tud_task_ext+0x230>
1000363a:	a101      	add	r1, pc, #4	@ (adr r1, 10003640 <tud_task_ext+0x464>)
1000363c:	f851 f023 	ldr.w	pc, [r1, r3, lsl #2]
10003640:	10003855 	.word	0x10003855
10003644:	100036f1 	.word	0x100036f1
10003648:	10003891 	.word	0x10003891
1000364c:	1000340d 	.word	0x1000340d
10003650:	1000340d 	.word	0x1000340d
10003654:	10003873 	.word	0x10003873
10003658:	100036f1 	.word	0x100036f1
1000365c:	1000340d 	.word	0x1000340d
10003660:	1000340d 	.word	0x1000340d
10003664:	1000340d 	.word	0x1000340d
10003668:	1000340d 	.word	0x1000340d
1000366c:	1000340d 	.word	0x1000340d
10003670:	1000340d 	.word	0x1000340d
10003674:	1000340d 	.word	0x1000340d
10003678:	10003847 	.word	0x10003847
1000367c:	a808      	add	r0, sp, #32
1000367e:	f000 fabd 	bl	10003bfc <usbd_control_set_request>
10003682:	4640      	mov	r0, r8
10003684:	f89d 1022 	ldrb.w	r1, [sp, #34]	@ 0x22
10003688:	f7ff fba2 	bl	10002dd0 <dcd_set_address>
1000368c:	783b      	ldrb	r3, [r7, #0]
1000368e:	f043 0302 	orr.w	r3, r3, #2
10003692:	703b      	strb	r3, [r7, #0]
10003694:	e5b2      	b.n	100031fc <tud_task_ext+0x20>
10003696:	f8bd 3022 	ldrh.w	r3, [sp, #34]	@ 0x22
1000369a:	2b01      	cmp	r3, #1
1000369c:	f47f aeb6 	bne.w	1000340c <tud_task_ext+0x230>
100036a0:	783b      	ldrb	r3, [r7, #0]
100036a2:	4640      	mov	r0, r8
100036a4:	f023 0308 	bic.w	r3, r3, #8
100036a8:	a908      	add	r1, sp, #32
100036aa:	703b      	strb	r3, [r7, #0]
100036ac:	f000 fa24 	bl	10003af8 <tud_control_status>
100036b0:	e5a4      	b.n	100031fc <tud_task_ext+0x20>
100036b2:	4640      	mov	r0, r8
100036b4:	783b      	ldrb	r3, [r7, #0]
100036b6:	089a      	lsrs	r2, r3, #2
100036b8:	f002 0202 	and.w	r2, r2, #2
100036bc:	f3c3 1340 	ubfx	r3, r3, #5, #1
100036c0:	4313      	orrs	r3, r2
100036c2:	f8ad 301a 	strh.w	r3, [sp, #26]
100036c6:	f10d 021a 	add.w	r2, sp, #26
100036ca:	2302      	movs	r3, #2
100036cc:	a908      	add	r1, sp, #32
100036ce:	f000 fa2d 	bl	10003b2c <tud_control_xfer>
100036d2:	e593      	b.n	100031fc <tud_task_ext+0x20>
100036d4:	f8bd 3022 	ldrh.w	r3, [sp, #34]	@ 0x22
100036d8:	2b01      	cmp	r3, #1
100036da:	f47f ae97 	bne.w	1000340c <tud_task_ext+0x230>
100036de:	783b      	ldrb	r3, [r7, #0]
100036e0:	4640      	mov	r0, r8
100036e2:	f043 0308 	orr.w	r3, r3, #8
100036e6:	a908      	add	r1, sp, #32
100036e8:	703b      	strb	r3, [r7, #0]
100036ea:	f000 fa05 	bl	10003af8 <tud_control_status>
100036ee:	e585      	b.n	100031fc <tud_task_ext+0x20>
100036f0:	2a02      	cmp	r2, #2
100036f2:	f43f ae7e 	beq.w	100033f2 <tud_task_ext+0x216>
100036f6:	f7ff fcdd 	bl	100030b4 <tud_descriptor_other_speed_configuration_cb>
100036fa:	4602      	mov	r2, r0
100036fc:	2800      	cmp	r0, #0
100036fe:	f43f ae85 	beq.w	1000340c <tud_task_ext+0x230>
10003702:	4640      	mov	r0, r8
10003704:	8853      	ldrh	r3, [r2, #2]
10003706:	a908      	add	r1, sp, #32
10003708:	f000 fa10 	bl	10003b2c <tud_control_xfer>
1000370c:	2800      	cmp	r0, #0
1000370e:	f47f ad75 	bne.w	100031fc <tud_task_ext+0x20>
10003712:	e67b      	b.n	1000340c <tud_task_ext+0x230>
10003714:	f89d 3024 	ldrb.w	r3, [sp, #36]	@ 0x24
10003718:	2b0f      	cmp	r3, #15
1000371a:	f63f ae77 	bhi.w	1000340c <tud_task_ext+0x230>
1000371e:	4a16      	ldr	r2, [pc, #88]	@ (10003778 <tud_task_ext+0x59c>)
10003720:	443b      	add	r3, r7
10003722:	791b      	ldrb	r3, [r3, #4]
10003724:	7812      	ldrb	r2, [r2, #0]
10003726:	4293      	cmp	r3, r2
10003728:	d21d      	bcs.n	10003766 <tud_task_ext+0x58a>
1000372a:	4a15      	ldr	r2, [pc, #84]	@ (10003780 <tud_task_ext+0x5a4>)
1000372c:	6816      	ldr	r6, [r2, #0]
1000372e:	eb16 1643 	adds.w	r6, r6, r3, lsl #5
10003732:	f47f aea2 	bne.w	1000347a <tud_task_ext+0x29e>
10003736:	e669      	b.n	1000340c <tud_task_ext+0x230>
10003738:	2a00      	cmp	r2, #0
1000373a:	f47f ae67 	bne.w	1000340c <tud_task_ext+0x230>
1000373e:	2600      	movs	r6, #0
10003740:	f89d 2021 	ldrb.w	r2, [sp, #33]	@ 0x21
10003744:	f002 03fd 	and.w	r3, r2, #253	@ 0xfd
10003748:	2b01      	cmp	r3, #1
1000374a:	d01b      	beq.n	10003784 <tud_task_ext+0x5a8>
1000374c:	2a00      	cmp	r2, #0
1000374e:	f47f ae56 	bne.w	100033fe <tud_task_ext+0x222>
10003752:	9b01      	ldr	r3, [sp, #4]
10003754:	9a00      	ldr	r2, [sp, #0]
10003756:	443b      	add	r3, r7
10003758:	4413      	add	r3, r2
1000375a:	f893 3034 	ldrb.w	r3, [r3, #52]	@ 0x34
1000375e:	4640      	mov	r0, r8
10003760:	f3c3 0340 	ubfx	r3, r3, #1, #1
10003764:	e7ad      	b.n	100036c2 <tud_task_ext+0x4e6>
10003766:	1c51      	adds	r1, r2, #1
10003768:	4299      	cmp	r1, r3
1000376a:	f6ff ae4f 	blt.w	1000340c <tud_task_ext+0x230>
1000376e:	4e03      	ldr	r6, [pc, #12]	@ (1000377c <tud_task_ext+0x5a0>)
10003770:	1a9b      	subs	r3, r3, r2
10003772:	eb06 1643 	add.w	r6, r6, r3, lsl #5
10003776:	e680      	b.n	1000347a <tud_task_ext+0x29e>
10003778:	20002895 	.word	0x20002895
1000377c:	10005d7c 	.word	0x10005d7c
10003780:	20001ba8 	.word	0x20001ba8
10003784:	f8bd 3022 	ldrh.w	r3, [sp, #34]	@ 0x22
10003788:	b9b3      	cbnz	r3, 100037b8 <tud_task_ext+0x5dc>
1000378a:	2a01      	cmp	r2, #1
1000378c:	f899 0000 	ldrb.w	r0, [r9]
10003790:	f000 8086 	beq.w	100038a0 <tud_task_ext+0x6c4>
10003794:	f7ff fbd8 	bl	10002f48 <dcd_edpt_stall>
10003798:	9b01      	ldr	r3, [sp, #4]
1000379a:	9a00      	ldr	r2, [sp, #0]
1000379c:	443b      	add	r3, r7
1000379e:	4413      	add	r3, r2
100037a0:	f893 2034 	ldrb.w	r2, [r3, #52]	@ 0x34
100037a4:	f042 0202 	orr.w	r2, r2, #2
100037a8:	f883 2034 	strb.w	r2, [r3, #52]	@ 0x34
100037ac:	f893 2034 	ldrb.w	r2, [r3, #52]	@ 0x34
100037b0:	f042 0201 	orr.w	r2, r2, #1
100037b4:	f883 2034 	strb.w	r2, [r3, #52]	@ 0x34
100037b8:	2e00      	cmp	r6, #0
100037ba:	f43f ad1f 	beq.w	100031fc <tud_task_ext+0x20>
100037be:	6970      	ldr	r0, [r6, #20]
100037c0:	f000 fa16 	bl	10003bf0 <usbd_control_set_complete_callback>
100037c4:	6973      	ldr	r3, [r6, #20]
100037c6:	2101      	movs	r1, #1
100037c8:	aa08      	add	r2, sp, #32
100037ca:	4640      	mov	r0, r8
100037cc:	4798      	blx	r3
100037ce:	2000      	movs	r0, #0
100037d0:	f000 fa0e 	bl	10003bf0 <usbd_control_set_complete_callback>
100037d4:	f897 3035 	ldrb.w	r3, [r7, #53]	@ 0x35
100037d8:	07df      	lsls	r7, r3, #31
100037da:	f53f ad0f 	bmi.w	100031fc <tud_task_ext+0x20>
100037de:	e696      	b.n	1000350e <tud_task_ext+0x332>
100037e0:	f7ff fc6c 	bl	100030bc <tud_umount_cb>
100037e4:	4640      	mov	r0, r8
100037e6:	a908      	add	r1, sp, #32
100037e8:	f000 f986 	bl	10003af8 <tud_control_status>
100037ec:	e506      	b.n	100031fc <tud_task_ext+0x20>
100037ee:	9b04      	ldr	r3, [sp, #16]
100037f0:	2b01      	cmp	r3, #1
100037f2:	f000 809e 	beq.w	10003932 <tud_task_ext+0x756>
100037f6:	2b00      	cmp	r3, #0
100037f8:	f000 808a 	beq.w	10003910 <tud_task_ext+0x734>
100037fc:	2000      	movs	r0, #0
100037fe:	f891 8002 	ldrb.w	r8, [r1, #2]
10003802:	e005      	b.n	10003810 <tud_task_ext+0x634>
10003804:	f88c 6004 	strb.w	r6, [ip, #4]
10003808:	fa5f fc80 	uxtb.w	ip, r0
1000380c:	4563      	cmp	r3, ip
1000380e:	d97f      	bls.n	10003910 <tud_task_ext+0x734>
10003810:	eb08 0c00 	add.w	ip, r8, r0
10003814:	fa57 fc8c 	uxtab	ip, r7, ip
10003818:	f89c e004 	ldrb.w	lr, [ip, #4]
1000381c:	3001      	adds	r0, #1
1000381e:	f1be 0fff 	cmp.w	lr, #255	@ 0xff
10003822:	d0ef      	beq.n	10003804 <tud_task_ext+0x628>
10003824:	f04f 23e0 	mov.w	r3, #3758153728	@ 0xe000e000
10003828:	f8d3 3df0 	ldr.w	r3, [r3, #3568]	@ 0xdf0
1000382c:	07da      	lsls	r2, r3, #31
1000382e:	d500      	bpl.n	10003832 <tud_task_ext+0x656>
10003830:	be00      	bkpt	0x0000
10003832:	f04f 23e0 	mov.w	r3, #3758153728	@ 0xe000e000
10003836:	f8d3 3df0 	ldr.w	r3, [r3, #3568]	@ 0xdf0
1000383a:	07db      	lsls	r3, r3, #31
1000383c:	d500      	bpl.n	10003840 <tud_task_ext+0x664>
1000383e:	be00      	bkpt	0x0000
10003840:	2300      	movs	r3, #0
10003842:	707b      	strb	r3, [r7, #1]
10003844:	e5e2      	b.n	1000340c <tud_task_ext+0x230>
10003846:	f7fe ff23 	bl	10002690 <tud_descriptor_bos_cb>
1000384a:	4602      	mov	r2, r0
1000384c:	2800      	cmp	r0, #0
1000384e:	f47f af58 	bne.w	10003702 <tud_task_ext+0x526>
10003852:	e5db      	b.n	1000340c <tud_task_ext+0x230>
10003854:	f7ff f958 	bl	10002b08 <tud_descriptor_device_cb>
10003858:	4602      	mov	r2, r0
1000385a:	2800      	cmp	r0, #0
1000385c:	f43f adcf 	beq.w	100033fe <tud_task_ext+0x222>
10003860:	4640      	mov	r0, r8
10003862:	2312      	movs	r3, #18
10003864:	a908      	add	r1, sp, #32
10003866:	f000 f961 	bl	10003b2c <tud_control_xfer>
1000386a:	2800      	cmp	r0, #0
1000386c:	f47f acc6 	bne.w	100031fc <tud_task_ext+0x20>
10003870:	e5cc      	b.n	1000340c <tud_task_ext+0x230>
10003872:	f7ff fc1d 	bl	100030b0 <tud_descriptor_device_qualifier_cb>
10003876:	4602      	mov	r2, r0
10003878:	2800      	cmp	r0, #0
1000387a:	f43f adc7 	beq.w	1000340c <tud_task_ext+0x230>
1000387e:	4640      	mov	r0, r8
10003880:	7813      	ldrb	r3, [r2, #0]
10003882:	a908      	add	r1, sp, #32
10003884:	f000 f952 	bl	10003b2c <tud_control_xfer>
10003888:	2800      	cmp	r0, #0
1000388a:	f47f acb7 	bne.w	100031fc <tud_task_ext+0x20>
1000388e:	e5bd      	b.n	1000340c <tud_task_ext+0x230>
10003890:	f8bd 1024 	ldrh.w	r1, [sp, #36]	@ 0x24
10003894:	f7ff f940 	bl	10002b18 <tud_descriptor_string_cb>
10003898:	4602      	mov	r2, r0
1000389a:	2800      	cmp	r0, #0
1000389c:	d1ef      	bne.n	1000387e <tud_task_ext+0x6a2>
1000389e:	e5b5      	b.n	1000340c <tud_task_ext+0x230>
100038a0:	9302      	str	r3, [sp, #8]
100038a2:	f7ff fb69 	bl	10002f78 <dcd_edpt_clear_stall>
100038a6:	9a01      	ldr	r2, [sp, #4]
100038a8:	9b00      	ldr	r3, [sp, #0]
100038aa:	443a      	add	r2, r7
100038ac:	441a      	add	r2, r3
100038ae:	f892 1034 	ldrb.w	r1, [r2, #52]	@ 0x34
100038b2:	9b02      	ldr	r3, [sp, #8]
100038b4:	f363 0141 	bfi	r1, r3, #1, #1
100038b8:	f882 1034 	strb.w	r1, [r2, #52]	@ 0x34
100038bc:	f892 1034 	ldrb.w	r1, [r2, #52]	@ 0x34
100038c0:	f363 0100 	bfi	r1, r3, #0, #1
100038c4:	f882 1034 	strb.w	r1, [r2, #52]	@ 0x34
100038c8:	e776      	b.n	100037b8 <tud_task_ext+0x5dc>
100038ca:	2100      	movs	r1, #0
100038cc:	4640      	mov	r0, r8
100038ce:	f7ff fa87 	bl	10002de0 <dcd_sof_enable>
100038d2:	4640      	mov	r0, r8
100038d4:	f7ff fb22 	bl	10002f1c <dcd_edpt_close_all>
100038d8:	78bb      	ldrb	r3, [r7, #2]
100038da:	4640      	mov	r0, r8
100038dc:	9300      	str	r3, [sp, #0]
100038de:	f7ff fb9d 	bl	1000301c <configuration_reset>
100038e2:	9b00      	ldr	r3, [sp, #0]
100038e4:	70bb      	strb	r3, [r7, #2]
100038e6:	e632      	b.n	1000354e <tud_task_ext+0x372>
100038e8:	f8dd 800c 	ldr.w	r8, [sp, #12]
100038ec:	f7ff fbe4 	bl	100030b8 <tud_mount_cb>
100038f0:	e778      	b.n	100037e4 <tud_task_ext+0x608>
100038f2:	4640      	mov	r0, r8
100038f4:	2301      	movs	r3, #1
100038f6:	a908      	add	r1, sp, #32
100038f8:	f10d 021a 	add.w	r2, sp, #26
100038fc:	f88d 601a 	strb.w	r6, [sp, #26]
10003900:	f000 f914 	bl	10003b2c <tud_control_xfer>
10003904:	e47a      	b.n	100031fc <tud_task_ext+0x20>
10003906:	780a      	ldrb	r2, [r1, #0]
10003908:	78cb      	ldrb	r3, [r1, #3]
1000390a:	4411      	add	r1, r2
1000390c:	784a      	ldrb	r2, [r1, #1]
1000390e:	e64c      	b.n	100035aa <tud_task_ext+0x3ce>
10003910:	4633      	mov	r3, r6
10003912:	4810      	ldr	r0, [pc, #64]	@ (10003954 <tud_task_ext+0x778>)
10003914:	9204      	str	r2, [sp, #16]
10003916:	9102      	str	r1, [sp, #8]
10003918:	f000 fe76 	bl	10004608 <tu_edpt_bind_driver>
1000391c:	4b0e      	ldr	r3, [pc, #56]	@ (10003958 <tud_task_ext+0x77c>)
1000391e:	9a04      	ldr	r2, [sp, #16]
10003920:	9902      	ldr	r1, [sp, #8]
10003922:	781b      	ldrb	r3, [r3, #0]
10003924:	4411      	add	r1, r2
10003926:	9a00      	ldr	r2, [sp, #0]
10003928:	3301      	adds	r3, #1
1000392a:	4293      	cmp	r3, r2
1000392c:	f6bf ae34 	bge.w	10003598 <tud_task_ext+0x3bc>
10003930:	e778      	b.n	10003824 <tud_task_ext+0x648>
10003932:	f8d8 c010 	ldr.w	ip, [r8, #16]
10003936:	4809      	ldr	r0, [pc, #36]	@ (1000395c <tud_task_ext+0x780>)
10003938:	4584      	cmp	ip, r0
1000393a:	bf08      	it	eq
1000393c:	2302      	moveq	r3, #2
1000393e:	e75d      	b.n	100037fc <tud_task_ext+0x620>
10003940:	f04f 23e0 	mov.w	r3, #3758153728	@ 0xe000e000
10003944:	f8d3 3df0 	ldr.w	r3, [r3, #3568]	@ 0xdf0
10003948:	07db      	lsls	r3, r3, #31
1000394a:	f57f ac57 	bpl.w	100031fc <tud_task_ext+0x20>
1000394e:	be00      	bkpt	0x0000
10003950:	e454      	b.n	100031fc <tud_task_ext+0x20>
10003952:	bf00      	nop
10003954:	20001d8c 	.word	0x20001d8c
10003958:	20002895 	.word	0x20002895
1000395c:	10004029 	.word	0x10004029

10003960 <usbd_open_edpt_pair>:
10003960:	e92d 4ff8 	stmdb	sp!, {r3, r4, r5, r6, r7, r8, r9, sl, fp, lr}
10003964:	9f0a      	ldr	r7, [sp, #40]	@ 0x28
10003966:	2a00      	cmp	r2, #0
10003968:	d040      	beq.n	100039ec <usbd_open_edpt_pair+0x8c>
1000396a:	460c      	mov	r4, r1
1000396c:	461e      	mov	r6, r3
1000396e:	4615      	mov	r5, r2
10003970:	f04f 0a00 	mov.w	sl, #0
10003974:	f8df 907c 	ldr.w	r9, [pc, #124]	@ 100039f4 <usbd_open_edpt_pair+0x94>
10003978:	f8df 807c 	ldr.w	r8, [pc, #124]	@ 100039f8 <usbd_open_edpt_pair+0x98>
1000397c:	e018      	b.n	100039b0 <usbd_open_edpt_pair+0x50>
1000397e:	4620      	mov	r0, r4
10003980:	f898 1002 	ldrb.w	r1, [r8, #2]
10003984:	f899 b000 	ldrb.w	fp, [r9]
10003988:	f000 fe0e 	bl	100045a8 <tu_edpt_validate>
1000398c:	b1e0      	cbz	r0, 100039c8 <usbd_open_edpt_pair+0x68>
1000398e:	4621      	mov	r1, r4
10003990:	4658      	mov	r0, fp
10003992:	f7ff fa41 	bl	10002e18 <dcd_edpt_open>
10003996:	b1f0      	cbz	r0, 100039d6 <usbd_open_edpt_pair+0x76>
10003998:	78a2      	ldrb	r2, [r4, #2]
1000399a:	f10a 0a01 	add.w	sl, sl, #1
1000399e:	09d1      	lsrs	r1, r2, #7
100039a0:	bf16      	itet	ne
100039a2:	9b0b      	ldrne	r3, [sp, #44]	@ 0x2c
100039a4:	703a      	strbeq	r2, [r7, #0]
100039a6:	701a      	strbne	r2, [r3, #0]
100039a8:	7822      	ldrb	r2, [r4, #0]
100039aa:	45aa      	cmp	sl, r5
100039ac:	4414      	add	r4, r2
100039ae:	d01d      	beq.n	100039ec <usbd_open_edpt_pair+0x8c>
100039b0:	7862      	ldrb	r2, [r4, #1]
100039b2:	2a05      	cmp	r2, #5
100039b4:	d10f      	bne.n	100039d6 <usbd_open_edpt_pair+0x76>
100039b6:	78e1      	ldrb	r1, [r4, #3]
100039b8:	f001 0103 	and.w	r1, r1, #3
100039bc:	42b1      	cmp	r1, r6
100039be:	d10a      	bne.n	100039d6 <usbd_open_edpt_pair+0x76>
100039c0:	78a2      	ldrb	r2, [r4, #2]
100039c2:	f012 0f70 	tst.w	r2, #112	@ 0x70
100039c6:	d0da      	beq.n	1000397e <usbd_open_edpt_pair+0x1e>
100039c8:	f04f 23e0 	mov.w	r3, #3758153728	@ 0xe000e000
100039cc:	f8d3 3df0 	ldr.w	r3, [r3, #3568]	@ 0xdf0
100039d0:	07da      	lsls	r2, r3, #31
100039d2:	d500      	bpl.n	100039d6 <usbd_open_edpt_pair+0x76>
100039d4:	be00      	bkpt	0x0000
100039d6:	f04f 23e0 	mov.w	r3, #3758153728	@ 0xe000e000
100039da:	f8d3 3df0 	ldr.w	r3, [r3, #3568]	@ 0xdf0
100039de:	07db      	lsls	r3, r3, #31
100039e0:	d402      	bmi.n	100039e8 <usbd_open_edpt_pair+0x88>
100039e2:	2000      	movs	r0, #0
100039e4:	e8bd 8ff8 	ldmia.w	sp!, {r3, r4, r5, r6, r7, r8, r9, sl, fp, pc}
100039e8:	be00      	bkpt	0x0000
100039ea:	e7fa      	b.n	100039e2 <usbd_open_edpt_pair+0x82>
100039ec:	2001      	movs	r0, #1
100039ee:	e8bd 8ff8 	ldmia.w	sp!, {r3, r4, r5, r6, r7, r8, r9, sl, fp, pc}
100039f2:	bf00      	nop
100039f4:	20001340 	.word	0x20001340
100039f8:	20001d78 	.word	0x20001d78

100039fc <usbd_edpt_open>:
100039fc:	b538      	push	{r3, r4, r5, lr}
100039fe:	788b      	ldrb	r3, [r1, #2]
10003a00:	f013 0f70 	tst.w	r3, #112	@ 0x70
10003a04:	d008      	beq.n	10003a18 <usbd_edpt_open+0x1c>
10003a06:	f04f 23e0 	mov.w	r3, #3758153728	@ 0xe000e000
10003a0a:	f8d3 3df0 	ldr.w	r3, [r3, #3568]	@ 0xdf0
10003a0e:	07db      	lsls	r3, r3, #31
10003a10:	d500      	bpl.n	10003a14 <usbd_edpt_open+0x18>
10003a12:	be00      	bkpt	0x0000
10003a14:	2000      	movs	r0, #0
10003a16:	bd38      	pop	{r3, r4, r5, pc}
10003a18:	4a07      	ldr	r2, [pc, #28]	@ (10003a38 <usbd_edpt_open+0x3c>)
10003a1a:	4b08      	ldr	r3, [pc, #32]	@ (10003a3c <usbd_edpt_open+0x40>)
10003a1c:	460c      	mov	r4, r1
10003a1e:	4608      	mov	r0, r1
10003a20:	7891      	ldrb	r1, [r2, #2]
10003a22:	781d      	ldrb	r5, [r3, #0]
10003a24:	f000 fdc0 	bl	100045a8 <tu_edpt_validate>
10003a28:	2800      	cmp	r0, #0
10003a2a:	d0ec      	beq.n	10003a06 <usbd_edpt_open+0xa>
10003a2c:	4621      	mov	r1, r4
10003a2e:	4628      	mov	r0, r5
10003a30:	e8bd 4038 	ldmia.w	sp!, {r3, r4, r5, lr}
10003a34:	f7ff b9f0 	b.w	10002e18 <dcd_edpt_open>
10003a38:	20001d78 	.word	0x20001d78
10003a3c:	20001340 	.word	0x20001340

10003a40 <usbd_edpt_claim>:
10003a40:	460b      	mov	r3, r1
10003a42:	4a06      	ldr	r2, [pc, #24]	@ (10003a5c <usbd_edpt_claim+0x1c>)
10003a44:	4806      	ldr	r0, [pc, #24]	@ (10003a60 <usbd_edpt_claim+0x20>)
10003a46:	6811      	ldr	r1, [r2, #0]
10003a48:	09da      	lsrs	r2, r3, #7
10003a4a:	3234      	adds	r2, #52	@ 0x34
10003a4c:	f003 037f 	and.w	r3, r3, #127	@ 0x7f
10003a50:	eb02 0343 	add.w	r3, r2, r3, lsl #1
10003a54:	4418      	add	r0, r3
10003a56:	f000 bd61 	b.w	1000451c <tu_edpt_claim>
10003a5a:	bf00      	nop
10003a5c:	20001dcc 	.word	0x20001dcc
10003a60:	20001d78 	.word	0x20001d78

10003a64 <usbd_edpt_release>:
10003a64:	460b      	mov	r3, r1
10003a66:	4a06      	ldr	r2, [pc, #24]	@ (10003a80 <usbd_edpt_release+0x1c>)
10003a68:	4806      	ldr	r0, [pc, #24]	@ (10003a84 <usbd_edpt_release+0x20>)
10003a6a:	6811      	ldr	r1, [r2, #0]
10003a6c:	09da      	lsrs	r2, r3, #7
10003a6e:	3234      	adds	r2, #52	@ 0x34
10003a70:	f003 037f 	and.w	r3, r3, #127	@ 0x7f
10003a74:	eb02 0343 	add.w	r3, r2, r3, lsl #1
10003a78:	4418      	add	r0, r3
10003a7a:	f000 bd79 	b.w	10004570 <tu_edpt_release>
10003a7e:	bf00      	nop
10003a80:	20001dcc 	.word	0x20001dcc
10003a84:	20001d78 	.word	0x20001d78

10003a88 <usbd_edpt_xfer>:
10003a88:	b510      	push	{r4, lr}
10003a8a:	4819      	ldr	r0, [pc, #100]	@ (10003af0 <usbd_edpt_xfer+0x68>)
10003a8c:	f001 0c7f 	and.w	ip, r1, #127	@ 0x7f
10003a90:	eb00 004c 	add.w	r0, r0, ip, lsl #1
10003a94:	eb00 10d1 	add.w	r0, r0, r1, lsr #7
10003a98:	f890 c034 	ldrb.w	ip, [r0, #52]	@ 0x34
10003a9c:	f01c 0f01 	tst.w	ip, #1
10003aa0:	d008      	beq.n	10003ab4 <usbd_edpt_xfer+0x2c>
10003aa2:	f04f 23e0 	mov.w	r3, #3758153728	@ 0xe000e000
10003aa6:	f8d3 3df0 	ldr.w	r3, [r3, #3568]	@ 0xdf0
10003aaa:	07da      	lsls	r2, r3, #31
10003aac:	d500      	bpl.n	10003ab0 <usbd_edpt_xfer+0x28>
10003aae:	be00      	bkpt	0x0000
10003ab0:	2000      	movs	r0, #0
10003ab2:	bd10      	pop	{r4, pc}
10003ab4:	f100 0430 	add.w	r4, r0, #48	@ 0x30
10003ab8:	f894 c004 	ldrb.w	ip, [r4, #4]
10003abc:	480d      	ldr	r0, [pc, #52]	@ (10003af4 <usbd_edpt_xfer+0x6c>)
10003abe:	f04c 0c01 	orr.w	ip, ip, #1
10003ac2:	7800      	ldrb	r0, [r0, #0]
10003ac4:	f884 c004 	strb.w	ip, [r4, #4]
10003ac8:	f7ff fa2a 	bl	10002f20 <dcd_edpt_xfer>
10003acc:	2800      	cmp	r0, #0
10003ace:	d1f0      	bne.n	10003ab2 <usbd_edpt_xfer+0x2a>
10003ad0:	f04f 21e0 	mov.w	r1, #3758153728	@ 0xe000e000
10003ad4:	7922      	ldrb	r2, [r4, #4]
10003ad6:	f360 0200 	bfi	r2, r0, #0, #1
10003ada:	7122      	strb	r2, [r4, #4]
10003adc:	7922      	ldrb	r2, [r4, #4]
10003ade:	f360 0282 	bfi	r2, r0, #2, #1
10003ae2:	7122      	strb	r2, [r4, #4]
10003ae4:	f8d1 3df0 	ldr.w	r3, [r1, #3568]	@ 0xdf0
10003ae8:	07db      	lsls	r3, r3, #31
10003aea:	d5e1      	bpl.n	10003ab0 <usbd_edpt_xfer+0x28>
10003aec:	be00      	bkpt	0x0000
10003aee:	e7df      	b.n	10003ab0 <usbd_edpt_xfer+0x28>
10003af0:	20001d78 	.word	0x20001d78
10003af4:	20001340 	.word	0x20001340

10003af8 <tud_control_status>:
10003af8:	b530      	push	{r4, r5, lr}
10003afa:	4c0b      	ldr	r4, [pc, #44]	@ (10003b28 <tud_control_status+0x30>)
10003afc:	468c      	mov	ip, r1
10003afe:	46a6      	mov	lr, r4
10003b00:	4605      	mov	r5, r0
10003b02:	6808      	ldr	r0, [r1, #0]
10003b04:	6849      	ldr	r1, [r1, #4]
10003b06:	2300      	movs	r3, #0
10003b08:	e8ae 0003 	stmia.w	lr!, {r0, r1}
10003b0c:	f89c 1000 	ldrb.w	r1, [ip]
10003b10:	4628      	mov	r0, r5
10003b12:	43c9      	mvns	r1, r1
10003b14:	e9c4 3302 	strd	r3, r3, [r4, #8]
10003b18:	e8bd 4030 	ldmia.w	sp!, {r4, r5, lr}
10003b1c:	461a      	mov	r2, r3
10003b1e:	f001 0180 	and.w	r1, r1, #128	@ 0x80
10003b22:	f7ff bfb1 	b.w	10003a88 <usbd_edpt_xfer>
10003b26:	bf00      	nop
10003b28:	20001d38 	.word	0x20001d38

10003b2c <tud_control_xfer>:
10003b2c:	e92d 41f0 	stmdb	sp!, {r4, r5, r6, r7, r8, lr}
10003b30:	4f28      	ldr	r7, [pc, #160]	@ (10003bd4 <tud_control_xfer+0xa8>)
10003b32:	f04f 0800 	mov.w	r8, #0
10003b36:	46be      	mov	lr, r7
10003b38:	468c      	mov	ip, r1
10003b3a:	4606      	mov	r6, r0
10003b3c:	6808      	ldr	r0, [r1, #0]
10003b3e:	6849      	ldr	r1, [r1, #4]
10003b40:	60ba      	str	r2, [r7, #8]
10003b42:	e8ae 0003 	stmia.w	lr!, {r0, r1}
10003b46:	f8a7 800e 	strh.w	r8, [r7, #14]
10003b4a:	4615      	mov	r5, r2
10003b4c:	f8bc 2006 	ldrh.w	r2, [ip, #6]
10003b50:	4293      	cmp	r3, r2
10003b52:	bf28      	it	cs
10003b54:	4613      	movcs	r3, r2
10003b56:	81bb      	strh	r3, [r7, #12]
10003b58:	b19a      	cbz	r2, 10003b82 <tud_control_xfer+0x56>
10003b5a:	461c      	mov	r4, r3
10003b5c:	b333      	cbz	r3, 10003bac <tud_control_xfer+0x80>
10003b5e:	b1dd      	cbz	r5, 10003b98 <tud_control_xfer+0x6c>
10003b60:	f997 3000 	ldrsb.w	r3, [r7]
10003b64:	2c40      	cmp	r4, #64	@ 0x40
10003b66:	bf28      	it	cs
10003b68:	2440      	movcs	r4, #64	@ 0x40
10003b6a:	2b00      	cmp	r3, #0
10003b6c:	db29      	blt.n	10003bc2 <tud_control_xfer+0x96>
10003b6e:	4641      	mov	r1, r8
10003b70:	4623      	mov	r3, r4
10003b72:	4630      	mov	r0, r6
10003b74:	4a18      	ldr	r2, [pc, #96]	@ (10003bd8 <tud_control_xfer+0xac>)
10003b76:	f7ff ff87 	bl	10003a88 <usbd_edpt_xfer>
10003b7a:	b168      	cbz	r0, 10003b98 <tud_control_xfer+0x6c>
10003b7c:	2001      	movs	r0, #1
10003b7e:	e8bd 81f0 	ldmia.w	sp!, {r4, r5, r6, r7, r8, pc}
10003b82:	f89c 1000 	ldrb.w	r1, [ip]
10003b86:	4613      	mov	r3, r2
10003b88:	43c9      	mvns	r1, r1
10003b8a:	4630      	mov	r0, r6
10003b8c:	f001 0180 	and.w	r1, r1, #128	@ 0x80
10003b90:	f7ff ff7a 	bl	10003a88 <usbd_edpt_xfer>
10003b94:	2800      	cmp	r0, #0
10003b96:	d1f1      	bne.n	10003b7c <tud_control_xfer+0x50>
10003b98:	f04f 23e0 	mov.w	r3, #3758153728	@ 0xe000e000
10003b9c:	f8d3 3df0 	ldr.w	r3, [r3, #3568]	@ 0xdf0
10003ba0:	07db      	lsls	r3, r3, #31
10003ba2:	d500      	bpl.n	10003ba6 <tud_control_xfer+0x7a>
10003ba4:	be00      	bkpt	0x0000
10003ba6:	2000      	movs	r0, #0
10003ba8:	e8bd 81f0 	ldmia.w	sp!, {r4, r5, r6, r7, r8, pc}
10003bac:	461a      	mov	r2, r3
10003bae:	7839      	ldrb	r1, [r7, #0]
10003bb0:	f001 0180 	and.w	r1, r1, #128	@ 0x80
10003bb4:	4623      	mov	r3, r4
10003bb6:	4630      	mov	r0, r6
10003bb8:	f7ff ff66 	bl	10003a88 <usbd_edpt_xfer>
10003bbc:	2800      	cmp	r0, #0
10003bbe:	d1dd      	bne.n	10003b7c <tud_control_xfer+0x50>
10003bc0:	e7ea      	b.n	10003b98 <tud_control_xfer+0x6c>
10003bc2:	4622      	mov	r2, r4
10003bc4:	4629      	mov	r1, r5
10003bc6:	4804      	ldr	r0, [pc, #16]	@ (10003bd8 <tud_control_xfer+0xac>)
10003bc8:	f001 fcb2 	bl	10005530 <memcpy>
10003bcc:	2180      	movs	r1, #128	@ 0x80
10003bce:	4a02      	ldr	r2, [pc, #8]	@ (10003bd8 <tud_control_xfer+0xac>)
10003bd0:	e7f0      	b.n	10003bb4 <tud_control_xfer+0x88>
10003bd2:	bf00      	nop
10003bd4:	20001d38 	.word	0x20001d38
10003bd8:	20001cf8 	.word	0x20001cf8

10003bdc <usbd_control_reset>:
10003bdc:	2200      	movs	r2, #0
10003bde:	4b03      	ldr	r3, [pc, #12]	@ (10003bec <usbd_control_reset+0x10>)
10003be0:	e9c3 2200 	strd	r2, r2, [r3]
10003be4:	e9c3 2202 	strd	r2, r2, [r3, #8]
10003be8:	611a      	str	r2, [r3, #16]
10003bea:	4770      	bx	lr
10003bec:	20001d38 	.word	0x20001d38

10003bf0 <usbd_control_set_complete_callback>:
10003bf0:	4b01      	ldr	r3, [pc, #4]	@ (10003bf8 <usbd_control_set_complete_callback+0x8>)
10003bf2:	6118      	str	r0, [r3, #16]
10003bf4:	4770      	bx	lr
10003bf6:	bf00      	nop
10003bf8:	20001d38 	.word	0x20001d38

10003bfc <usbd_control_set_request>:
10003bfc:	b430      	push	{r4, r5}
10003bfe:	4602      	mov	r2, r0
10003c00:	4c04      	ldr	r4, [pc, #16]	@ (10003c14 <usbd_control_set_request+0x18>)
10003c02:	2500      	movs	r5, #0
10003c04:	4623      	mov	r3, r4
10003c06:	6800      	ldr	r0, [r0, #0]
10003c08:	6851      	ldr	r1, [r2, #4]
10003c0a:	e9c4 5502 	strd	r5, r5, [r4, #8]
10003c0e:	bc30      	pop	{r4, r5}
10003c10:	c303      	stmia	r3!, {r0, r1}
10003c12:	4770      	bx	lr
10003c14:	20001d38 	.word	0x20001d38

10003c18 <usbd_control_xfer_cb>:
10003c18:	b570      	push	{r4, r5, r6, lr}
10003c1a:	4c3d      	ldr	r4, [pc, #244]	@ (10003d10 <usbd_control_xfer_cb+0xf8>)
10003c1c:	09c9      	lsrs	r1, r1, #7
10003c1e:	7822      	ldrb	r2, [r4, #0]
10003c20:	4606      	mov	r6, r0
10003c22:	ebb1 1fd2 	cmp.w	r1, r2, lsr #7
10003c26:	461d      	mov	r5, r3
10003c28:	b082      	sub	sp, #8
10003c2a:	d017      	beq.n	10003c5c <usbd_control_xfer_cb+0x44>
10003c2c:	b153      	cbz	r3, 10003c44 <usbd_control_xfer_cb+0x2c>
10003c2e:	f04f 23e0 	mov.w	r3, #3758153728	@ 0xe000e000
10003c32:	f8d3 3df0 	ldr.w	r3, [r3, #3568]	@ 0xdf0
10003c36:	07db      	lsls	r3, r3, #31
10003c38:	d402      	bmi.n	10003c40 <usbd_control_xfer_cb+0x28>
10003c3a:	2000      	movs	r0, #0
10003c3c:	b002      	add	sp, #8
10003c3e:	bd70      	pop	{r4, r5, r6, pc}
10003c40:	be00      	bkpt	0x0000
10003c42:	e7fa      	b.n	10003c3a <usbd_control_xfer_cb+0x22>
10003c44:	4621      	mov	r1, r4
10003c46:	f7ff f8d9 	bl	10002dfc <dcd_edpt0_status_complete>
10003c4a:	6923      	ldr	r3, [r4, #16]
10003c4c:	b11b      	cbz	r3, 10003c56 <usbd_control_xfer_cb+0x3e>
10003c4e:	4622      	mov	r2, r4
10003c50:	2103      	movs	r1, #3
10003c52:	4630      	mov	r0, r6
10003c54:	4798      	blx	r3
10003c56:	2001      	movs	r0, #1
10003c58:	b002      	add	sp, #8
10003c5a:	bd70      	pop	{r4, r5, r6, pc}
10003c5c:	f994 3000 	ldrsb.w	r3, [r4]
10003c60:	2b00      	cmp	r3, #0
10003c62:	db06      	blt.n	10003c72 <usbd_control_xfer_cb+0x5a>
10003c64:	68a0      	ldr	r0, [r4, #8]
10003c66:	2800      	cmp	r0, #0
10003c68:	d0e7      	beq.n	10003c3a <usbd_control_xfer_cb+0x22>
10003c6a:	462a      	mov	r2, r5
10003c6c:	4929      	ldr	r1, [pc, #164]	@ (10003d14 <usbd_control_xfer_cb+0xfc>)
10003c6e:	f001 fc5f 	bl	10005530 <memcpy>
10003c72:	89e0      	ldrh	r0, [r4, #14]
10003c74:	68a1      	ldr	r1, [r4, #8]
10003c76:	88e3      	ldrh	r3, [r4, #6]
10003c78:	4428      	add	r0, r5
10003c7a:	b280      	uxth	r0, r0
10003c7c:	4429      	add	r1, r5
10003c7e:	4283      	cmp	r3, r0
10003c80:	81e0      	strh	r0, [r4, #14]
10003c82:	60a1      	str	r1, [r4, #8]
10003c84:	d016      	beq.n	10003cb4 <usbd_control_xfer_cb+0x9c>
10003c86:	2d3f      	cmp	r5, #63	@ 0x3f
10003c88:	d914      	bls.n	10003cb4 <usbd_control_xfer_cb+0x9c>
10003c8a:	89a2      	ldrh	r2, [r4, #12]
10003c8c:	f994 4000 	ldrsb.w	r4, [r4]
10003c90:	1a13      	subs	r3, r2, r0
10003c92:	b29b      	uxth	r3, r3
10003c94:	2b40      	cmp	r3, #64	@ 0x40
10003c96:	bf28      	it	cs
10003c98:	2340      	movcs	r3, #64	@ 0x40
10003c9a:	2c00      	cmp	r4, #0
10003c9c:	db27      	blt.n	10003cee <usbd_control_xfer_cb+0xd6>
10003c9e:	4290      	cmp	r0, r2
10003ca0:	f04f 0100 	mov.w	r1, #0
10003ca4:	d031      	beq.n	10003d0a <usbd_control_xfer_cb+0xf2>
10003ca6:	4a1b      	ldr	r2, [pc, #108]	@ (10003d14 <usbd_control_xfer_cb+0xfc>)
10003ca8:	4630      	mov	r0, r6
10003caa:	f7ff feed 	bl	10003a88 <usbd_edpt_xfer>
10003cae:	2800      	cmp	r0, #0
10003cb0:	d1d1      	bne.n	10003c56 <usbd_control_xfer_cb+0x3e>
10003cb2:	e7bc      	b.n	10003c2e <usbd_control_xfer_cb+0x16>
10003cb4:	6923      	ldr	r3, [r4, #16]
10003cb6:	b123      	cbz	r3, 10003cc2 <usbd_control_xfer_cb+0xaa>
10003cb8:	2102      	movs	r1, #2
10003cba:	4630      	mov	r0, r6
10003cbc:	4a14      	ldr	r2, [pc, #80]	@ (10003d10 <usbd_control_xfer_cb+0xf8>)
10003cbe:	4798      	blx	r3
10003cc0:	b160      	cbz	r0, 10003cdc <usbd_control_xfer_cb+0xc4>
10003cc2:	7821      	ldrb	r1, [r4, #0]
10003cc4:	2300      	movs	r3, #0
10003cc6:	43c9      	mvns	r1, r1
10003cc8:	4630      	mov	r0, r6
10003cca:	461a      	mov	r2, r3
10003ccc:	f001 0180 	and.w	r1, r1, #128	@ 0x80
10003cd0:	f7ff feda 	bl	10003a88 <usbd_edpt_xfer>
10003cd4:	2800      	cmp	r0, #0
10003cd6:	d0aa      	beq.n	10003c2e <usbd_control_xfer_cb+0x16>
10003cd8:	2001      	movs	r0, #1
10003cda:	e7bd      	b.n	10003c58 <usbd_control_xfer_cb+0x40>
10003cdc:	4601      	mov	r1, r0
10003cde:	4630      	mov	r0, r6
10003ce0:	f7ff f932 	bl	10002f48 <dcd_edpt_stall>
10003ce4:	2180      	movs	r1, #128	@ 0x80
10003ce6:	4630      	mov	r0, r6
10003ce8:	f7ff f92e 	bl	10002f48 <dcd_edpt_stall>
10003cec:	e7b3      	b.n	10003c56 <usbd_control_xfer_cb+0x3e>
10003cee:	4290      	cmp	r0, r2
10003cf0:	d008      	beq.n	10003d04 <usbd_control_xfer_cb+0xec>
10003cf2:	461a      	mov	r2, r3
10003cf4:	4807      	ldr	r0, [pc, #28]	@ (10003d14 <usbd_control_xfer_cb+0xfc>)
10003cf6:	9301      	str	r3, [sp, #4]
10003cf8:	f001 fc1a 	bl	10005530 <memcpy>
10003cfc:	2180      	movs	r1, #128	@ 0x80
10003cfe:	4a05      	ldr	r2, [pc, #20]	@ (10003d14 <usbd_control_xfer_cb+0xfc>)
10003d00:	9b01      	ldr	r3, [sp, #4]
10003d02:	e7d1      	b.n	10003ca8 <usbd_control_xfer_cb+0x90>
10003d04:	2180      	movs	r1, #128	@ 0x80
10003d06:	2200      	movs	r2, #0
10003d08:	e7ce      	b.n	10003ca8 <usbd_control_xfer_cb+0x90>
10003d0a:	460a      	mov	r2, r1
10003d0c:	e7cc      	b.n	10003ca8 <usbd_control_xfer_cb+0x90>
10003d0e:	bf00      	nop
10003d10:	20001d38 	.word	0x20001d38
10003d14:	20001cf8 	.word	0x20001cf8

10003d18 <_prep_out_transaction.isra.0>:
10003d18:	e92d 41f0 	stmdb	sp!, {r4, r5, r6, r7, r8, lr}
10003d1c:	4604      	mov	r4, r0
10003d1e:	f7ff f9d3 	bl	100030c8 <tud_mounted>
10003d22:	b908      	cbnz	r0, 10003d28 <_prep_out_transaction.isra.0+0x10>
10003d24:	e8bd 81f0 	ldmia.w	sp!, {r4, r5, r6, r7, r8, pc}
10003d28:	f7ff f9d6 	bl	100030d8 <tud_suspended>
10003d2c:	4605      	mov	r5, r0
10003d2e:	2800      	cmp	r0, #0
10003d30:	d1f8      	bne.n	10003d24 <_prep_out_transaction.isra.0+0xc>
10003d32:	23c8      	movs	r3, #200	@ 0xc8
10003d34:	fb04 f303 	mul.w	r3, r4, r3
10003d38:	4e12      	ldr	r6, [pc, #72]	@ (10003d84 <_prep_out_transaction.isra.0+0x6c>)
10003d3a:	18f7      	adds	r7, r6, r3
10003d3c:	78f9      	ldrb	r1, [r7, #3]
10003d3e:	2900      	cmp	r1, #0
10003d40:	d0f0      	beq.n	10003d24 <_prep_out_transaction.isra.0+0xc>
10003d42:	3310      	adds	r3, #16
10003d44:	441e      	add	r6, r3
10003d46:	4630      	mov	r0, r6
10003d48:	f000 fdd2 	bl	100048f0 <tu_fifo_remaining>
10003d4c:	283f      	cmp	r0, #63	@ 0x3f
10003d4e:	d9e9      	bls.n	10003d24 <_prep_out_transaction.isra.0+0xc>
10003d50:	4628      	mov	r0, r5
10003d52:	78f9      	ldrb	r1, [r7, #3]
10003d54:	f7ff fe74 	bl	10003a40 <usbd_edpt_claim>
10003d58:	2800      	cmp	r0, #0
10003d5a:	d0e3      	beq.n	10003d24 <_prep_out_transaction.isra.0+0xc>
10003d5c:	4630      	mov	r0, r6
10003d5e:	f000 fdc7 	bl	100048f0 <tu_fifo_remaining>
10003d62:	283f      	cmp	r0, #63	@ 0x3f
10003d64:	78f9      	ldrb	r1, [r7, #3]
10003d66:	d908      	bls.n	10003d7a <_prep_out_transaction.isra.0+0x62>
10003d68:	4a07      	ldr	r2, [pc, #28]	@ (10003d88 <_prep_out_transaction.isra.0+0x70>)
10003d6a:	4628      	mov	r0, r5
10003d6c:	eb02 12c4 	add.w	r2, r2, r4, lsl #7
10003d70:	2340      	movs	r3, #64	@ 0x40
10003d72:	e8bd 41f0 	ldmia.w	sp!, {r4, r5, r6, r7, r8, lr}
10003d76:	f7ff be87 	b.w	10003a88 <usbd_edpt_xfer>
10003d7a:	4628      	mov	r0, r5
10003d7c:	e8bd 41f0 	ldmia.w	sp!, {r4, r5, r6, r7, r8, lr}
10003d80:	f7ff be70 	b.w	10003a64 <usbd_edpt_release>
10003d84:	20001c30 	.word	0x20001c30
10003d88:	20001bac 	.word	0x20001bac

10003d8c <tud_cdc_n_connected>:
10003d8c:	b510      	push	{r4, lr}
10003d8e:	4604      	mov	r4, r0
10003d90:	f7ff f99a 	bl	100030c8 <tud_mounted>
10003d94:	b908      	cbnz	r0, 10003d9a <tud_cdc_n_connected+0xe>
10003d96:	2000      	movs	r0, #0
10003d98:	bd10      	pop	{r4, pc}
10003d9a:	f7ff f99d 	bl	100030d8 <tud_suspended>
10003d9e:	2800      	cmp	r0, #0
10003da0:	d1f9      	bne.n	10003d96 <tud_cdc_n_connected+0xa>
10003da2:	22c8      	movs	r2, #200	@ 0xc8
10003da4:	4b03      	ldr	r3, [pc, #12]	@ (10003db4 <tud_cdc_n_connected+0x28>)
10003da6:	fb02 3304 	mla	r3, r2, r4, r3
10003daa:	7918      	ldrb	r0, [r3, #4]
10003dac:	f000 0001 	and.w	r0, r0, #1
10003db0:	bd10      	pop	{r4, pc}
10003db2:	bf00      	nop
10003db4:	20001c30 	.word	0x20001c30

10003db8 <tud_cdc_n_available>:
10003db8:	22c8      	movs	r2, #200	@ 0xc8
10003dba:	b508      	push	{r3, lr}
10003dbc:	4b02      	ldr	r3, [pc, #8]	@ (10003dc8 <tud_cdc_n_available+0x10>)
10003dbe:	fb02 3000 	mla	r0, r2, r0, r3
10003dc2:	f000 fd7b 	bl	100048bc <tu_fifo_count>
10003dc6:	bd08      	pop	{r3, pc}
10003dc8:	20001c40 	.word	0x20001c40

10003dcc <tud_cdc_n_read>:
10003dcc:	e92d 43f8 	stmdb	sp!, {r3, r4, r5, r6, r7, r8, r9, lr}
10003dd0:	f64f 73ff 	movw	r3, #65535	@ 0xffff
10003dd4:	24c8      	movs	r4, #200	@ 0xc8
10003dd6:	429a      	cmp	r2, r3
10003dd8:	bf28      	it	cs
10003dda:	461a      	movcs	r2, r3
10003ddc:	fb00 f404 	mul.w	r4, r0, r4
10003de0:	f8df 8074 	ldr.w	r8, [pc, #116]	@ 10003e58 <tud_cdc_n_read+0x8c>
10003de4:	f104 0510 	add.w	r5, r4, #16
10003de8:	4445      	add	r5, r8
10003dea:	4606      	mov	r6, r0
10003dec:	b292      	uxth	r2, r2
10003dee:	4628      	mov	r0, r5
10003df0:	f000 fdda 	bl	100049a8 <tu_fifo_read_n>
10003df4:	4607      	mov	r7, r0
10003df6:	f7ff f967 	bl	100030c8 <tud_mounted>
10003dfa:	b910      	cbnz	r0, 10003e02 <tud_cdc_n_read+0x36>
10003dfc:	4638      	mov	r0, r7
10003dfe:	e8bd 83f8 	ldmia.w	sp!, {r3, r4, r5, r6, r7, r8, r9, pc}
10003e02:	f7ff f969 	bl	100030d8 <tud_suspended>
10003e06:	4681      	mov	r9, r0
10003e08:	2800      	cmp	r0, #0
10003e0a:	d1f7      	bne.n	10003dfc <tud_cdc_n_read+0x30>
10003e0c:	44a0      	add	r8, r4
10003e0e:	f898 3003 	ldrb.w	r3, [r8, #3]
10003e12:	2b00      	cmp	r3, #0
10003e14:	d0f2      	beq.n	10003dfc <tud_cdc_n_read+0x30>
10003e16:	4628      	mov	r0, r5
10003e18:	f000 fd6a 	bl	100048f0 <tu_fifo_remaining>
10003e1c:	283f      	cmp	r0, #63	@ 0x3f
10003e1e:	d9ed      	bls.n	10003dfc <tud_cdc_n_read+0x30>
10003e20:	4648      	mov	r0, r9
10003e22:	f898 1003 	ldrb.w	r1, [r8, #3]
10003e26:	f7ff fe0b 	bl	10003a40 <usbd_edpt_claim>
10003e2a:	2800      	cmp	r0, #0
10003e2c:	d0e6      	beq.n	10003dfc <tud_cdc_n_read+0x30>
10003e2e:	4628      	mov	r0, r5
10003e30:	f000 fd5e 	bl	100048f0 <tu_fifo_remaining>
10003e34:	283f      	cmp	r0, #63	@ 0x3f
10003e36:	f898 1003 	ldrb.w	r1, [r8, #3]
10003e3a:	d907      	bls.n	10003e4c <tud_cdc_n_read+0x80>
10003e3c:	4a05      	ldr	r2, [pc, #20]	@ (10003e54 <tud_cdc_n_read+0x88>)
10003e3e:	4648      	mov	r0, r9
10003e40:	2340      	movs	r3, #64	@ 0x40
10003e42:	eb02 12c6 	add.w	r2, r2, r6, lsl #7
10003e46:	f7ff fe1f 	bl	10003a88 <usbd_edpt_xfer>
10003e4a:	e7d7      	b.n	10003dfc <tud_cdc_n_read+0x30>
10003e4c:	4648      	mov	r0, r9
10003e4e:	f7ff fe09 	bl	10003a64 <usbd_edpt_release>
10003e52:	e7d3      	b.n	10003dfc <tud_cdc_n_read+0x30>
10003e54:	20001bac 	.word	0x20001bac
10003e58:	20001c30 	.word	0x20001c30

10003e5c <tud_cdc_n_write_flush>:
10003e5c:	e92d 41f0 	stmdb	sp!, {r4, r5, r6, r7, r8, lr}
10003e60:	4604      	mov	r4, r0
10003e62:	f7ff f931 	bl	100030c8 <tud_mounted>
10003e66:	b910      	cbnz	r0, 10003e6e <tud_cdc_n_write_flush+0x12>
10003e68:	2000      	movs	r0, #0
10003e6a:	e8bd 81f0 	ldmia.w	sp!, {r4, r5, r6, r7, r8, pc}
10003e6e:	f7ff f933 	bl	100030d8 <tud_suspended>
10003e72:	4605      	mov	r5, r0
10003e74:	2800      	cmp	r0, #0
10003e76:	d1f7      	bne.n	10003e68 <tud_cdc_n_write_flush+0xc>
10003e78:	26c8      	movs	r6, #200	@ 0xc8
10003e7a:	fb04 f606 	mul.w	r6, r4, r6
10003e7e:	f8df 8064 	ldr.w	r8, [pc, #100]	@ 10003ee4 <tud_cdc_n_write_flush+0x88>
10003e82:	f106 0724 	add.w	r7, r6, #36	@ 0x24
10003e86:	4447      	add	r7, r8
10003e88:	4638      	mov	r0, r7
10003e8a:	f000 fd17 	bl	100048bc <tu_fifo_count>
10003e8e:	2800      	cmp	r0, #0
10003e90:	d0ea      	beq.n	10003e68 <tud_cdc_n_write_flush+0xc>
10003e92:	44b0      	add	r8, r6
10003e94:	4628      	mov	r0, r5
10003e96:	f898 1002 	ldrb.w	r1, [r8, #2]
10003e9a:	f7ff fdd1 	bl	10003a40 <usbd_edpt_claim>
10003e9e:	2800      	cmp	r0, #0
10003ea0:	d0e2      	beq.n	10003e68 <tud_cdc_n_write_flush+0xc>
10003ea2:	4e0f      	ldr	r6, [pc, #60]	@ (10003ee0 <tud_cdc_n_write_flush+0x84>)
10003ea4:	4638      	mov	r0, r7
10003ea6:	eb06 16c4 	add.w	r6, r6, r4, lsl #7
10003eaa:	4631      	mov	r1, r6
10003eac:	2240      	movs	r2, #64	@ 0x40
10003eae:	f000 fd7b 	bl	100049a8 <tu_fifo_read_n>
10003eb2:	f898 1002 	ldrb.w	r1, [r8, #2]
10003eb6:	4604      	mov	r4, r0
10003eb8:	b168      	cbz	r0, 10003ed6 <tud_cdc_n_write_flush+0x7a>
10003eba:	4603      	mov	r3, r0
10003ebc:	4632      	mov	r2, r6
10003ebe:	4628      	mov	r0, r5
10003ec0:	f7ff fde2 	bl	10003a88 <usbd_edpt_xfer>
10003ec4:	b950      	cbnz	r0, 10003edc <tud_cdc_n_write_flush+0x80>
10003ec6:	f04f 23e0 	mov.w	r3, #3758153728	@ 0xe000e000
10003eca:	f8d3 3df0 	ldr.w	r3, [r3, #3568]	@ 0xdf0
10003ece:	07db      	lsls	r3, r3, #31
10003ed0:	d5ca      	bpl.n	10003e68 <tud_cdc_n_write_flush+0xc>
10003ed2:	be00      	bkpt	0x0000
10003ed4:	e7c8      	b.n	10003e68 <tud_cdc_n_write_flush+0xc>
10003ed6:	f7ff fdc5 	bl	10003a64 <usbd_edpt_release>
10003eda:	e7c5      	b.n	10003e68 <tud_cdc_n_write_flush+0xc>
10003edc:	4620      	mov	r0, r4
10003ede:	e7c4      	b.n	10003e6a <tud_cdc_n_write_flush+0xe>
10003ee0:	20001bec 	.word	0x20001bec
10003ee4:	20001c30 	.word	0x20001c30

10003ee8 <tud_cdc_n_write>:
10003ee8:	b538      	push	{r3, r4, r5, lr}
10003eea:	f64f 75ff 	movw	r5, #65535	@ 0xffff
10003eee:	23c8      	movs	r3, #200	@ 0xc8
10003ef0:	42aa      	cmp	r2, r5
10003ef2:	bf28      	it	cs
10003ef4:	462a      	movcs	r2, r5
10003ef6:	4c0b      	ldr	r4, [pc, #44]	@ (10003f24 <tud_cdc_n_write+0x3c>)
10003ef8:	b292      	uxth	r2, r2
10003efa:	fb03 4400 	mla	r4, r3, r0, r4
10003efe:	4605      	mov	r5, r0
10003f00:	4620      	mov	r0, r4
10003f02:	f000 fe0f 	bl	10004b24 <tu_fifo_write_n>
10003f06:	4603      	mov	r3, r0
10003f08:	4620      	mov	r0, r4
10003f0a:	461c      	mov	r4, r3
10003f0c:	f000 fcd6 	bl	100048bc <tu_fifo_count>
10003f10:	283f      	cmp	r0, #63	@ 0x3f
10003f12:	d801      	bhi.n	10003f18 <tud_cdc_n_write+0x30>
10003f14:	4620      	mov	r0, r4
10003f16:	bd38      	pop	{r3, r4, r5, pc}
10003f18:	4628      	mov	r0, r5
10003f1a:	f7ff ff9f 	bl	10003e5c <tud_cdc_n_write_flush>
10003f1e:	4620      	mov	r0, r4
10003f20:	bd38      	pop	{r3, r4, r5, pc}
10003f22:	bf00      	nop
10003f24:	20001c54 	.word	0x20001c54

10003f28 <tud_cdc_n_write_available>:
10003f28:	22c8      	movs	r2, #200	@ 0xc8
10003f2a:	b508      	push	{r3, lr}
10003f2c:	4b02      	ldr	r3, [pc, #8]	@ (10003f38 <tud_cdc_n_write_available+0x10>)
10003f2e:	fb02 3000 	mla	r0, r2, r0, r3
10003f32:	f000 fcdd 	bl	100048f0 <tu_fifo_remaining>
10003f36:	bd08      	pop	{r3, pc}
10003f38:	20001c54 	.word	0x20001c54

10003f3c <cdcd_init>:
10003f3c:	b5f0      	push	{r4, r5, r6, r7, lr}
10003f3e:	2400      	movs	r4, #0
10003f40:	b083      	sub	sp, #12
10003f42:	22c8      	movs	r2, #200	@ 0xc8
10003f44:	2100      	movs	r1, #0
10003f46:	4817      	ldr	r0, [pc, #92]	@ (10003fa4 <cdcd_init+0x68>)
10003f48:	f001 fa7a 	bl	10005440 <memset>
10003f4c:	23ff      	movs	r3, #255	@ 0xff
10003f4e:	f44f 31e1 	mov.w	r1, #115200	@ 0x1c200
10003f52:	2208      	movs	r2, #8
10003f54:	4814      	ldr	r0, [pc, #80]	@ (10003fa8 <cdcd_init+0x6c>)
10003f56:	7004      	strb	r4, [r0, #0]
10003f58:	4812      	ldr	r0, [pc, #72]	@ (10003fa4 <cdcd_init+0x68>)
10003f5a:	9400      	str	r4, [sp, #0]
10003f5c:	4607      	mov	r7, r0
10003f5e:	7143      	strb	r3, [r0, #5]
10003f60:	6081      	str	r1, [r0, #8]
10003f62:	7382      	strb	r2, [r0, #14]
10003f64:	f100 0138 	add.w	r1, r0, #56	@ 0x38
10003f68:	2301      	movs	r3, #1
10003f6a:	2240      	movs	r2, #64	@ 0x40
10003f6c:	3010      	adds	r0, #16
10003f6e:	f000 fc75 	bl	1000485c <tu_fifo_config>
10003f72:	2301      	movs	r3, #1
10003f74:	2240      	movs	r2, #64	@ 0x40
10003f76:	f107 0178 	add.w	r1, r7, #120	@ 0x78
10003f7a:	9300      	str	r3, [sp, #0]
10003f7c:	f107 06b8 	add.w	r6, r7, #184	@ 0xb8
10003f80:	f107 0024 	add.w	r0, r7, #36	@ 0x24
10003f84:	f000 fc6a 	bl	1000485c <tu_fifo_config>
10003f88:	f107 05c0 	add.w	r5, r7, #192	@ 0xc0
10003f8c:	4630      	mov	r0, r6
10003f8e:	f7fd f857 	bl	10001040 <mutex_init>
10003f92:	4628      	mov	r0, r5
10003f94:	f7fd f854 	bl	10001040 <mutex_init>
10003f98:	e9c7 4607 	strd	r4, r6, [r7, #28]
10003f9c:	e9c7 540c 	strd	r5, r4, [r7, #48]	@ 0x30
10003fa0:	b003      	add	sp, #12
10003fa2:	bdf0      	pop	{r4, r5, r6, r7, pc}
10003fa4:	20001c30 	.word	0x20001c30
10003fa8:	20001c2c 	.word	0x20001c2c

10003fac <cdcd_deinit>:
10003fac:	4a0a      	ldr	r2, [pc, #40]	@ (10003fd8 <cdcd_deinit+0x2c>)
10003fae:	6b11      	ldr	r1, [r2, #48]	@ 0x30
10003fb0:	6a13      	ldr	r3, [r2, #32]
10003fb2:	b161      	cbz	r1, 10003fce <cdcd_deinit+0x22>
10003fb4:	b13b      	cbz	r3, 10003fc6 <cdcd_deinit+0x1a>
10003fb6:	2300      	movs	r3, #0
10003fb8:	e9c2 330c 	strd	r3, r3, [r2, #48]	@ 0x30
10003fbc:	61d3      	str	r3, [r2, #28]
10003fbe:	2300      	movs	r3, #0
10003fc0:	6213      	str	r3, [r2, #32]
10003fc2:	2001      	movs	r0, #1
10003fc4:	4770      	bx	lr
10003fc6:	2001      	movs	r0, #1
10003fc8:	e9c2 330c 	strd	r3, r3, [r2, #48]	@ 0x30
10003fcc:	4770      	bx	lr
10003fce:	2b00      	cmp	r3, #0
10003fd0:	d0f7      	beq.n	10003fc2 <cdcd_deinit+0x16>
10003fd2:	61d1      	str	r1, [r2, #28]
10003fd4:	e7f3      	b.n	10003fbe <cdcd_deinit+0x12>
10003fd6:	bf00      	nop
10003fd8:	20001c30 	.word	0x20001c30

10003fdc <cdcd_reset>:
10003fdc:	2200      	movs	r2, #0
10003fde:	b510      	push	{r4, lr}
10003fe0:	4c0e      	ldr	r4, [pc, #56]	@ (1000401c <cdcd_reset+0x40>)
10003fe2:	480f      	ldr	r0, [pc, #60]	@ (10004020 <cdcd_reset+0x44>)
10003fe4:	7823      	ldrb	r3, [r4, #0]
10003fe6:	6002      	str	r2, [r0, #0]
10003fe8:	7102      	strb	r2, [r0, #4]
10003fea:	07da      	lsls	r2, r3, #31
10003fec:	d507      	bpl.n	10003ffe <cdcd_reset+0x22>
10003fee:	079b      	lsls	r3, r3, #30
10003ff0:	d50b      	bpl.n	1000400a <cdcd_reset+0x2e>
10003ff2:	e8bd 4010 	ldmia.w	sp!, {r4, lr}
10003ff6:	2101      	movs	r1, #1
10003ff8:	480a      	ldr	r0, [pc, #40]	@ (10004024 <cdcd_reset+0x48>)
10003ffa:	f000 be5d 	b.w	10004cb8 <tu_fifo_set_overwritable>
10003ffe:	3010      	adds	r0, #16
10004000:	f000 fe3e 	bl	10004c80 <tu_fifo_clear>
10004004:	7823      	ldrb	r3, [r4, #0]
10004006:	079b      	lsls	r3, r3, #30
10004008:	d4f3      	bmi.n	10003ff2 <cdcd_reset+0x16>
1000400a:	4806      	ldr	r0, [pc, #24]	@ (10004024 <cdcd_reset+0x48>)
1000400c:	f000 fe38 	bl	10004c80 <tu_fifo_clear>
10004010:	e8bd 4010 	ldmia.w	sp!, {r4, lr}
10004014:	2101      	movs	r1, #1
10004016:	4803      	ldr	r0, [pc, #12]	@ (10004024 <cdcd_reset+0x48>)
10004018:	f000 be4e 	b.w	10004cb8 <tu_fifo_set_overwritable>
1000401c:	20001c2c 	.word	0x20001c2c
10004020:	20001c30 	.word	0x20001c30
10004024:	20001c54 	.word	0x20001c54

10004028 <cdcd_open>:
10004028:	b5f0      	push	{r4, r5, r6, r7, lr}
1000402a:	794b      	ldrb	r3, [r1, #5]
1000402c:	b083      	sub	sp, #12
1000402e:	2b02      	cmp	r3, #2
10004030:	d102      	bne.n	10004038 <cdcd_open+0x10>
10004032:	798b      	ldrb	r3, [r1, #6]
10004034:	2b02      	cmp	r3, #2
10004036:	d003      	beq.n	10004040 <cdcd_open+0x18>
10004038:	2500      	movs	r5, #0
1000403a:	4628      	mov	r0, r5
1000403c:	b003      	add	sp, #12
1000403e:	bdf0      	pop	{r4, r5, r6, r7, pc}
10004040:	4f27      	ldr	r7, [pc, #156]	@ (100040e0 <cdcd_open+0xb8>)
10004042:	78bb      	ldrb	r3, [r7, #2]
10004044:	b13b      	cbz	r3, 10004056 <cdcd_open+0x2e>
10004046:	f04f 23e0 	mov.w	r3, #3758153728	@ 0xe000e000
1000404a:	f8d3 3df0 	ldr.w	r3, [r3, #3568]	@ 0xdf0
1000404e:	07db      	lsls	r3, r3, #31
10004050:	d5f2      	bpl.n	10004038 <cdcd_open+0x10>
10004052:	be00      	bkpt	0x0000
10004054:	e7f0      	b.n	10004038 <cdcd_open+0x10>
10004056:	788b      	ldrb	r3, [r1, #2]
10004058:	4606      	mov	r6, r0
1000405a:	703b      	strb	r3, [r7, #0]
1000405c:	780b      	ldrb	r3, [r1, #0]
1000405e:	18cc      	adds	r4, r1, r3
10004060:	7861      	ldrb	r1, [r4, #1]
10004062:	2924      	cmp	r1, #36	@ 0x24
10004064:	bf08      	it	eq
10004066:	2509      	moveq	r5, #9
10004068:	d007      	beq.n	1000407a <cdcd_open+0x52>
1000406a:	e036      	b.n	100040da <cdcd_open+0xb2>
1000406c:	7823      	ldrb	r3, [r4, #0]
1000406e:	441c      	add	r4, r3
10004070:	7861      	ldrb	r1, [r4, #1]
10004072:	442b      	add	r3, r5
10004074:	2924      	cmp	r1, #36	@ 0x24
10004076:	b29d      	uxth	r5, r3
10004078:	d107      	bne.n	1000408a <cdcd_open+0x62>
1000407a:	42aa      	cmp	r2, r5
1000407c:	d2f6      	bcs.n	1000406c <cdcd_open+0x44>
1000407e:	2000      	movs	r0, #0
10004080:	f7ff fe4a 	bl	10003d18 <_prep_out_transaction.isra.0>
10004084:	4628      	mov	r0, r5
10004086:	b003      	add	sp, #12
10004088:	bdf0      	pop	{r4, r5, r6, r7, pc}
1000408a:	460b      	mov	r3, r1
1000408c:	2905      	cmp	r1, #5
1000408e:	d016      	beq.n	100040be <cdcd_open+0x96>
10004090:	2b04      	cmp	r3, #4
10004092:	d1f4      	bne.n	1000407e <cdcd_open+0x56>
10004094:	7963      	ldrb	r3, [r4, #5]
10004096:	2b0a      	cmp	r3, #10
10004098:	d1f1      	bne.n	1000407e <cdcd_open+0x56>
1000409a:	4b12      	ldr	r3, [pc, #72]	@ (100040e4 <cdcd_open+0xbc>)
1000409c:	7827      	ldrb	r7, [r4, #0]
1000409e:	9301      	str	r3, [sp, #4]
100040a0:	3301      	adds	r3, #1
100040a2:	9300      	str	r3, [sp, #0]
100040a4:	2302      	movs	r3, #2
100040a6:	4630      	mov	r0, r6
100040a8:	461a      	mov	r2, r3
100040aa:	19e1      	adds	r1, r4, r7
100040ac:	f7ff fc58 	bl	10003960 <usbd_open_edpt_pair>
100040b0:	2800      	cmp	r0, #0
100040b2:	d0c8      	beq.n	10004046 <cdcd_open+0x1e>
100040b4:	350e      	adds	r5, #14
100040b6:	fa17 f585 	uxtah	r5, r7, r5
100040ba:	b2ad      	uxth	r5, r5
100040bc:	e7df      	b.n	1000407e <cdcd_open+0x56>
100040be:	4621      	mov	r1, r4
100040c0:	4630      	mov	r0, r6
100040c2:	f7ff fc9b 	bl	100039fc <usbd_edpt_open>
100040c6:	2800      	cmp	r0, #0
100040c8:	d0bd      	beq.n	10004046 <cdcd_open+0x1e>
100040ca:	78a3      	ldrb	r3, [r4, #2]
100040cc:	707b      	strb	r3, [r7, #1]
100040ce:	7823      	ldrb	r3, [r4, #0]
100040d0:	195a      	adds	r2, r3, r5
100040d2:	441c      	add	r4, r3
100040d4:	7863      	ldrb	r3, [r4, #1]
100040d6:	b295      	uxth	r5, r2
100040d8:	e7da      	b.n	10004090 <cdcd_open+0x68>
100040da:	460b      	mov	r3, r1
100040dc:	2509      	movs	r5, #9
100040de:	e7d5      	b.n	1000408c <cdcd_open+0x64>
100040e0:	20001c30 	.word	0x20001c30
100040e4:	20001c32 	.word	0x20001c32

100040e8 <cdcd_control_xfer_cb>:
100040e8:	7813      	ldrb	r3, [r2, #0]
100040ea:	f003 0360 	and.w	r3, r3, #96	@ 0x60
100040ee:	2b20      	cmp	r3, #32
100040f0:	d108      	bne.n	10004104 <cdcd_control_xfer_cb+0x1c>
100040f2:	b570      	push	{r4, r5, r6, lr}
100040f4:	4c26      	ldr	r4, [pc, #152]	@ (10004190 <cdcd_control_xfer_cb+0xa8>)
100040f6:	8893      	ldrh	r3, [r2, #4]
100040f8:	f894 c000 	ldrb.w	ip, [r4]
100040fc:	459c      	cmp	ip, r3
100040fe:	d003      	beq.n	10004108 <cdcd_control_xfer_cb+0x20>
10004100:	2000      	movs	r0, #0
10004102:	bd70      	pop	{r4, r5, r6, pc}
10004104:	2000      	movs	r0, #0
10004106:	4770      	bx	lr
10004108:	7853      	ldrb	r3, [r2, #1]
1000410a:	3b20      	subs	r3, #32
1000410c:	2b03      	cmp	r3, #3
1000410e:	d8f7      	bhi.n	10004100 <cdcd_control_xfer_cb+0x18>
10004110:	e8df f003 	tbb	[pc, r3]
10004114:	020d2327 	.word	0x020d2327
10004118:	2901      	cmp	r1, #1
1000411a:	d02e      	beq.n	1000417a <cdcd_control_xfer_cb+0x92>
1000411c:	2903      	cmp	r1, #3
1000411e:	d11e      	bne.n	1000415e <cdcd_control_xfer_cb+0x76>
10004120:	4b1c      	ldr	r3, [pc, #112]	@ (10004194 <cdcd_control_xfer_cb+0xac>)
10004122:	b1e3      	cbz	r3, 1000415e <cdcd_control_xfer_cb+0x76>
10004124:	2000      	movs	r0, #0
10004126:	8851      	ldrh	r1, [r2, #2]
10004128:	f3af 8000 	nop.w
1000412c:	e017      	b.n	1000415e <cdcd_control_xfer_cb+0x76>
1000412e:	2901      	cmp	r1, #1
10004130:	d023      	beq.n	1000417a <cdcd_control_xfer_cb+0x92>
10004132:	2903      	cmp	r1, #3
10004134:	d113      	bne.n	1000415e <cdcd_control_xfer_cb+0x76>
10004136:	8855      	ldrh	r5, [r2, #2]
10004138:	4817      	ldr	r0, [pc, #92]	@ (10004198 <cdcd_control_xfer_cb+0xb0>)
1000413a:	f005 0601 	and.w	r6, r5, #1
1000413e:	f086 0101 	eor.w	r1, r6, #1
10004142:	7125      	strb	r5, [r4, #4]
10004144:	f000 fdb8 	bl	10004cb8 <tu_fifo_set_overwritable>
10004148:	4b14      	ldr	r3, [pc, #80]	@ (1000419c <cdcd_control_xfer_cb+0xb4>)
1000414a:	b143      	cbz	r3, 1000415e <cdcd_control_xfer_cb+0x76>
1000414c:	4631      	mov	r1, r6
1000414e:	2000      	movs	r0, #0
10004150:	f3c5 0240 	ubfx	r2, r5, #1, #1
10004154:	f3af 8000 	nop.w
10004158:	e001      	b.n	1000415e <cdcd_control_xfer_cb+0x76>
1000415a:	2901      	cmp	r1, #1
1000415c:	d011      	beq.n	10004182 <cdcd_control_xfer_cb+0x9a>
1000415e:	2001      	movs	r0, #1
10004160:	bd70      	pop	{r4, r5, r6, pc}
10004162:	2901      	cmp	r1, #1
10004164:	d00d      	beq.n	10004182 <cdcd_control_xfer_cb+0x9a>
10004166:	2903      	cmp	r1, #3
10004168:	d1f9      	bne.n	1000415e <cdcd_control_xfer_cb+0x76>
1000416a:	4b0d      	ldr	r3, [pc, #52]	@ (100041a0 <cdcd_control_xfer_cb+0xb8>)
1000416c:	2b00      	cmp	r3, #0
1000416e:	d0f6      	beq.n	1000415e <cdcd_control_xfer_cb+0x76>
10004170:	2000      	movs	r0, #0
10004172:	490c      	ldr	r1, [pc, #48]	@ (100041a4 <cdcd_control_xfer_cb+0xbc>)
10004174:	f7fe faac 	bl	100026d0 <tud_cdc_line_coding_cb>
10004178:	e7f1      	b.n	1000415e <cdcd_control_xfer_cb+0x76>
1000417a:	4611      	mov	r1, r2
1000417c:	f7ff fcbc 	bl	10003af8 <tud_control_status>
10004180:	e7ed      	b.n	1000415e <cdcd_control_xfer_cb+0x76>
10004182:	4611      	mov	r1, r2
10004184:	2307      	movs	r3, #7
10004186:	4a07      	ldr	r2, [pc, #28]	@ (100041a4 <cdcd_control_xfer_cb+0xbc>)
10004188:	f7ff fcd0 	bl	10003b2c <tud_control_xfer>
1000418c:	e7e7      	b.n	1000415e <cdcd_control_xfer_cb+0x76>
1000418e:	bf00      	nop
10004190:	20001c30 	.word	0x20001c30
10004194:	00000000 	.word	0x00000000
10004198:	20001c54 	.word	0x20001c54
1000419c:	00000000 	.word	0x00000000
100041a0:	100026d1 	.word	0x100026d1
100041a4:	20001c38 	.word	0x20001c38

100041a8 <cdcd_xfer_cb>:
100041a8:	e92d 43f8 	stmdb	sp!, {r3, r4, r5, r6, r7, r8, r9, lr}
100041ac:	4e35      	ldr	r6, [pc, #212]	@ (10004284 <cdcd_xfer_cb+0xdc>)
100041ae:	460c      	mov	r4, r1
100041b0:	78f2      	ldrb	r2, [r6, #3]
100041b2:	4607      	mov	r7, r0
100041b4:	428a      	cmp	r2, r1
100041b6:	461d      	mov	r5, r3
100041b8:	d03d      	beq.n	10004236 <cdcd_xfer_cb+0x8e>
100041ba:	78b3      	ldrb	r3, [r6, #2]
100041bc:	428b      	cmp	r3, r1
100041be:	d012      	beq.n	100041e6 <cdcd_xfer_cb+0x3e>
100041c0:	f04f 23e0 	mov.w	r3, #3758153728	@ 0xe000e000
100041c4:	f8d3 3df0 	ldr.w	r3, [r3, #3568]	@ 0xdf0
100041c8:	07db      	lsls	r3, r3, #31
100041ca:	d432      	bmi.n	10004232 <cdcd_xfer_cb+0x8a>
100041cc:	2000      	movs	r0, #0
100041ce:	e8bd 83f8 	ldmia.w	sp!, {r3, r4, r5, r6, r7, r8, r9, pc}
100041d2:	4b2d      	ldr	r3, [pc, #180]	@ (10004288 <cdcd_xfer_cb+0xe0>)
100041d4:	b123      	cbz	r3, 100041e0 <cdcd_xfer_cb+0x38>
100041d6:	482d      	ldr	r0, [pc, #180]	@ (1000428c <cdcd_xfer_cb+0xe4>)
100041d8:	f000 fb80 	bl	100048dc <tu_fifo_empty>
100041dc:	2800      	cmp	r0, #0
100041de:	d04d      	beq.n	1000427c <cdcd_xfer_cb+0xd4>
100041e0:	2000      	movs	r0, #0
100041e2:	f7ff fd99 	bl	10003d18 <_prep_out_transaction.isra.0>
100041e6:	78b3      	ldrb	r3, [r6, #2]
100041e8:	42a3      	cmp	r3, r4
100041ea:	d001      	beq.n	100041f0 <cdcd_xfer_cb+0x48>
100041ec:	2001      	movs	r0, #1
100041ee:	e7ee      	b.n	100041ce <cdcd_xfer_cb+0x26>
100041f0:	4b27      	ldr	r3, [pc, #156]	@ (10004290 <cdcd_xfer_cb+0xe8>)
100041f2:	b113      	cbz	r3, 100041fa <cdcd_xfer_cb+0x52>
100041f4:	2000      	movs	r0, #0
100041f6:	f3af 8000 	nop.w
100041fa:	2000      	movs	r0, #0
100041fc:	f7ff fe2e 	bl	10003e5c <tud_cdc_n_write_flush>
10004200:	2800      	cmp	r0, #0
10004202:	d1f3      	bne.n	100041ec <cdcd_xfer_cb+0x44>
10004204:	4823      	ldr	r0, [pc, #140]	@ (10004294 <cdcd_xfer_cb+0xec>)
10004206:	f000 fb59 	bl	100048bc <tu_fifo_count>
1000420a:	2800      	cmp	r0, #0
1000420c:	d1ee      	bne.n	100041ec <cdcd_xfer_cb+0x44>
1000420e:	2d00      	cmp	r5, #0
10004210:	d0ec      	beq.n	100041ec <cdcd_xfer_cb+0x44>
10004212:	f015 053f 	ands.w	r5, r5, #63	@ 0x3f
10004216:	d1e9      	bne.n	100041ec <cdcd_xfer_cb+0x44>
10004218:	4638      	mov	r0, r7
1000421a:	78b1      	ldrb	r1, [r6, #2]
1000421c:	f7ff fc10 	bl	10003a40 <usbd_edpt_claim>
10004220:	2800      	cmp	r0, #0
10004222:	d0e3      	beq.n	100041ec <cdcd_xfer_cb+0x44>
10004224:	462b      	mov	r3, r5
10004226:	462a      	mov	r2, r5
10004228:	4638      	mov	r0, r7
1000422a:	78b1      	ldrb	r1, [r6, #2]
1000422c:	f7ff fc2c 	bl	10003a88 <usbd_edpt_xfer>
10004230:	e7dc      	b.n	100041ec <cdcd_xfer_cb+0x44>
10004232:	be00      	bkpt	0x0000
10004234:	e7ca      	b.n	100041cc <cdcd_xfer_cb+0x24>
10004236:	b29a      	uxth	r2, r3
10004238:	4917      	ldr	r1, [pc, #92]	@ (10004298 <cdcd_xfer_cb+0xf0>)
1000423a:	f106 0010 	add.w	r0, r6, #16
1000423e:	f000 fc71 	bl	10004b24 <tu_fifo_write_n>
10004242:	4b16      	ldr	r3, [pc, #88]	@ (1000429c <cdcd_xfer_cb+0xf4>)
10004244:	2b00      	cmp	r3, #0
10004246:	d0c4      	beq.n	100041d2 <cdcd_xfer_cb+0x2a>
10004248:	7973      	ldrb	r3, [r6, #5]
1000424a:	2bff      	cmp	r3, #255	@ 0xff
1000424c:	d0c1      	beq.n	100041d2 <cdcd_xfer_cb+0x2a>
1000424e:	2d00      	cmp	r5, #0
10004250:	d0bf      	beq.n	100041d2 <cdcd_xfer_cb+0x2a>
10004252:	f8df 8044 	ldr.w	r8, [pc, #68]	@ 10004298 <cdcd_xfer_cb+0xf0>
10004256:	eb08 0905 	add.w	r9, r8, r5
1000425a:	e002      	b.n	10004262 <cdcd_xfer_cb+0xba>
1000425c:	45c8      	cmp	r8, r9
1000425e:	d0b8      	beq.n	100041d2 <cdcd_xfer_cb+0x2a>
10004260:	7973      	ldrb	r3, [r6, #5]
10004262:	f818 2b01 	ldrb.w	r2, [r8], #1
10004266:	429a      	cmp	r2, r3
10004268:	d1f8      	bne.n	1000425c <cdcd_xfer_cb+0xb4>
1000426a:	4808      	ldr	r0, [pc, #32]	@ (1000428c <cdcd_xfer_cb+0xe4>)
1000426c:	f000 fb36 	bl	100048dc <tu_fifo_empty>
10004270:	2800      	cmp	r0, #0
10004272:	d1f3      	bne.n	1000425c <cdcd_xfer_cb+0xb4>
10004274:	7971      	ldrb	r1, [r6, #5]
10004276:	f3af 8000 	nop.w
1000427a:	e7ef      	b.n	1000425c <cdcd_xfer_cb+0xb4>
1000427c:	f3af 8000 	nop.w
10004280:	e7ae      	b.n	100041e0 <cdcd_xfer_cb+0x38>
10004282:	bf00      	nop
10004284:	20001c30 	.word	0x20001c30
10004288:	00000000 	.word	0x00000000
1000428c:	20001c40 	.word	0x20001c40
10004290:	00000000 	.word	0x00000000
10004294:	20001c54 	.word	0x20001c54
10004298:	20001bac 	.word	0x20001bac
1000429c:	00000000 	.word	0x00000000

100042a0 <vendord_init>:
100042a0:	b5f0      	push	{r4, r5, r6, r7, lr}
100042a2:	f44f 7213 	mov.w	r2, #588	@ 0x24c
100042a6:	b085      	sub	sp, #20
100042a8:	2100      	movs	r1, #0
100042aa:	4812      	ldr	r0, [pc, #72]	@ (100042f4 <vendord_init+0x54>)
100042ac:	f001 f8c8 	bl	10005440 <memset>
100042b0:	2640      	movs	r6, #64	@ 0x40
100042b2:	2300      	movs	r3, #0
100042b4:	f44f 7580 	mov.w	r5, #256	@ 0x100
100042b8:	4f0e      	ldr	r7, [pc, #56]	@ (100042f4 <vendord_init+0x54>)
100042ba:	4c0f      	ldr	r4, [pc, #60]	@ (100042f8 <vendord_init+0x58>)
100042bc:	f507 72a6 	add.w	r2, r7, #332	@ 0x14c
100042c0:	4619      	mov	r1, r3
100042c2:	e9cd 4602 	strd	r4, r6, [sp, #8]
100042c6:	9200      	str	r2, [sp, #0]
100042c8:	9501      	str	r5, [sp, #4]
100042ca:	461a      	mov	r2, r3
100042cc:	f507 7094 	add.w	r0, r7, #296	@ 0x128
100042d0:	f000 f9c6 	bl	10004660 <tu_edpt_stream_init>
100042d4:	2300      	movs	r3, #0
100042d6:	4638      	mov	r0, r7
100042d8:	f107 0128 	add.w	r1, r7, #40	@ 0x28
100042dc:	4434      	add	r4, r6
100042de:	9100      	str	r1, [sp, #0]
100042e0:	2201      	movs	r2, #1
100042e2:	4619      	mov	r1, r3
100042e4:	e9cd 4602 	strd	r4, r6, [sp, #8]
100042e8:	9501      	str	r5, [sp, #4]
100042ea:	3004      	adds	r0, #4
100042ec:	f000 f9b8 	bl	10004660 <tu_edpt_stream_init>
100042f0:	b005      	add	sp, #20
100042f2:	bdf0      	pop	{r4, r5, r6, r7, pc}
100042f4:	20001f14 	.word	0x20001f14
100042f8:	20001e94 	.word	0x20001e94

100042fc <vendord_deinit>:
100042fc:	b508      	push	{r3, lr}
100042fe:	4805      	ldr	r0, [pc, #20]	@ (10004314 <vendord_deinit+0x18>)
10004300:	f000 f9da 	bl	100046b8 <tu_edpt_stream_deinit>
10004304:	4b03      	ldr	r3, [pc, #12]	@ (10004314 <vendord_deinit+0x18>)
10004306:	f5a3 7092 	sub.w	r0, r3, #292	@ 0x124
1000430a:	f000 f9d5 	bl	100046b8 <tu_edpt_stream_deinit>
1000430e:	2001      	movs	r0, #1
10004310:	bd08      	pop	{r3, pc}
10004312:	bf00      	nop
10004314:	2000203c 	.word	0x2000203c

10004318 <vendord_reset>:
10004318:	b538      	push	{r3, r4, r5, lr}
1000431a:	2500      	movs	r5, #0
1000431c:	4c06      	ldr	r4, [pc, #24]	@ (10004338 <vendord_reset+0x20>)
1000431e:	f504 7098 	add.w	r0, r4, #304	@ 0x130
10004322:	7025      	strb	r5, [r4, #0]
10004324:	f000 fcac 	bl	10004c80 <tu_fifo_clear>
10004328:	f104 000c 	add.w	r0, r4, #12
1000432c:	f000 fca8 	bl	10004c80 <tu_fifo_clear>
10004330:	f884 5129 	strb.w	r5, [r4, #297]	@ 0x129
10004334:	7165      	strb	r5, [r4, #5]
10004336:	bd38      	pop	{r3, r4, r5, pc}
10004338:	20001f14 	.word	0x20001f14

1000433c <vendord_open>:
1000433c:	e92d 43f8 	stmdb	sp!, {r3, r4, r5, r6, r7, r8, r9, lr}
10004340:	794b      	ldrb	r3, [r1, #5]
10004342:	2bff      	cmp	r3, #255	@ 0xff
10004344:	d151      	bne.n	100043ea <vendord_open+0xae>
10004346:	4e35      	ldr	r6, [pc, #212]	@ (1000441c <vendord_open+0xe0>)
10004348:	f896 3129 	ldrb.w	r3, [r6, #297]	@ 0x129
1000434c:	2b00      	cmp	r3, #0
1000434e:	d14c      	bne.n	100043ea <vendord_open+0xae>
10004350:	f896 8005 	ldrb.w	r8, [r6, #5]
10004354:	f1b8 0f00 	cmp.w	r8, #0
10004358:	d147      	bne.n	100043ea <vendord_open+0xae>
1000435a:	788b      	ldrb	r3, [r1, #2]
1000435c:	780c      	ldrb	r4, [r1, #0]
1000435e:	7033      	strb	r3, [r6, #0]
10004360:	790b      	ldrb	r3, [r1, #4]
10004362:	460f      	mov	r7, r1
10004364:	440c      	add	r4, r1
10004366:	b3ab      	cbz	r3, 100043d4 <vendord_open+0x98>
10004368:	4681      	mov	r9, r0
1000436a:	18a5      	adds	r5, r4, r2
1000436c:	e003      	b.n	10004376 <vendord_open+0x3a>
1000436e:	42a5      	cmp	r5, r4
10004370:	d930      	bls.n	100043d4 <vendord_open+0x98>
10004372:	7823      	ldrb	r3, [r4, #0]
10004374:	441c      	add	r4, r3
10004376:	7863      	ldrb	r3, [r4, #1]
10004378:	2b05      	cmp	r3, #5
1000437a:	d1f8      	bne.n	1000436e <vendord_open+0x32>
1000437c:	42ac      	cmp	r4, r5
1000437e:	d229      	bcs.n	100043d4 <vendord_open+0x98>
10004380:	4621      	mov	r1, r4
10004382:	4648      	mov	r0, r9
10004384:	f7ff fb3a 	bl	100039fc <usbd_edpt_open>
10004388:	b340      	cbz	r0, 100043dc <vendord_open+0xa0>
1000438a:	78a3      	ldrb	r3, [r4, #2]
1000438c:	09db      	lsrs	r3, r3, #7
1000438e:	d12f      	bne.n	100043f0 <vendord_open+0xb4>
10004390:	4823      	ldr	r0, [pc, #140]	@ (10004420 <vendord_open+0xe4>)
10004392:	f000 fc75 	bl	10004c80 <tu_fifo_clear>
10004396:	78a3      	ldrb	r3, [r4, #2]
10004398:	f896 2128 	ldrb.w	r2, [r6, #296]	@ 0x128
1000439c:	f886 3129 	strb.w	r3, [r6, #297]	@ 0x129
100043a0:	88a3      	ldrh	r3, [r4, #4]
100043a2:	4648      	mov	r0, r9
100043a4:	f3c3 030a 	ubfx	r3, r3, #0, #11
100043a8:	f5a3 7300 	sub.w	r3, r3, #512	@ 0x200
100043ac:	fab3 f383 	clz	r3, r3
100043b0:	095b      	lsrs	r3, r3, #5
100043b2:	f363 0241 	bfi	r2, r3, #1, #1
100043b6:	491b      	ldr	r1, [pc, #108]	@ (10004424 <vendord_open+0xe8>)
100043b8:	f886 2128 	strb.w	r2, [r6, #296]	@ 0x128
100043bc:	f000 f9ea 	bl	10004794 <tu_edpt_stream_read_xfer>
100043c0:	b160      	cbz	r0, 100043dc <vendord_open+0xa0>
100043c2:	7823      	ldrb	r3, [r4, #0]
100043c4:	793a      	ldrb	r2, [r7, #4]
100043c6:	f108 0801 	add.w	r8, r8, #1
100043ca:	441c      	add	r4, r3
100043cc:	fa5f f388 	uxtb.w	r3, r8
100043d0:	429a      	cmp	r2, r3
100043d2:	d8d0      	bhi.n	10004376 <vendord_open+0x3a>
100043d4:	1be1      	subs	r1, r4, r7
100043d6:	b288      	uxth	r0, r1
100043d8:	e8bd 83f8 	ldmia.w	sp!, {r3, r4, r5, r6, r7, r8, r9, pc}
100043dc:	f04f 23e0 	mov.w	r3, #3758153728	@ 0xe000e000
100043e0:	f8d3 3df0 	ldr.w	r3, [r3, #3568]	@ 0xdf0
100043e4:	07db      	lsls	r3, r3, #31
100043e6:	d500      	bpl.n	100043ea <vendord_open+0xae>
100043e8:	be00      	bkpt	0x0000
100043ea:	2000      	movs	r0, #0
100043ec:	e8bd 83f8 	ldmia.w	sp!, {r3, r4, r5, r6, r7, r8, r9, pc}
100043f0:	480d      	ldr	r0, [pc, #52]	@ (10004428 <vendord_open+0xec>)
100043f2:	f000 fc45 	bl	10004c80 <tu_fifo_clear>
100043f6:	78a3      	ldrb	r3, [r4, #2]
100043f8:	7932      	ldrb	r2, [r6, #4]
100043fa:	7173      	strb	r3, [r6, #5]
100043fc:	88a3      	ldrh	r3, [r4, #4]
100043fe:	490b      	ldr	r1, [pc, #44]	@ (1000442c <vendord_open+0xf0>)
10004400:	f3c3 030a 	ubfx	r3, r3, #0, #11
10004404:	f5a3 7300 	sub.w	r3, r3, #512	@ 0x200
10004408:	fab3 f383 	clz	r3, r3
1000440c:	095b      	lsrs	r3, r3, #5
1000440e:	f363 0241 	bfi	r2, r3, #1, #1
10004412:	2000      	movs	r0, #0
10004414:	7132      	strb	r2, [r6, #4]
10004416:	f000 f985 	bl	10004724 <tu_edpt_stream_write_xfer>
1000441a:	e7d2      	b.n	100043c2 <vendord_open+0x86>
1000441c:	20001f14 	.word	0x20001f14
10004420:	20002044 	.word	0x20002044
10004424:	2000203c 	.word	0x2000203c
10004428:	20001f20 	.word	0x20001f20
1000442c:	20001f18 	.word	0x20001f18

10004430 <vendord_xfer_cb>:
10004430:	b570      	push	{r4, r5, r6, lr}
10004432:	4c1b      	ldr	r4, [pc, #108]	@ (100044a0 <vendord_xfer_cb+0x70>)
10004434:	4606      	mov	r6, r0
10004436:	f894 c129 	ldrb.w	ip, [r4, #297]	@ 0x129
1000443a:	461d      	mov	r5, r3
1000443c:	458c      	cmp	ip, r1
1000443e:	d011      	beq.n	10004464 <vendord_xfer_cb+0x34>
10004440:	7963      	ldrb	r3, [r4, #5]
10004442:	428b      	cmp	r3, r1
10004444:	d001      	beq.n	1000444a <vendord_xfer_cb+0x1a>
10004446:	2000      	movs	r0, #0
10004448:	bd70      	pop	{r4, r5, r6, pc}
1000444a:	4b16      	ldr	r3, [pc, #88]	@ (100044a4 <vendord_xfer_cb+0x74>)
1000444c:	b11b      	cbz	r3, 10004456 <vendord_xfer_cb+0x26>
1000444e:	2000      	movs	r0, #0
10004450:	b2a9      	uxth	r1, r5
10004452:	f3af 8000 	nop.w
10004456:	4630      	mov	r0, r6
10004458:	4913      	ldr	r1, [pc, #76]	@ (100044a8 <vendord_xfer_cb+0x78>)
1000445a:	f000 f963 	bl	10004724 <tu_edpt_stream_write_xfer>
1000445e:	b1c8      	cbz	r0, 10004494 <vendord_xfer_cb+0x64>
10004460:	2001      	movs	r0, #1
10004462:	bd70      	pop	{r4, r5, r6, pc}
10004464:	f8b4 3134 	ldrh.w	r3, [r4, #308]	@ 0x134
10004468:	b963      	cbnz	r3, 10004484 <vendord_xfer_cb+0x54>
1000446a:	4b10      	ldr	r3, [pc, #64]	@ (100044ac <vendord_xfer_cb+0x7c>)
1000446c:	b123      	cbz	r3, 10004478 <vendord_xfer_cb+0x48>
1000446e:	2000      	movs	r0, #0
10004470:	490f      	ldr	r1, [pc, #60]	@ (100044b0 <vendord_xfer_cb+0x80>)
10004472:	b2aa      	uxth	r2, r5
10004474:	f3af 8000 	nop.w
10004478:	4630      	mov	r0, r6
1000447a:	490e      	ldr	r1, [pc, #56]	@ (100044b4 <vendord_xfer_cb+0x84>)
1000447c:	f000 f98a 	bl	10004794 <tu_edpt_stream_read_xfer>
10004480:	2001      	movs	r0, #1
10004482:	e7ee      	b.n	10004462 <vendord_xfer_cb+0x32>
10004484:	f8d4 112c 	ldr.w	r1, [r4, #300]	@ 0x12c
10004488:	b2aa      	uxth	r2, r5
1000448a:	f504 7098 	add.w	r0, r4, #304	@ 0x130
1000448e:	f000 fb49 	bl	10004b24 <tu_fifo_write_n>
10004492:	e7ea      	b.n	1000446a <vendord_xfer_cb+0x3a>
10004494:	462a      	mov	r2, r5
10004496:	4630      	mov	r0, r6
10004498:	4903      	ldr	r1, [pc, #12]	@ (100044a8 <vendord_xfer_cb+0x78>)
1000449a:	f000 f90f 	bl	100046bc <tu_edpt_stream_write_zlp_if_needed>
1000449e:	e7df      	b.n	10004460 <vendord_xfer_cb+0x30>
100044a0:	20001f14 	.word	0x20001f14
100044a4:	00000000 	.word	0x00000000
100044a8:	20001f18 	.word	0x20001f18
100044ac:	00000000 	.word	0x00000000
100044b0:	20001e94 	.word	0x20001e94
100044b4:	2000203c 	.word	0x2000203c

100044b8 <tusb_rhport_init>:
100044b8:	b510      	push	{r4, lr}
100044ba:	b082      	sub	sp, #8
100044bc:	b1c9      	cbz	r1, 100044f2 <tusb_rhport_init+0x3a>
100044be:	2801      	cmp	r0, #1
100044c0:	d80c      	bhi.n	100044dc <tusb_rhport_init+0x24>
100044c2:	780b      	ldrb	r3, [r1, #0]
100044c4:	b153      	cbz	r3, 100044dc <tusb_rhport_init+0x24>
100044c6:	4c14      	ldr	r4, [pc, #80]	@ (10004518 <tusb_rhport_init+0x60>)
100044c8:	2b01      	cmp	r3, #1
100044ca:	5423      	strb	r3, [r4, r0]
100044cc:	d002      	beq.n	100044d4 <tusb_rhport_init+0x1c>
100044ce:	2001      	movs	r0, #1
100044d0:	b002      	add	sp, #8
100044d2:	bd10      	pop	{r4, pc}
100044d4:	f7fe fe08 	bl	100030e8 <tud_rhport_init>
100044d8:	2800      	cmp	r0, #0
100044da:	d1f8      	bne.n	100044ce <tusb_rhport_init+0x16>
100044dc:	f04f 23e0 	mov.w	r3, #3758153728	@ 0xe000e000
100044e0:	f8d3 3df0 	ldr.w	r3, [r3, #3568]	@ 0xdf0
100044e4:	07db      	lsls	r3, r3, #31
100044e6:	d402      	bmi.n	100044ee <tusb_rhport_init+0x36>
100044e8:	2000      	movs	r0, #0
100044ea:	b002      	add	sp, #8
100044ec:	bd10      	pop	{r4, pc}
100044ee:	be00      	bkpt	0x0000
100044f0:	e7fa      	b.n	100044e8 <tusb_rhport_init+0x30>
100044f2:	2401      	movs	r4, #1
100044f4:	4608      	mov	r0, r1
100044f6:	a901      	add	r1, sp, #4
100044f8:	f8ad 4004 	strh.w	r4, [sp, #4]
100044fc:	f7fe fdf4 	bl	100030e8 <tud_rhport_init>
10004500:	b938      	cbnz	r0, 10004512 <tusb_rhport_init+0x5a>
10004502:	f04f 23e0 	mov.w	r3, #3758153728	@ 0xe000e000
10004506:	f8d3 3df0 	ldr.w	r3, [r3, #3568]	@ 0xdf0
1000450a:	07da      	lsls	r2, r3, #31
1000450c:	d5ed      	bpl.n	100044ea <tusb_rhport_init+0x32>
1000450e:	be00      	bkpt	0x0000
10004510:	e7eb      	b.n	100044ea <tusb_rhport_init+0x32>
10004512:	4b01      	ldr	r3, [pc, #4]	@ (10004518 <tusb_rhport_init+0x60>)
10004514:	701c      	strb	r4, [r3, #0]
10004516:	e7e8      	b.n	100044ea <tusb_rhport_init+0x32>
10004518:	20001d6c 	.word	0x20001d6c

1000451c <tu_edpt_claim>:
1000451c:	b5f8      	push	{r3, r4, r5, r6, r7, lr}
1000451e:	7803      	ldrb	r3, [r0, #0]
10004520:	f013 0401 	ands.w	r4, r3, #1
10004524:	d11a      	bne.n	1000455c <tu_edpt_claim+0x40>
10004526:	7803      	ldrb	r3, [r0, #0]
10004528:	4605      	mov	r5, r0
1000452a:	075a      	lsls	r2, r3, #29
1000452c:	f3c3 0780 	ubfx	r7, r3, #2, #1
10004530:	d501      	bpl.n	10004536 <tu_edpt_claim+0x1a>
10004532:	4620      	mov	r0, r4
10004534:	bdf8      	pop	{r3, r4, r5, r6, r7, pc}
10004536:	460e      	mov	r6, r1
10004538:	f04f 31ff 	mov.w	r1, #4294967295	@ 0xffffffff
1000453c:	4630      	mov	r0, r6
1000453e:	f001 f9f3 	bl	10005928 <__mutex_enter_timeout_ms_veneer>
10004542:	782b      	ldrb	r3, [r5, #0]
10004544:	f013 0401 	ands.w	r4, r3, #1
10004548:	d10b      	bne.n	10004562 <tu_edpt_claim+0x46>
1000454a:	782b      	ldrb	r3, [r5, #0]
1000454c:	075b      	lsls	r3, r3, #29
1000454e:	d409      	bmi.n	10004564 <tu_edpt_claim+0x48>
10004550:	782b      	ldrb	r3, [r5, #0]
10004552:	2401      	movs	r4, #1
10004554:	f043 0304 	orr.w	r3, r3, #4
10004558:	702b      	strb	r3, [r5, #0]
1000455a:	e003      	b.n	10004564 <tu_edpt_claim+0x48>
1000455c:	2400      	movs	r4, #0
1000455e:	4620      	mov	r0, r4
10004560:	bdf8      	pop	{r3, r4, r5, r6, r7, pc}
10004562:	463c      	mov	r4, r7
10004564:	4630      	mov	r0, r6
10004566:	f001 f9ef 	bl	10005948 <__mutex_exit_veneer>
1000456a:	4620      	mov	r0, r4
1000456c:	bdf8      	pop	{r3, r4, r5, r6, r7, pc}
1000456e:	bf00      	nop

10004570 <tu_edpt_release>:
10004570:	b570      	push	{r4, r5, r6, lr}
10004572:	460c      	mov	r4, r1
10004574:	4605      	mov	r5, r0
10004576:	f04f 31ff 	mov.w	r1, #4294967295	@ 0xffffffff
1000457a:	4620      	mov	r0, r4
1000457c:	f001 f9d4 	bl	10005928 <__mutex_enter_timeout_ms_veneer>
10004580:	782b      	ldrb	r3, [r5, #0]
10004582:	f3c3 0680 	ubfx	r6, r3, #2, #1
10004586:	075b      	lsls	r3, r3, #29
10004588:	d508      	bpl.n	1000459c <tu_edpt_release+0x2c>
1000458a:	782b      	ldrb	r3, [r5, #0]
1000458c:	f013 0301 	ands.w	r3, r3, #1
10004590:	bf11      	iteee	ne
10004592:	2600      	movne	r6, #0
10004594:	782a      	ldrbeq	r2, [r5, #0]
10004596:	f363 0282 	bfieq	r2, r3, #2, #1
1000459a:	702a      	strbeq	r2, [r5, #0]
1000459c:	4620      	mov	r0, r4
1000459e:	f001 f9d3 	bl	10005948 <__mutex_exit_veneer>
100045a2:	4630      	mov	r0, r6
100045a4:	bd70      	pop	{r4, r5, r6, pc}
100045a6:	bf00      	nop

100045a8 <tu_edpt_validate>:
100045a8:	78c3      	ldrb	r3, [r0, #3]
100045aa:	8882      	ldrh	r2, [r0, #4]
100045ac:	f003 0003 	and.w	r0, r3, #3
100045b0:	2802      	cmp	r0, #2
100045b2:	f3c2 020a 	ubfx	r2, r2, #0, #11
100045b6:	d015      	beq.n	100045e4 <tu_edpt_validate+0x3c>
100045b8:	2803      	cmp	r0, #3
100045ba:	d00a      	beq.n	100045d2 <tu_edpt_validate+0x2a>
100045bc:	2801      	cmp	r0, #1
100045be:	d11c      	bne.n	100045fa <tu_edpt_validate+0x52>
100045c0:	2902      	cmp	r1, #2
100045c2:	f240 33ff 	movw	r3, #1023	@ 0x3ff
100045c6:	bf08      	it	eq
100045c8:	f44f 6380 	moveq.w	r3, #1024	@ 0x400
100045cc:	4293      	cmp	r3, r2
100045ce:	d30d      	bcc.n	100045ec <tu_edpt_validate+0x44>
100045d0:	4770      	bx	lr
100045d2:	2902      	cmp	r1, #2
100045d4:	bf14      	ite	ne
100045d6:	2340      	movne	r3, #64	@ 0x40
100045d8:	f44f 6380 	moveq.w	r3, #1024	@ 0x400
100045dc:	4293      	cmp	r3, r2
100045de:	d305      	bcc.n	100045ec <tu_edpt_validate+0x44>
100045e0:	2001      	movs	r0, #1
100045e2:	4770      	bx	lr
100045e4:	2902      	cmp	r1, #2
100045e6:	d00a      	beq.n	100045fe <tu_edpt_validate+0x56>
100045e8:	2a40      	cmp	r2, #64	@ 0x40
100045ea:	d9f9      	bls.n	100045e0 <tu_edpt_validate+0x38>
100045ec:	f04f 23e0 	mov.w	r3, #3758153728	@ 0xe000e000
100045f0:	f8d3 3df0 	ldr.w	r3, [r3, #3568]	@ 0xdf0
100045f4:	07db      	lsls	r3, r3, #31
100045f6:	d500      	bpl.n	100045fa <tu_edpt_validate+0x52>
100045f8:	be00      	bkpt	0x0000
100045fa:	2000      	movs	r0, #0
100045fc:	4770      	bx	lr
100045fe:	f5b2 7f00 	cmp.w	r2, #512	@ 0x200
10004602:	d0ed      	beq.n	100045e0 <tu_edpt_validate+0x38>
10004604:	e7f2      	b.n	100045ec <tu_edpt_validate+0x44>
10004606:	bf00      	nop

10004608 <tu_edpt_bind_driver>:
10004608:	440a      	add	r2, r1
1000460a:	4291      	cmp	r1, r2
1000460c:	d226      	bcs.n	1000465c <tu_edpt_bind_driver+0x54>
1000460e:	f891 c001 	ldrb.w	ip, [r1, #1]
10004612:	f1bc 0f05 	cmp.w	ip, #5
10004616:	d005      	beq.n	10004624 <tu_edpt_bind_driver+0x1c>
10004618:	f891 c000 	ldrb.w	ip, [r1]
1000461c:	4461      	add	r1, ip
1000461e:	428a      	cmp	r2, r1
10004620:	d8f5      	bhi.n	1000460e <tu_edpt_bind_driver+0x6>
10004622:	4770      	bx	lr
10004624:	b500      	push	{lr}
10004626:	f891 c002 	ldrb.w	ip, [r1, #2]
1000462a:	f00c 0e7f 	and.w	lr, ip, #127	@ 0x7f
1000462e:	eb00 0e4e 	add.w	lr, r0, lr, lsl #1
10004632:	ea4f 1cdc 	mov.w	ip, ip, lsr #7
10004636:	f80e 300c 	strb.w	r3, [lr, ip]
1000463a:	f891 c000 	ldrb.w	ip, [r1]
1000463e:	4461      	add	r1, ip
10004640:	428a      	cmp	r2, r1
10004642:	d909      	bls.n	10004658 <tu_edpt_bind_driver+0x50>
10004644:	f891 c001 	ldrb.w	ip, [r1, #1]
10004648:	f1bc 0f05 	cmp.w	ip, #5
1000464c:	d0eb      	beq.n	10004626 <tu_edpt_bind_driver+0x1e>
1000464e:	f891 c000 	ldrb.w	ip, [r1]
10004652:	4461      	add	r1, ip
10004654:	428a      	cmp	r2, r1
10004656:	d8f5      	bhi.n	10004644 <tu_edpt_bind_driver+0x3c>
10004658:	f85d fb04 	ldr.w	pc, [sp], #4
1000465c:	4770      	bx	lr
1000465e:	bf00      	nop

10004660 <tu_edpt_stream_init>:
10004660:	e92d 41f0 	stmdb	sp!, {r4, r5, r6, r7, r8, lr}
10004664:	468e      	mov	lr, r1
10004666:	b082      	sub	sp, #8
10004668:	9300      	str	r3, [sp, #0]
1000466a:	f890 c000 	ldrb.w	ip, [r0]
1000466e:	9e08      	ldr	r6, [sp, #32]
10004670:	f8bd 7024 	ldrh.w	r7, [sp, #36]	@ 0x24
10004674:	f36e 0c00 	bfi	ip, lr, #0, #1
10004678:	4604      	mov	r4, r0
1000467a:	4615      	mov	r5, r2
1000467c:	2301      	movs	r3, #1
1000467e:	4631      	mov	r1, r6
10004680:	463a      	mov	r2, r7
10004682:	f800 cb08 	strb.w	ip, [r0], #8
10004686:	f8bd 802c 	ldrh.w	r8, [sp, #44]	@ 0x2c
1000468a:	f000 f8e7 	bl	1000485c <tu_fifo_config>
1000468e:	b106      	cbz	r6, 10004692 <tu_edpt_stream_init+0x32>
10004690:	b93f      	cbnz	r7, 100046a2 <tu_edpt_stream_init+0x42>
10004692:	2001      	movs	r0, #1
10004694:	9b0a      	ldr	r3, [sp, #40]	@ 0x28
10004696:	f8a4 8002 	strh.w	r8, [r4, #2]
1000469a:	6063      	str	r3, [r4, #4]
1000469c:	b002      	add	sp, #8
1000469e:	e8bd 81f0 	ldmia.w	sp!, {r4, r5, r6, r7, r8, pc}
100046a2:	f104 061c 	add.w	r6, r4, #28
100046a6:	4630      	mov	r0, r6
100046a8:	f7fc fcca 	bl	10001040 <mutex_init>
100046ac:	b10d      	cbz	r5, 100046b2 <tu_edpt_stream_init+0x52>
100046ae:	4635      	mov	r5, r6
100046b0:	2600      	movs	r6, #0
100046b2:	e9c4 5605 	strd	r5, r6, [r4, #20]
100046b6:	e7ec      	b.n	10004692 <tu_edpt_stream_init+0x32>

100046b8 <tu_edpt_stream_deinit>:
100046b8:	2001      	movs	r0, #1
100046ba:	4770      	bx	lr

100046bc <tu_edpt_stream_write_zlp_if_needed>:
100046bc:	b5f8      	push	{r3, r4, r5, r6, r7, lr}
100046be:	4607      	mov	r7, r0
100046c0:	4608      	mov	r0, r1
100046c2:	f240 13ff 	movw	r3, #511	@ 0x1ff
100046c6:	4615      	mov	r5, r2
100046c8:	f810 2b08 	ldrb.w	r2, [r0], #8
100046cc:	460c      	mov	r4, r1
100046ce:	f012 0f02 	tst.w	r2, #2
100046d2:	bf0c      	ite	eq
100046d4:	263f      	moveq	r6, #63	@ 0x3f
100046d6:	461e      	movne	r6, r3
100046d8:	f000 f8f0 	bl	100048bc <tu_fifo_count>
100046dc:	b928      	cbnz	r0, 100046ea <tu_edpt_stream_write_zlp_if_needed+0x2e>
100046de:	b125      	cbz	r5, 100046ea <tu_edpt_stream_write_zlp_if_needed+0x2e>
100046e0:	422e      	tst	r6, r5
100046e2:	d102      	bne.n	100046ea <tu_edpt_stream_write_zlp_if_needed+0x2e>
100046e4:	7823      	ldrb	r3, [r4, #0]
100046e6:	07da      	lsls	r2, r3, #31
100046e8:	d501      	bpl.n	100046ee <tu_edpt_stream_write_zlp_if_needed+0x32>
100046ea:	2000      	movs	r0, #0
100046ec:	bdf8      	pop	{r3, r4, r5, r6, r7, pc}
100046ee:	4638      	mov	r0, r7
100046f0:	7861      	ldrb	r1, [r4, #1]
100046f2:	f7ff f9a5 	bl	10003a40 <usbd_edpt_claim>
100046f6:	2800      	cmp	r0, #0
100046f8:	d0f7      	beq.n	100046ea <tu_edpt_stream_write_zlp_if_needed+0x2e>
100046fa:	7823      	ldrb	r3, [r4, #0]
100046fc:	f013 0301 	ands.w	r3, r3, #1
10004700:	d007      	beq.n	10004712 <tu_edpt_stream_write_zlp_if_needed+0x56>
10004702:	f04f 23e0 	mov.w	r3, #3758153728	@ 0xe000e000
10004706:	f8d3 3df0 	ldr.w	r3, [r3, #3568]	@ 0xdf0
1000470a:	07db      	lsls	r3, r3, #31
1000470c:	d5ed      	bpl.n	100046ea <tu_edpt_stream_write_zlp_if_needed+0x2e>
1000470e:	be00      	bkpt	0x0000
10004710:	e7eb      	b.n	100046ea <tu_edpt_stream_write_zlp_if_needed+0x2e>
10004712:	461a      	mov	r2, r3
10004714:	4638      	mov	r0, r7
10004716:	7861      	ldrb	r1, [r4, #1]
10004718:	f7ff f9b6 	bl	10003a88 <usbd_edpt_xfer>
1000471c:	2800      	cmp	r0, #0
1000471e:	d0f0      	beq.n	10004702 <tu_edpt_stream_write_zlp_if_needed+0x46>
10004720:	bdf8      	pop	{r3, r4, r5, r6, r7, pc}
10004722:	bf00      	nop

10004724 <tu_edpt_stream_write_xfer>:
10004724:	b570      	push	{r4, r5, r6, lr}
10004726:	f101 0508 	add.w	r5, r1, #8
1000472a:	4606      	mov	r6, r0
1000472c:	4628      	mov	r0, r5
1000472e:	460c      	mov	r4, r1
10004730:	f000 f8c4 	bl	100048bc <tu_fifo_count>
10004734:	b110      	cbz	r0, 1000473c <tu_edpt_stream_write_xfer+0x18>
10004736:	7823      	ldrb	r3, [r4, #0]
10004738:	07da      	lsls	r2, r3, #31
1000473a:	d501      	bpl.n	10004740 <tu_edpt_stream_write_xfer+0x1c>
1000473c:	2000      	movs	r0, #0
1000473e:	bd70      	pop	{r4, r5, r6, pc}
10004740:	4630      	mov	r0, r6
10004742:	7861      	ldrb	r1, [r4, #1]
10004744:	f7ff f97c 	bl	10003a40 <usbd_edpt_claim>
10004748:	2800      	cmp	r0, #0
1000474a:	d0f7      	beq.n	1000473c <tu_edpt_stream_write_xfer+0x18>
1000474c:	4628      	mov	r0, r5
1000474e:	8862      	ldrh	r2, [r4, #2]
10004750:	6861      	ldr	r1, [r4, #4]
10004752:	f000 f929 	bl	100049a8 <tu_fifo_read_n>
10004756:	7823      	ldrb	r3, [r4, #0]
10004758:	4605      	mov	r5, r0
1000475a:	f003 0301 	and.w	r3, r3, #1
1000475e:	b140      	cbz	r0, 10004772 <tu_edpt_stream_write_xfer+0x4e>
10004760:	b173      	cbz	r3, 10004780 <tu_edpt_stream_write_xfer+0x5c>
10004762:	f04f 23e0 	mov.w	r3, #3758153728	@ 0xe000e000
10004766:	f8d3 3df0 	ldr.w	r3, [r3, #3568]	@ 0xdf0
1000476a:	07db      	lsls	r3, r3, #31
1000476c:	d5e6      	bpl.n	1000473c <tu_edpt_stream_write_xfer+0x18>
1000476e:	be00      	bkpt	0x0000
10004770:	e7e4      	b.n	1000473c <tu_edpt_stream_write_xfer+0x18>
10004772:	2b00      	cmp	r3, #0
10004774:	d1e2      	bne.n	1000473c <tu_edpt_stream_write_xfer+0x18>
10004776:	4630      	mov	r0, r6
10004778:	7861      	ldrb	r1, [r4, #1]
1000477a:	f7ff f973 	bl	10003a64 <usbd_edpt_release>
1000477e:	e7dd      	b.n	1000473c <tu_edpt_stream_write_xfer+0x18>
10004780:	4603      	mov	r3, r0
10004782:	6862      	ldr	r2, [r4, #4]
10004784:	4630      	mov	r0, r6
10004786:	7861      	ldrb	r1, [r4, #1]
10004788:	f7ff f97e 	bl	10003a88 <usbd_edpt_xfer>
1000478c:	2800      	cmp	r0, #0
1000478e:	d0e8      	beq.n	10004762 <tu_edpt_stream_write_xfer+0x3e>
10004790:	4628      	mov	r0, r5
10004792:	bd70      	pop	{r4, r5, r6, pc}

10004794 <tu_edpt_stream_read_xfer>:
10004794:	898a      	ldrh	r2, [r1, #12]
10004796:	e92d 41f0 	stmdb	sp!, {r4, r5, r6, r7, r8, lr}
1000479a:	780b      	ldrb	r3, [r1, #0]
1000479c:	460c      	mov	r4, r1
1000479e:	4606      	mov	r6, r0
100047a0:	b922      	cbnz	r2, 100047ac <tu_edpt_stream_read_xfer+0x18>
100047a2:	07dd      	lsls	r5, r3, #31
100047a4:	d534      	bpl.n	10004810 <tu_edpt_stream_read_xfer+0x7c>
100047a6:	2000      	movs	r0, #0
100047a8:	e8bd 81f0 	ldmia.w	sp!, {r4, r5, r6, r7, r8, pc}
100047ac:	f104 0708 	add.w	r7, r4, #8
100047b0:	0799      	lsls	r1, r3, #30
100047b2:	4638      	mov	r0, r7
100047b4:	bf47      	ittee	mi
100047b6:	f44f 487e 	movmi.w	r8, #65024	@ 0xfe00
100047ba:	f44f 7500 	movmi.w	r5, #512	@ 0x200
100047be:	f64f 78c0 	movwpl	r8, #65472	@ 0xffc0
100047c2:	2540      	movpl	r5, #64	@ 0x40
100047c4:	f000 f894 	bl	100048f0 <tu_fifo_remaining>
100047c8:	4285      	cmp	r5, r0
100047ca:	d8ec      	bhi.n	100047a6 <tu_edpt_stream_read_xfer+0x12>
100047cc:	7823      	ldrb	r3, [r4, #0]
100047ce:	07da      	lsls	r2, r3, #31
100047d0:	d4e9      	bmi.n	100047a6 <tu_edpt_stream_read_xfer+0x12>
100047d2:	4630      	mov	r0, r6
100047d4:	7861      	ldrb	r1, [r4, #1]
100047d6:	f7ff f933 	bl	10003a40 <usbd_edpt_claim>
100047da:	2800      	cmp	r0, #0
100047dc:	d0e3      	beq.n	100047a6 <tu_edpt_stream_read_xfer+0x12>
100047de:	4638      	mov	r0, r7
100047e0:	f000 f886 	bl	100048f0 <tu_fifo_remaining>
100047e4:	7823      	ldrb	r3, [r4, #0]
100047e6:	4285      	cmp	r5, r0
100047e8:	f003 0301 	and.w	r3, r3, #1
100047ec:	d82d      	bhi.n	1000484a <tu_edpt_stream_read_xfer+0xb6>
100047ee:	b9bb      	cbnz	r3, 10004820 <tu_edpt_stream_read_xfer+0x8c>
100047f0:	8865      	ldrh	r5, [r4, #2]
100047f2:	ea08 0800 	and.w	r8, r8, r0
100047f6:	4545      	cmp	r5, r8
100047f8:	bf28      	it	cs
100047fa:	4645      	movcs	r5, r8
100047fc:	7861      	ldrb	r1, [r4, #1]
100047fe:	b35d      	cbz	r5, 10004858 <tu_edpt_stream_read_xfer+0xc4>
10004800:	6862      	ldr	r2, [r4, #4]
10004802:	462b      	mov	r3, r5
10004804:	4630      	mov	r0, r6
10004806:	f7ff f93f 	bl	10003a88 <usbd_edpt_xfer>
1000480a:	b148      	cbz	r0, 10004820 <tu_edpt_stream_read_xfer+0x8c>
1000480c:	4628      	mov	r0, r5
1000480e:	e7cb      	b.n	100047a8 <tu_edpt_stream_read_xfer+0x14>
10004810:	7849      	ldrb	r1, [r1, #1]
10004812:	f7ff f915 	bl	10003a40 <usbd_edpt_claim>
10004816:	2800      	cmp	r0, #0
10004818:	d0c5      	beq.n	100047a6 <tu_edpt_stream_read_xfer+0x12>
1000481a:	7823      	ldrb	r3, [r4, #0]
1000481c:	07d8      	lsls	r0, r3, #31
1000481e:	d507      	bpl.n	10004830 <tu_edpt_stream_read_xfer+0x9c>
10004820:	f04f 23e0 	mov.w	r3, #3758153728	@ 0xe000e000
10004824:	f8d3 3df0 	ldr.w	r3, [r3, #3568]	@ 0xdf0
10004828:	07db      	lsls	r3, r3, #31
1000482a:	d5bc      	bpl.n	100047a6 <tu_edpt_stream_read_xfer+0x12>
1000482c:	be00      	bkpt	0x0000
1000482e:	e7ba      	b.n	100047a6 <tu_edpt_stream_read_xfer+0x12>
10004830:	8863      	ldrh	r3, [r4, #2]
10004832:	7861      	ldrb	r1, [r4, #1]
10004834:	b13b      	cbz	r3, 10004846 <tu_edpt_stream_read_xfer+0xb2>
10004836:	6862      	ldr	r2, [r4, #4]
10004838:	4630      	mov	r0, r6
1000483a:	f7ff f925 	bl	10003a88 <usbd_edpt_xfer>
1000483e:	2800      	cmp	r0, #0
10004840:	d0ee      	beq.n	10004820 <tu_edpt_stream_read_xfer+0x8c>
10004842:	8860      	ldrh	r0, [r4, #2]
10004844:	e7b0      	b.n	100047a8 <tu_edpt_stream_read_xfer+0x14>
10004846:	461a      	mov	r2, r3
10004848:	e7f6      	b.n	10004838 <tu_edpt_stream_read_xfer+0xa4>
1000484a:	2b00      	cmp	r3, #0
1000484c:	d1ab      	bne.n	100047a6 <tu_edpt_stream_read_xfer+0x12>
1000484e:	4630      	mov	r0, r6
10004850:	7861      	ldrb	r1, [r4, #1]
10004852:	f7ff f907 	bl	10003a64 <usbd_edpt_release>
10004856:	e7a6      	b.n	100047a6 <tu_edpt_stream_read_xfer+0x12>
10004858:	462a      	mov	r2, r5
1000485a:	e7d2      	b.n	10004802 <tu_edpt_stream_read_xfer+0x6e>

1000485c <tu_fifo_config>:
1000485c:	e92d 41f0 	stmdb	sp!, {r4, r5, r6, r7, r8, lr}
10004860:	f5b2 4f00 	cmp.w	r2, #32768	@ 0x8000
10004864:	f89d 8018 	ldrb.w	r8, [sp, #24]
10004868:	d824      	bhi.n	100048b4 <tu_fifo_config+0x58>
1000486a:	4604      	mov	r4, r0
1000486c:	68c0      	ldr	r0, [r0, #12]
1000486e:	4617      	mov	r7, r2
10004870:	460e      	mov	r6, r1
10004872:	461d      	mov	r5, r3
10004874:	b118      	cbz	r0, 1000487e <tu_fifo_config+0x22>
10004876:	f04f 31ff 	mov.w	r1, #4294967295	@ 0xffffffff
1000487a:	f001 f855 	bl	10005928 <__mutex_enter_timeout_ms_veneer>
1000487e:	6920      	ldr	r0, [r4, #16]
10004880:	b118      	cbz	r0, 1000488a <tu_fifo_config+0x2e>
10004882:	f04f 31ff 	mov.w	r1, #4294967295	@ 0xffffffff
10004886:	f001 f84f 	bl	10005928 <__mutex_enter_timeout_ms_veneer>
1000488a:	2200      	movs	r2, #0
1000488c:	f3c5 030e 	ubfx	r3, r5, #0, #15
10004890:	68e0      	ldr	r0, [r4, #12]
10004892:	ea43 33c8 	orr.w	r3, r3, r8, lsl #15
10004896:	8162      	strh	r2, [r4, #10]
10004898:	6026      	str	r6, [r4, #0]
1000489a:	80a7      	strh	r7, [r4, #4]
1000489c:	80e3      	strh	r3, [r4, #6]
1000489e:	8122      	strh	r2, [r4, #8]
100048a0:	b108      	cbz	r0, 100048a6 <tu_fifo_config+0x4a>
100048a2:	f001 f851 	bl	10005948 <__mutex_exit_veneer>
100048a6:	6920      	ldr	r0, [r4, #16]
100048a8:	b108      	cbz	r0, 100048ae <tu_fifo_config+0x52>
100048aa:	f001 f84d 	bl	10005948 <__mutex_exit_veneer>
100048ae:	2001      	movs	r0, #1
100048b0:	e8bd 81f0 	ldmia.w	sp!, {r4, r5, r6, r7, r8, pc}
100048b4:	2000      	movs	r0, #0
100048b6:	e8bd 81f0 	ldmia.w	sp!, {r4, r5, r6, r7, r8, pc}
100048ba:	bf00      	nop

100048bc <tu_fifo_count>:
100048bc:	8903      	ldrh	r3, [r0, #8]
100048be:	8942      	ldrh	r2, [r0, #10]
100048c0:	b29b      	uxth	r3, r3
100048c2:	b292      	uxth	r2, r2
100048c4:	8880      	ldrh	r0, [r0, #4]
100048c6:	4293      	cmp	r3, r2
100048c8:	bf36      	itet	cc
100048ca:	ebc2 0240 	rsbcc	r2, r2, r0, lsl #1
100048ce:	1a9b      	subcs	r3, r3, r2
100048d0:	189b      	addcc	r3, r3, r2
100048d2:	b29b      	uxth	r3, r3
100048d4:	4298      	cmp	r0, r3
100048d6:	bf28      	it	cs
100048d8:	4618      	movcs	r0, r3
100048da:	4770      	bx	lr

100048dc <tu_fifo_empty>:
100048dc:	8902      	ldrh	r2, [r0, #8]
100048de:	8943      	ldrh	r3, [r0, #10]
100048e0:	b290      	uxth	r0, r2
100048e2:	b29b      	uxth	r3, r3
100048e4:	1ac0      	subs	r0, r0, r3
100048e6:	fab0 f080 	clz	r0, r0
100048ea:	0940      	lsrs	r0, r0, #5
100048ec:	4770      	bx	lr
100048ee:	bf00      	nop

100048f0 <tu_fifo_remaining>:
100048f0:	8903      	ldrh	r3, [r0, #8]
100048f2:	8942      	ldrh	r2, [r0, #10]
100048f4:	b29b      	uxth	r3, r3
100048f6:	8880      	ldrh	r0, [r0, #4]
100048f8:	b292      	uxth	r2, r2
100048fa:	4293      	cmp	r3, r2
100048fc:	bf36      	itet	cc
100048fe:	ebc2 0240 	rsbcc	r2, r2, r0, lsl #1
10004902:	1a9b      	subcs	r3, r3, r2
10004904:	189b      	addcc	r3, r3, r2
10004906:	b29b      	uxth	r3, r3
10004908:	4298      	cmp	r0, r3
1000490a:	bf86      	itte	hi
1000490c:	1ac0      	subhi	r0, r0, r3
1000490e:	b280      	uxthhi	r0, r0
10004910:	2000      	movls	r0, #0
10004912:	4770      	bx	lr

10004914 <tu_fifo_read>:
10004914:	b538      	push	{r3, r4, r5, lr}
10004916:	4604      	mov	r4, r0
10004918:	6900      	ldr	r0, [r0, #16]
1000491a:	460d      	mov	r5, r1
1000491c:	b118      	cbz	r0, 10004926 <tu_fifo_read+0x12>
1000491e:	f04f 31ff 	mov.w	r1, #4294967295	@ 0xffffffff
10004922:	f001 f801 	bl	10005928 <__mutex_enter_timeout_ms_veneer>
10004926:	8921      	ldrh	r1, [r4, #8]
10004928:	8963      	ldrh	r3, [r4, #10]
1000492a:	b289      	uxth	r1, r1
1000492c:	b29b      	uxth	r3, r3
1000492e:	88a2      	ldrh	r2, [r4, #4]
10004930:	4299      	cmp	r1, r3
10004932:	bf36      	itet	cc
10004934:	ebc3 0042 	rsbcc	r0, r3, r2, lsl #1
10004938:	1ac8      	subcs	r0, r1, r3
1000493a:	1840      	addcc	r0, r0, r1
1000493c:	b280      	uxth	r0, r0
1000493e:	b350      	cbz	r0, 10004996 <tu_fifo_read+0x82>
10004940:	4282      	cmp	r2, r0
10004942:	d209      	bcs.n	10004958 <tu_fifo_read+0x44>
10004944:	4291      	cmp	r1, r2
10004946:	bf2c      	ite	cs
10004948:	1a89      	subcs	r1, r1, r2
1000494a:	1889      	addcc	r1, r1, r2
1000494c:	b28b      	uxth	r3, r1
1000494e:	429a      	cmp	r2, r3
10004950:	8163      	strh	r3, [r4, #10]
10004952:	d803      	bhi.n	1000495c <tu_fifo_read+0x48>
10004954:	1a9b      	subs	r3, r3, r2
10004956:	b29b      	uxth	r3, r3
10004958:	429a      	cmp	r2, r3
1000495a:	d9fb      	bls.n	10004954 <tu_fifo_read+0x40>
1000495c:	88e2      	ldrh	r2, [r4, #6]
1000495e:	6821      	ldr	r1, [r4, #0]
10004960:	f3c2 020e 	ubfx	r2, r2, #0, #15
10004964:	fb02 1103 	mla	r1, r2, r3, r1
10004968:	4628      	mov	r0, r5
1000496a:	f000 fde1 	bl	10005530 <memcpy>
1000496e:	8961      	ldrh	r1, [r4, #10]
10004970:	2501      	movs	r5, #1
10004972:	b289      	uxth	r1, r1
10004974:	1c4b      	adds	r3, r1, #1
10004976:	b29b      	uxth	r3, r3
10004978:	4299      	cmp	r1, r3
1000497a:	88a2      	ldrh	r2, [r4, #4]
1000497c:	d90e      	bls.n	1000499c <tu_fifo_read+0x88>
1000497e:	2300      	movs	r3, #0
10004980:	fa02 f105 	lsl.w	r1, r2, r5
10004984:	1a5b      	subs	r3, r3, r1
10004986:	b29b      	uxth	r3, r3
10004988:	6920      	ldr	r0, [r4, #16]
1000498a:	8163      	strh	r3, [r4, #10]
1000498c:	b108      	cbz	r0, 10004992 <tu_fifo_read+0x7e>
1000498e:	f000 ffdb 	bl	10005948 <__mutex_exit_veneer>
10004992:	4628      	mov	r0, r5
10004994:	bd38      	pop	{r3, r4, r5, pc}
10004996:	4605      	mov	r5, r0
10004998:	8963      	ldrh	r3, [r4, #10]
1000499a:	b29b      	uxth	r3, r3
1000499c:	ebb3 0f42 	cmp.w	r3, r2, lsl #1
100049a0:	ea4f 0142 	mov.w	r1, r2, lsl #1
100049a4:	dbf0      	blt.n	10004988 <tu_fifo_read+0x74>
100049a6:	e7ed      	b.n	10004984 <tu_fifo_read+0x70>

100049a8 <tu_fifo_read_n>:
100049a8:	e92d 47f0 	stmdb	sp!, {r4, r5, r6, r7, r8, r9, sl, lr}
100049ac:	4606      	mov	r6, r0
100049ae:	6900      	ldr	r0, [r0, #16]
100049b0:	4688      	mov	r8, r1
100049b2:	4691      	mov	r9, r2
100049b4:	b118      	cbz	r0, 100049be <tu_fifo_read_n+0x16>
100049b6:	f04f 31ff 	mov.w	r1, #4294967295	@ 0xffffffff
100049ba:	f000 ffb5 	bl	10005928 <__mutex_enter_timeout_ms_veneer>
100049be:	8933      	ldrh	r3, [r6, #8]
100049c0:	8974      	ldrh	r4, [r6, #10]
100049c2:	b29b      	uxth	r3, r3
100049c4:	b2a4      	uxth	r4, r4
100049c6:	88b5      	ldrh	r5, [r6, #4]
100049c8:	42a3      	cmp	r3, r4
100049ca:	bf36      	itet	cc
100049cc:	ebc4 0745 	rsbcc	r7, r4, r5, lsl #1
100049d0:	1b1f      	subcs	r7, r3, r4
100049d2:	18ff      	addcc	r7, r7, r3
100049d4:	b2bf      	uxth	r7, r7
100049d6:	2f00      	cmp	r7, #0
100049d8:	d04a      	beq.n	10004a70 <tu_fifo_read_n+0xc8>
100049da:	42bd      	cmp	r5, r7
100049dc:	d340      	bcc.n	10004a60 <tu_fifo_read_n+0xb8>
100049de:	45b9      	cmp	r9, r7
100049e0:	bf28      	it	cs
100049e2:	46b9      	movcs	r9, r7
100049e4:	42a5      	cmp	r5, r4
100049e6:	fa1f f789 	uxth.w	r7, r9
100049ea:	d803      	bhi.n	100049f4 <tu_fifo_read_n+0x4c>
100049ec:	1b64      	subs	r4, r4, r5
100049ee:	b2a4      	uxth	r4, r4
100049f0:	42a5      	cmp	r5, r4
100049f2:	d9fb      	bls.n	100049ec <tu_fifo_read_n+0x44>
100049f4:	f8b6 a006 	ldrh.w	sl, [r6, #6]
100049f8:	1b2b      	subs	r3, r5, r4
100049fa:	6831      	ldr	r1, [r6, #0]
100049fc:	b29b      	uxth	r3, r3
100049fe:	f3ca 020e 	ubfx	r2, sl, #0, #15
10004a02:	429f      	cmp	r7, r3
10004a04:	4692      	mov	sl, r2
10004a06:	fb02 1104 	mla	r1, r2, r4, r1
10004a0a:	d923      	bls.n	10004a54 <tu_fifo_read_n+0xac>
10004a0c:	fb13 f302 	smulbb	r3, r3, r2
10004a10:	fa1f f983 	uxth.w	r9, r3
10004a14:	464a      	mov	r2, r9
10004a16:	4640      	mov	r0, r8
10004a18:	1b7d      	subs	r5, r7, r5
10004a1a:	f000 fd89 	bl	10005530 <memcpy>
10004a1e:	1962      	adds	r2, r4, r5
10004a20:	fb12 f20a 	smulbb	r2, r2, sl
10004a24:	6831      	ldr	r1, [r6, #0]
10004a26:	eb08 0009 	add.w	r0, r8, r9
10004a2a:	b292      	uxth	r2, r2
10004a2c:	f000 fd80 	bl	10005530 <memcpy>
10004a30:	8972      	ldrh	r2, [r6, #10]
10004a32:	88b5      	ldrh	r5, [r6, #4]
10004a34:	b292      	uxth	r2, r2
10004a36:	19d3      	adds	r3, r2, r7
10004a38:	b29b      	uxth	r3, r3
10004a3a:	429a      	cmp	r2, r3
10004a3c:	d91a      	bls.n	10004a74 <tu_fifo_read_n+0xcc>
10004a3e:	006a      	lsls	r2, r5, #1
10004a40:	1a9b      	subs	r3, r3, r2
10004a42:	b29b      	uxth	r3, r3
10004a44:	6930      	ldr	r0, [r6, #16]
10004a46:	8173      	strh	r3, [r6, #10]
10004a48:	b108      	cbz	r0, 10004a4e <tu_fifo_read_n+0xa6>
10004a4a:	f000 ff7d 	bl	10005948 <__mutex_exit_veneer>
10004a4e:	4638      	mov	r0, r7
10004a50:	e8bd 87f0 	ldmia.w	sp!, {r4, r5, r6, r7, r8, r9, sl, pc}
10004a54:	4640      	mov	r0, r8
10004a56:	fb07 f202 	mul.w	r2, r7, r2
10004a5a:	f000 fd69 	bl	10005530 <memcpy>
10004a5e:	e7e7      	b.n	10004a30 <tu_fifo_read_n+0x88>
10004a60:	42ab      	cmp	r3, r5
10004a62:	bf2c      	ite	cs
10004a64:	1b5b      	subcs	r3, r3, r5
10004a66:	195b      	addcc	r3, r3, r5
10004a68:	b29c      	uxth	r4, r3
10004a6a:	462f      	mov	r7, r5
10004a6c:	8174      	strh	r4, [r6, #10]
10004a6e:	e7b6      	b.n	100049de <tu_fifo_read_n+0x36>
10004a70:	8973      	ldrh	r3, [r6, #10]
10004a72:	b29b      	uxth	r3, r3
10004a74:	ebb3 0f45 	cmp.w	r3, r5, lsl #1
10004a78:	ea4f 0245 	mov.w	r2, r5, lsl #1
10004a7c:	dbe2      	blt.n	10004a44 <tu_fifo_read_n+0x9c>
10004a7e:	e7df      	b.n	10004a40 <tu_fifo_read_n+0x98>

10004a80 <tu_fifo_write>:
10004a80:	b5f8      	push	{r3, r4, r5, r6, r7, lr}
10004a82:	4604      	mov	r4, r0
10004a84:	68c0      	ldr	r0, [r0, #12]
10004a86:	460e      	mov	r6, r1
10004a88:	b118      	cbz	r0, 10004a92 <tu_fifo_write+0x12>
10004a8a:	f04f 31ff 	mov.w	r1, #4294967295	@ 0xffffffff
10004a8e:	f000 ff4b 	bl	10005928 <__mutex_enter_timeout_ms_veneer>
10004a92:	8925      	ldrh	r5, [r4, #8]
10004a94:	8923      	ldrh	r3, [r4, #8]
10004a96:	8961      	ldrh	r1, [r4, #10]
10004a98:	b29b      	uxth	r3, r3
10004a9a:	b289      	uxth	r1, r1
10004a9c:	88a2      	ldrh	r2, [r4, #4]
10004a9e:	428b      	cmp	r3, r1
10004aa0:	bf36      	itet	cc
10004aa2:	ebc1 0142 	rsbcc	r1, r1, r2, lsl #1
10004aa6:	1a5b      	subcs	r3, r3, r1
10004aa8:	185b      	addcc	r3, r3, r1
10004aaa:	b29b      	uxth	r3, r3
10004aac:	429a      	cmp	r2, r3
10004aae:	b2ad      	uxth	r5, r5
10004ab0:	d808      	bhi.n	10004ac4 <tu_fifo_write+0x44>
10004ab2:	79e7      	ldrb	r7, [r4, #7]
10004ab4:	09ff      	lsrs	r7, r7, #7
10004ab6:	d105      	bne.n	10004ac4 <tu_fifo_write+0x44>
10004ab8:	68e0      	ldr	r0, [r4, #12]
10004aba:	b108      	cbz	r0, 10004ac0 <tu_fifo_write+0x40>
10004abc:	f000 ff44 	bl	10005948 <__mutex_exit_veneer>
10004ac0:	4638      	mov	r0, r7
10004ac2:	bdf8      	pop	{r3, r4, r5, r6, r7, pc}
10004ac4:	4295      	cmp	r5, r2
10004ac6:	bf28      	it	cs
10004ac8:	462b      	movcs	r3, r5
10004aca:	d318      	bcc.n	10004afe <tu_fifo_write+0x7e>
10004acc:	1a9b      	subs	r3, r3, r2
10004ace:	b29b      	uxth	r3, r3
10004ad0:	4293      	cmp	r3, r2
10004ad2:	d2fb      	bcs.n	10004acc <tu_fifo_write+0x4c>
10004ad4:	88e2      	ldrh	r2, [r4, #6]
10004ad6:	6820      	ldr	r0, [r4, #0]
10004ad8:	f3c2 020e 	ubfx	r2, r2, #0, #15
10004adc:	fb02 0003 	mla	r0, r2, r3, r0
10004ae0:	4631      	mov	r1, r6
10004ae2:	f000 fd25 	bl	10005530 <memcpy>
10004ae6:	1c6b      	adds	r3, r5, #1
10004ae8:	b29b      	uxth	r3, r3
10004aea:	429d      	cmp	r5, r3
10004aec:	88a2      	ldrh	r2, [r4, #4]
10004aee:	d912      	bls.n	10004b16 <tu_fifo_write+0x96>
10004af0:	2300      	movs	r3, #0
10004af2:	0051      	lsls	r1, r2, #1
10004af4:	1a5b      	subs	r3, r3, r1
10004af6:	b29b      	uxth	r3, r3
10004af8:	2701      	movs	r7, #1
10004afa:	8123      	strh	r3, [r4, #8]
10004afc:	e7dc      	b.n	10004ab8 <tu_fifo_write+0x38>
10004afe:	88e2      	ldrh	r2, [r4, #6]
10004b00:	6820      	ldr	r0, [r4, #0]
10004b02:	f3c2 020e 	ubfx	r2, r2, #0, #15
10004b06:	fb05 0002 	mla	r0, r5, r2, r0
10004b0a:	4631      	mov	r1, r6
10004b0c:	f000 fd10 	bl	10005530 <memcpy>
10004b10:	3501      	adds	r5, #1
10004b12:	88a2      	ldrh	r2, [r4, #4]
10004b14:	b2ab      	uxth	r3, r5
10004b16:	ebb3 0f42 	cmp.w	r3, r2, lsl #1
10004b1a:	ea4f 0142 	mov.w	r1, r2, lsl #1
10004b1e:	dbeb      	blt.n	10004af8 <tu_fifo_write+0x78>
10004b20:	e7e8      	b.n	10004af4 <tu_fifo_write+0x74>
10004b22:	bf00      	nop

10004b24 <tu_fifo_write_n>:
10004b24:	e92d 4ff0 	stmdb	sp!, {r4, r5, r6, r7, r8, r9, sl, fp, lr}
10004b28:	4617      	mov	r7, r2
10004b2a:	b083      	sub	sp, #12
10004b2c:	2a00      	cmp	r2, #0
10004b2e:	d075      	beq.n	10004c1c <tu_fifo_write_n+0xf8>
10004b30:	4606      	mov	r6, r0
10004b32:	68c0      	ldr	r0, [r0, #12]
10004b34:	4689      	mov	r9, r1
10004b36:	b118      	cbz	r0, 10004b40 <tu_fifo_write_n+0x1c>
10004b38:	f04f 31ff 	mov.w	r1, #4294967295	@ 0xffffffff
10004b3c:	f000 fef4 	bl	10005928 <__mutex_enter_timeout_ms_veneer>
10004b40:	79f3      	ldrb	r3, [r6, #7]
10004b42:	f8b6 8008 	ldrh.w	r8, [r6, #8]
10004b46:	8972      	ldrh	r2, [r6, #10]
10004b48:	09db      	lsrs	r3, r3, #7
10004b4a:	88b5      	ldrh	r5, [r6, #4]
10004b4c:	fa1f f888 	uxth.w	r8, r8
10004b50:	b292      	uxth	r2, r2
10004b52:	d13c      	bne.n	10004bce <tu_fifo_write_n+0xaa>
10004b54:	4590      	cmp	r8, r2
10004b56:	bf36      	itet	cc
10004b58:	ebc2 0245 	rsbcc	r2, r2, r5, lsl #1
10004b5c:	eba8 0202 	subcs.w	r2, r8, r2
10004b60:	4442      	addcc	r2, r8
10004b62:	b292      	uxth	r2, r2
10004b64:	42aa      	cmp	r2, r5
10004b66:	d25e      	bcs.n	10004c26 <tu_fifo_write_n+0x102>
10004b68:	1aaa      	subs	r2, r5, r2
10004b6a:	b292      	uxth	r2, r2
10004b6c:	42ba      	cmp	r2, r7
10004b6e:	bf28      	it	cs
10004b70:	463a      	movcs	r2, r7
10004b72:	f8b6 b006 	ldrh.w	fp, [r6, #6]
10004b76:	b297      	uxth	r7, r2
10004b78:	1b7b      	subs	r3, r7, r5
10004b7a:	eb08 0a07 	add.w	sl, r8, r7
10004b7e:	f3cb 0b0e 	ubfx	fp, fp, #0, #15
10004b82:	b29b      	uxth	r3, r3
10004b84:	fa1f fa8a 	uxth.w	sl, sl
10004b88:	45a8      	cmp	r8, r5
10004b8a:	4644      	mov	r4, r8
10004b8c:	d303      	bcc.n	10004b96 <tu_fifo_write_n+0x72>
10004b8e:	1b64      	subs	r4, r4, r5
10004b90:	b2a4      	uxth	r4, r4
10004b92:	42ac      	cmp	r4, r5
10004b94:	d2fb      	bcs.n	10004b8e <tu_fifo_write_n+0x6a>
10004b96:	1b2d      	subs	r5, r5, r4
10004b98:	6830      	ldr	r0, [r6, #0]
10004b9a:	b2ad      	uxth	r5, r5
10004b9c:	42bd      	cmp	r5, r7
10004b9e:	fb0b 0004 	mla	r0, fp, r4, r0
10004ba2:	d357      	bcc.n	10004c54 <tu_fifo_write_n+0x130>
10004ba4:	4649      	mov	r1, r9
10004ba6:	fb0b f207 	mul.w	r2, fp, r7
10004baa:	f000 fcc1 	bl	10005530 <memcpy>
10004bae:	88b2      	ldrh	r2, [r6, #4]
10004bb0:	45d0      	cmp	r8, sl
10004bb2:	ea4f 0342 	mov.w	r3, r2, lsl #1
10004bb6:	d802      	bhi.n	10004bbe <tu_fifo_write_n+0x9a>
10004bb8:	ebba 0f42 	cmp.w	sl, r2, lsl #1
10004bbc:	db03      	blt.n	10004bc6 <tu_fifo_write_n+0xa2>
10004bbe:	ebaa 0303 	sub.w	r3, sl, r3
10004bc2:	fa1f fa83 	uxth.w	sl, r3
10004bc6:	463d      	mov	r5, r7
10004bc8:	f8a6 a008 	strh.w	sl, [r6, #8]
10004bcc:	e02c      	b.n	10004c28 <tu_fifo_write_n+0x104>
10004bce:	f8b6 b006 	ldrh.w	fp, [r6, #6]
10004bd2:	42af      	cmp	r7, r5
10004bd4:	f3cb 0b0e 	ubfx	fp, fp, #0, #15
10004bd8:	d22f      	bcs.n	10004c3a <tu_fifo_write_n+0x116>
10004bda:	4590      	cmp	r8, r2
10004bdc:	bf36      	itet	cc
10004bde:	ebc2 0145 	rsbcc	r1, r2, r5, lsl #1
10004be2:	eba8 0102 	subcs.w	r1, r8, r2
10004be6:	4441      	addcc	r1, r8
10004be8:	b289      	uxth	r1, r1
10004bea:	0068      	lsls	r0, r5, #1
10004bec:	4439      	add	r1, r7
10004bee:	1b7b      	subs	r3, r7, r5
10004bf0:	4281      	cmp	r1, r0
10004bf2:	b29b      	uxth	r3, r3
10004bf4:	db0d      	blt.n	10004c12 <tu_fifo_write_n+0xee>
10004bf6:	eb02 0a05 	add.w	sl, r2, r5
10004bfa:	fa1f fa8a 	uxth.w	sl, sl
10004bfe:	ebaa 0807 	sub.w	r8, sl, r7
10004c02:	fa1f f888 	uxth.w	r8, r8
10004c06:	4542      	cmp	r2, r8
10004c08:	d937      	bls.n	10004c7a <tu_fifo_write_n+0x156>
10004c0a:	eba8 0000 	sub.w	r0, r8, r0
10004c0e:	fa1f f880 	uxth.w	r8, r0
10004c12:	eb07 0a08 	add.w	sl, r7, r8
10004c16:	fa1f fa8a 	uxth.w	sl, sl
10004c1a:	e7b5      	b.n	10004b88 <tu_fifo_write_n+0x64>
10004c1c:	4615      	mov	r5, r2
10004c1e:	4628      	mov	r0, r5
10004c20:	b003      	add	sp, #12
10004c22:	e8bd 8ff0 	ldmia.w	sp!, {r4, r5, r6, r7, r8, r9, sl, fp, pc}
10004c26:	2500      	movs	r5, #0
10004c28:	68f0      	ldr	r0, [r6, #12]
10004c2a:	2800      	cmp	r0, #0
10004c2c:	d0f7      	beq.n	10004c1e <tu_fifo_write_n+0xfa>
10004c2e:	f000 fe8b 	bl	10005948 <__mutex_exit_veneer>
10004c32:	4628      	mov	r0, r5
10004c34:	b003      	add	sp, #12
10004c36:	e8bd 8ff0 	ldmia.w	sp!, {r4, r5, r6, r7, r8, r9, sl, fp, pc}
10004c3a:	2d00      	cmp	r5, #0
10004c3c:	d0f4      	beq.n	10004c28 <tu_fifo_write_n+0x104>
10004c3e:	1b7f      	subs	r7, r7, r5
10004c40:	eb02 0a05 	add.w	sl, r2, r5
10004c44:	fb0b 9907 	mla	r9, fp, r7, r9
10004c48:	4690      	mov	r8, r2
10004c4a:	462f      	mov	r7, r5
10004c4c:	2300      	movs	r3, #0
10004c4e:	fa1f fa8a 	uxth.w	sl, sl
10004c52:	e799      	b.n	10004b88 <tu_fifo_write_n+0x64>
10004c54:	fb15 f50b 	smulbb	r5, r5, fp
10004c58:	b2ad      	uxth	r5, r5
10004c5a:	462a      	mov	r2, r5
10004c5c:	4649      	mov	r1, r9
10004c5e:	9301      	str	r3, [sp, #4]
10004c60:	f000 fc66 	bl	10005530 <memcpy>
10004c64:	9b01      	ldr	r3, [sp, #4]
10004c66:	6830      	ldr	r0, [r6, #0]
10004c68:	18e2      	adds	r2, r4, r3
10004c6a:	fb12 f20b 	smulbb	r2, r2, fp
10004c6e:	eb09 0105 	add.w	r1, r9, r5
10004c72:	b292      	uxth	r2, r2
10004c74:	f000 fc5c 	bl	10005530 <memcpy>
10004c78:	e799      	b.n	10004bae <tu_fifo_write_n+0x8a>
10004c7a:	4540      	cmp	r0, r8
10004c7c:	dc84      	bgt.n	10004b88 <tu_fifo_write_n+0x64>
10004c7e:	e7c4      	b.n	10004c0a <tu_fifo_write_n+0xe6>

10004c80 <tu_fifo_clear>:
10004c80:	b510      	push	{r4, lr}
10004c82:	4604      	mov	r4, r0
10004c84:	68c0      	ldr	r0, [r0, #12]
10004c86:	b118      	cbz	r0, 10004c90 <tu_fifo_clear+0x10>
10004c88:	f04f 31ff 	mov.w	r1, #4294967295	@ 0xffffffff
10004c8c:	f000 fe4c 	bl	10005928 <__mutex_enter_timeout_ms_veneer>
10004c90:	6920      	ldr	r0, [r4, #16]
10004c92:	b118      	cbz	r0, 10004c9c <tu_fifo_clear+0x1c>
10004c94:	f04f 31ff 	mov.w	r1, #4294967295	@ 0xffffffff
10004c98:	f000 fe46 	bl	10005928 <__mutex_enter_timeout_ms_veneer>
10004c9c:	2300      	movs	r3, #0
10004c9e:	68e0      	ldr	r0, [r4, #12]
10004ca0:	8163      	strh	r3, [r4, #10]
10004ca2:	8123      	strh	r3, [r4, #8]
10004ca4:	b108      	cbz	r0, 10004caa <tu_fifo_clear+0x2a>
10004ca6:	f000 fe4f 	bl	10005948 <__mutex_exit_veneer>
10004caa:	6920      	ldr	r0, [r4, #16]
10004cac:	b108      	cbz	r0, 10004cb2 <tu_fifo_clear+0x32>
10004cae:	f000 fe4b 	bl	10005948 <__mutex_exit_veneer>
10004cb2:	2001      	movs	r0, #1
10004cb4:	bd10      	pop	{r4, pc}
10004cb6:	bf00      	nop

10004cb8 <tu_fifo_set_overwritable>:
10004cb8:	b538      	push	{r3, r4, r5, lr}
10004cba:	4604      	mov	r4, r0
10004cbc:	68c0      	ldr	r0, [r0, #12]
10004cbe:	460d      	mov	r5, r1
10004cc0:	b118      	cbz	r0, 10004cca <tu_fifo_set_overwritable+0x12>
10004cc2:	f04f 31ff 	mov.w	r1, #4294967295	@ 0xffffffff
10004cc6:	f000 fe2f 	bl	10005928 <__mutex_enter_timeout_ms_veneer>
10004cca:	6920      	ldr	r0, [r4, #16]
10004ccc:	b118      	cbz	r0, 10004cd6 <tu_fifo_set_overwritable+0x1e>
10004cce:	f04f 31ff 	mov.w	r1, #4294967295	@ 0xffffffff
10004cd2:	f000 fe29 	bl	10005928 <__mutex_enter_timeout_ms_veneer>
10004cd6:	79e3      	ldrb	r3, [r4, #7]
10004cd8:	68e0      	ldr	r0, [r4, #12]
10004cda:	f365 13c7 	bfi	r3, r5, #7, #1
10004cde:	71e3      	strb	r3, [r4, #7]
10004ce0:	b108      	cbz	r0, 10004ce6 <tu_fifo_set_overwritable+0x2e>
10004ce2:	f000 fe31 	bl	10005948 <__mutex_exit_veneer>
10004ce6:	6920      	ldr	r0, [r4, #16]
10004ce8:	b108      	cbz	r0, 10004cee <tu_fifo_set_overwritable+0x36>
10004cea:	f000 fe2d 	bl	10005948 <__mutex_exit_veneer>
10004cee:	2001      	movs	r0, #1
10004cf0:	bd38      	pop	{r3, r4, r5, pc}
10004cf2:	bf00      	nop

10004cf4 <i2c_write_blocking_internal.constprop.0>:
10004cf4:	e92d 41f0 	stmdb	sp!, {r4, r5, r6, r7, r8, lr}
10004cf8:	2700      	movs	r7, #0
10004cfa:	2401      	movs	r4, #1
10004cfc:	4694      	mov	ip, r2
10004cfe:	6802      	ldr	r2, [r0, #0]
10004d00:	4605      	mov	r5, r0
10004d02:	66d7      	str	r7, [r2, #108]	@ 0x6c
10004d04:	6051      	str	r1, [r2, #4]
10004d06:	66d4      	str	r4, [r2, #108]	@ 0x6c
10004d08:	1e1c      	subs	r4, r3, #0
10004d0a:	4638      	mov	r0, r7
10004d0c:	f89d 6018 	ldrb.w	r6, [sp, #24]
10004d10:	dd1e      	ble.n	10004d50 <i2c_write_blocking_internal.constprop.0+0x5c>
10004d12:	7929      	ldrb	r1, [r5, #4]
10004d14:	f086 0701 	eor.w	r7, r6, #1
10004d18:	0289      	lsls	r1, r1, #10
10004d1a:	027f      	lsls	r7, r7, #9
10004d1c:	f104 3eff 	add.w	lr, r4, #4294967295	@ 0xffffffff
10004d20:	4570      	cmp	r0, lr
10004d22:	bf0c      	ite	eq
10004d24:	46b8      	moveq	r8, r7
10004d26:	f04f 0800 	movne.w	r8, #0
10004d2a:	f81c 3b01 	ldrb.w	r3, [ip], #1
10004d2e:	430b      	orrs	r3, r1
10004d30:	ea43 0308 	orr.w	r3, r3, r8
10004d34:	6113      	str	r3, [r2, #16]
10004d36:	6b53      	ldr	r3, [r2, #52]	@ 0x34
10004d38:	06d9      	lsls	r1, r3, #27
10004d3a:	d5fc      	bpl.n	10004d36 <i2c_write_blocking_internal.constprop.0+0x42>
10004d3c:	f8d2 1080 	ldr.w	r1, [r2, #128]	@ 0x80
10004d40:	b949      	cbnz	r1, 10004d56 <i2c_write_blocking_internal.constprop.0+0x62>
10004d42:	4570      	cmp	r0, lr
10004d44:	d01c      	beq.n	10004d80 <i2c_write_blocking_internal.constprop.0+0x8c>
10004d46:	3001      	adds	r0, #1
10004d48:	4284      	cmp	r4, r0
10004d4a:	f04f 0100 	mov.w	r1, #0
10004d4e:	d1e7      	bne.n	10004d20 <i2c_write_blocking_internal.constprop.0+0x2c>
10004d50:	712e      	strb	r6, [r5, #4]
10004d52:	e8bd 81f0 	ldmia.w	sp!, {r4, r5, r6, r7, r8, pc}
10004d56:	f04f 0801 	mov.w	r8, #1
10004d5a:	6d53      	ldr	r3, [r2, #84]	@ 0x54
10004d5c:	6b53      	ldr	r3, [r2, #52]	@ 0x34
10004d5e:	059b      	lsls	r3, r3, #22
10004d60:	d5fc      	bpl.n	10004d5c <i2c_write_blocking_internal.constprop.0+0x68>
10004d62:	6e13      	ldr	r3, [r2, #96]	@ 0x60
10004d64:	f1b8 0f00 	cmp.w	r8, #0
10004d68:	d0ed      	beq.n	10004d46 <i2c_write_blocking_internal.constprop.0+0x52>
10004d6a:	b169      	cbz	r1, 10004d88 <i2c_write_blocking_internal.constprop.0+0x94>
10004d6c:	07cb      	lsls	r3, r1, #31
10004d6e:	d40b      	bmi.n	10004d88 <i2c_write_blocking_internal.constprop.0+0x94>
10004d70:	f011 0f08 	tst.w	r1, #8
10004d74:	bf08      	it	eq
10004d76:	f04f 30ff 	moveq.w	r0, #4294967295	@ 0xffffffff
10004d7a:	712e      	strb	r6, [r5, #4]
10004d7c:	e8bd 81f0 	ldmia.w	sp!, {r4, r5, r6, r7, r8, pc}
10004d80:	2e00      	cmp	r6, #0
10004d82:	d1e0      	bne.n	10004d46 <i2c_write_blocking_internal.constprop.0+0x52>
10004d84:	46b0      	mov	r8, r6
10004d86:	e7e9      	b.n	10004d5c <i2c_write_blocking_internal.constprop.0+0x68>
10004d88:	f04f 30ff 	mov.w	r0, #4294967295	@ 0xffffffff
10004d8c:	e7e0      	b.n	10004d50 <i2c_write_blocking_internal.constprop.0+0x5c>
10004d8e:	bf00      	nop

10004d90 <i2c_set_baudrate>:
10004d90:	b5f8      	push	{r3, r4, r5, r6, r7, lr}
10004d92:	4604      	mov	r4, r0
10004d94:	2005      	movs	r0, #5
10004d96:	460f      	mov	r7, r1
10004d98:	f7fc ff04 	bl	10001ba4 <clock_get_hz>
10004d9c:	eb00 0c57 	add.w	ip, r0, r7, lsr #1
10004da0:	fbbc fcf7 	udiv	ip, ip, r7
10004da4:	4d20      	ldr	r5, [pc, #128]	@ (10004e28 <i2c_set_baudrate+0x98>)
10004da6:	eb0c 024c 	add.w	r2, ip, ip, lsl #1
10004daa:	fba5 6502 	umull	r6, r5, r5, r2
10004dae:	491f      	ldr	r1, [pc, #124]	@ (10004e2c <i2c_set_baudrate+0x9c>)
10004db0:	08ae      	lsrs	r6, r5, #2
10004db2:	428f      	cmp	r7, r1
10004db4:	eb00 0340 	add.w	r3, r0, r0, lsl #1
10004db8:	ebac 0595 	sub.w	r5, ip, r5, lsr #2
10004dbc:	d82e      	bhi.n	10004e1c <i2c_set_baudrate+0x8c>
10004dbe:	f101 41d6 	add.w	r1, r1, #1795162112	@ 0x6b000000
10004dc2:	f501 01a1 	add.w	r1, r1, #5275648	@ 0x508000
10004dc6:	f601 012c 	addw	r1, r1, #2092	@ 0x82c
10004dca:	fba1 1303 	umull	r1, r3, r1, r3
10004dce:	0d9b      	lsrs	r3, r3, #22
10004dd0:	3301      	adds	r3, #1
10004dd2:	2100      	movs	r1, #0
10004dd4:	2a4f      	cmp	r2, #79	@ 0x4f
10004dd6:	bf98      	it	ls
10004dd8:	2201      	movls	r2, #1
10004dda:	6824      	ldr	r4, [r4, #0]
10004ddc:	fbb0 f0fc 	udiv	r0, r0, ip
10004de0:	66e1      	str	r1, [r4, #108]	@ 0x6c
10004de2:	6821      	ldr	r1, [r4, #0]
10004de4:	f504 5780 	add.w	r7, r4, #4096	@ 0x1000
10004de8:	f081 0104 	eor.w	r1, r1, #4
10004dec:	f001 0106 	and.w	r1, r1, #6
10004df0:	6039      	str	r1, [r7, #0]
10004df2:	bf88      	it	hi
10004df4:	490c      	ldrhi	r1, [pc, #48]	@ (10004e28 <i2c_set_baudrate+0x98>)
10004df6:	61e5      	str	r5, [r4, #28]
10004df8:	bf84      	itt	hi
10004dfa:	fba1 1202 	umullhi	r1, r2, r1, r2
10004dfe:	0992      	lsrhi	r2, r2, #6
10004e00:	6226      	str	r6, [r4, #32]
10004e02:	f8c4 20a0 	str.w	r2, [r4, #160]	@ 0xa0
10004e06:	4622      	mov	r2, r4
10004e08:	2101      	movs	r1, #1
10004e0a:	f852 5f7c 	ldr.w	r5, [r2, #124]!
10004e0e:	406b      	eors	r3, r5
10004e10:	b29b      	uxth	r3, r3
10004e12:	f502 5280 	add.w	r2, r2, #4096	@ 0x1000
10004e16:	6013      	str	r3, [r2, #0]
10004e18:	66e1      	str	r1, [r4, #108]	@ 0x6c
10004e1a:	bdf8      	pop	{r3, r4, r5, r6, r7, pc}
10004e1c:	4904      	ldr	r1, [pc, #16]	@ (10004e30 <i2c_set_baudrate+0xa0>)
10004e1e:	fba1 1303 	umull	r1, r3, r1, r3
10004e22:	0ddb      	lsrs	r3, r3, #23
10004e24:	3301      	adds	r3, #1
10004e26:	e7d4      	b.n	10004dd2 <i2c_set_baudrate+0x42>
10004e28:	cccccccd 	.word	0xcccccccd
10004e2c:	000f423f 	.word	0x000f423f
10004e30:	55e63b89 	.word	0x55e63b89

10004e34 <i2c_init>:
10004e34:	4a0e      	ldr	r2, [pc, #56]	@ (10004e70 <i2c_init+0x3c>)
10004e36:	b430      	push	{r4, r5}
10004e38:	4290      	cmp	r0, r2
10004e3a:	bf14      	ite	ne
10004e3c:	2220      	movne	r2, #32
10004e3e:	2210      	moveq	r2, #16
10004e40:	4d0c      	ldr	r5, [pc, #48]	@ (10004e74 <i2c_init+0x40>)
10004e42:	4b0d      	ldr	r3, [pc, #52]	@ (10004e78 <i2c_init+0x44>)
10004e44:	4c0d      	ldr	r4, [pc, #52]	@ (10004e7c <i2c_init+0x48>)
10004e46:	602a      	str	r2, [r5, #0]
10004e48:	601a      	str	r2, [r3, #0]
10004e4a:	68a3      	ldr	r3, [r4, #8]
10004e4c:	ea32 0303 	bics.w	r3, r2, r3
10004e50:	d1fb      	bne.n	10004e4a <i2c_init+0x16>
10004e52:	f240 1565 	movw	r5, #357	@ 0x165
10004e56:	2403      	movs	r4, #3
10004e58:	6802      	ldr	r2, [r0, #0]
10004e5a:	7103      	strb	r3, [r0, #4]
10004e5c:	66d3      	str	r3, [r2, #108]	@ 0x6c
10004e5e:	6015      	str	r5, [r2, #0]
10004e60:	63d3      	str	r3, [r2, #60]	@ 0x3c
10004e62:	6393      	str	r3, [r2, #56]	@ 0x38
10004e64:	f8c2 4088 	str.w	r4, [r2, #136]	@ 0x88
10004e68:	bc30      	pop	{r4, r5}
10004e6a:	f7ff bf91 	b.w	10004d90 <i2c_set_baudrate>
10004e6e:	bf00      	nop
10004e70:	20001344 	.word	0x20001344
10004e74:	40022000 	.word	0x40022000
10004e78:	40023000 	.word	0x40023000
10004e7c:	40020000 	.word	0x40020000

10004e80 <i2c_write_blocking>:
10004e80:	b410      	push	{r4}
10004e82:	f89d 4004 	ldrb.w	r4, [sp, #4]
10004e86:	9401      	str	r4, [sp, #4]
10004e88:	f85d 4b04 	ldr.w	r4, [sp], #4
10004e8c:	f7ff bf32 	b.w	10004cf4 <i2c_write_blocking_internal.constprop.0>

10004e90 <malloc>:
10004e90:	4b02      	ldr	r3, [pc, #8]	@ (10004e9c <malloc+0xc>)
10004e92:	4601      	mov	r1, r0
10004e94:	6818      	ldr	r0, [r3, #0]
10004e96:	f000 b80b 	b.w	10004eb0 <_malloc_r>
10004e9a:	bf00      	nop
10004e9c:	20001760 	.word	0x20001760

10004ea0 <free>:
10004ea0:	4b02      	ldr	r3, [pc, #8]	@ (10004eac <free+0xc>)
10004ea2:	4601      	mov	r1, r0
10004ea4:	6818      	ldr	r0, [r3, #0]
10004ea6:	f000 bc43 	b.w	10005730 <_free_r>
10004eaa:	bf00      	nop
10004eac:	20001760 	.word	0x20001760

10004eb0 <_malloc_r>:
10004eb0:	f101 030b 	add.w	r3, r1, #11
10004eb4:	2b16      	cmp	r3, #22
10004eb6:	e92d 4ff0 	stmdb	sp!, {r4, r5, r6, r7, r8, r9, sl, fp, lr}
10004eba:	4607      	mov	r7, r0
10004ebc:	b083      	sub	sp, #12
10004ebe:	d823      	bhi.n	10004f08 <_malloc_r+0x58>
10004ec0:	2910      	cmp	r1, #16
10004ec2:	f200 80af 	bhi.w	10005024 <_malloc_r+0x174>
10004ec6:	f000 faaf 	bl	10005428 <__malloc_lock>
10004eca:	2510      	movs	r5, #16
10004ecc:	2318      	movs	r3, #24
10004ece:	2002      	movs	r0, #2
10004ed0:	4eba      	ldr	r6, [pc, #744]	@ (100051bc <_malloc_r+0x30c>)
10004ed2:	4433      	add	r3, r6
10004ed4:	685c      	ldr	r4, [r3, #4]
10004ed6:	f1a3 0208 	sub.w	r2, r3, #8
10004eda:	4294      	cmp	r4, r2
10004edc:	f000 8156 	beq.w	1000518c <_malloc_r+0x2dc>
10004ee0:	6863      	ldr	r3, [r4, #4]
10004ee2:	4638      	mov	r0, r7
10004ee4:	f023 0303 	bic.w	r3, r3, #3
10004ee8:	e9d4 1202 	ldrd	r1, r2, [r4, #8]
10004eec:	4423      	add	r3, r4
10004eee:	60ca      	str	r2, [r1, #12]
10004ef0:	6091      	str	r1, [r2, #8]
10004ef2:	685a      	ldr	r2, [r3, #4]
10004ef4:	3408      	adds	r4, #8
10004ef6:	f042 0201 	orr.w	r2, r2, #1
10004efa:	605a      	str	r2, [r3, #4]
10004efc:	f000 fa9a 	bl	10005434 <__malloc_unlock>
10004f00:	4620      	mov	r0, r4
10004f02:	b003      	add	sp, #12
10004f04:	e8bd 8ff0 	ldmia.w	sp!, {r4, r5, r6, r7, r8, r9, sl, fp, pc}
10004f08:	2b00      	cmp	r3, #0
10004f0a:	f023 0507 	bic.w	r5, r3, #7
10004f0e:	f2c0 8089 	blt.w	10005024 <_malloc_r+0x174>
10004f12:	42a9      	cmp	r1, r5
10004f14:	f200 8086 	bhi.w	10005024 <_malloc_r+0x174>
10004f18:	f000 fa86 	bl	10005428 <__malloc_lock>
10004f1c:	f5b5 7ffc 	cmp.w	r5, #504	@ 0x1f8
10004f20:	f0c0 827b 	bcc.w	1000541a <_malloc_r+0x56a>
10004f24:	0a6b      	lsrs	r3, r5, #9
10004f26:	f000 8084 	beq.w	10005032 <_malloc_r+0x182>
10004f2a:	2b04      	cmp	r3, #4
10004f2c:	f200 8162 	bhi.w	100051f4 <_malloc_r+0x344>
10004f30:	09ab      	lsrs	r3, r5, #6
10004f32:	f103 0039 	add.w	r0, r3, #57	@ 0x39
10004f36:	f103 0e38 	add.w	lr, r3, #56	@ 0x38
10004f3a:	00c3      	lsls	r3, r0, #3
10004f3c:	4e9f      	ldr	r6, [pc, #636]	@ (100051bc <_malloc_r+0x30c>)
10004f3e:	4433      	add	r3, r6
10004f40:	f1a3 0c08 	sub.w	ip, r3, #8
10004f44:	685c      	ldr	r4, [r3, #4]
10004f46:	45a4      	cmp	ip, r4
10004f48:	d107      	bne.n	10004f5a <_malloc_r+0xaa>
10004f4a:	e00d      	b.n	10004f68 <_malloc_r+0xb8>
10004f4c:	2a00      	cmp	r2, #0
10004f4e:	68e1      	ldr	r1, [r4, #12]
10004f50:	f280 8116 	bge.w	10005180 <_malloc_r+0x2d0>
10004f54:	458c      	cmp	ip, r1
10004f56:	460c      	mov	r4, r1
10004f58:	d006      	beq.n	10004f68 <_malloc_r+0xb8>
10004f5a:	6863      	ldr	r3, [r4, #4]
10004f5c:	f023 0303 	bic.w	r3, r3, #3
10004f60:	1b5a      	subs	r2, r3, r5
10004f62:	2a0f      	cmp	r2, #15
10004f64:	ddf2      	ble.n	10004f4c <_malloc_r+0x9c>
10004f66:	4670      	mov	r0, lr
10004f68:	f8df 8268 	ldr.w	r8, [pc, #616]	@ 100051d4 <_malloc_r+0x324>
10004f6c:	6934      	ldr	r4, [r6, #16]
10004f6e:	4544      	cmp	r4, r8
10004f70:	f000 80f2 	beq.w	10005158 <_malloc_r+0x2a8>
10004f74:	6863      	ldr	r3, [r4, #4]
10004f76:	f023 0c03 	bic.w	ip, r3, #3
10004f7a:	ebac 0305 	sub.w	r3, ip, r5
10004f7e:	2b0f      	cmp	r3, #15
10004f80:	f300 8174 	bgt.w	1000526c <_malloc_r+0x3bc>
10004f84:	2b00      	cmp	r3, #0
10004f86:	e9c6 8804 	strd	r8, r8, [r6, #16]
10004f8a:	f280 8163 	bge.w	10005254 <_malloc_r+0x3a4>
10004f8e:	f5bc 7f00 	cmp.w	ip, #512	@ 0x200
10004f92:	f8d6 e004 	ldr.w	lr, [r6, #4]
10004f96:	f080 80ff 	bcs.w	10005198 <_malloc_r+0x2e8>
10004f9a:	ea4f 03dc 	mov.w	r3, ip, lsr #3
10004f9e:	2201      	movs	r2, #1
10004fa0:	ea4f 1c5c 	mov.w	ip, ip, lsr #5
10004fa4:	3301      	adds	r3, #1
10004fa6:	fa02 f20c 	lsl.w	r2, r2, ip
10004faa:	f856 1033 	ldr.w	r1, [r6, r3, lsl #3]
10004fae:	ea4e 0e02 	orr.w	lr, lr, r2
10004fb2:	eb06 02c3 	add.w	r2, r6, r3, lsl #3
10004fb6:	3a08      	subs	r2, #8
10004fb8:	f8c6 e004 	str.w	lr, [r6, #4]
10004fbc:	e9c4 1202 	strd	r1, r2, [r4, #8]
10004fc0:	f846 4033 	str.w	r4, [r6, r3, lsl #3]
10004fc4:	60cc      	str	r4, [r1, #12]
10004fc6:	1083      	asrs	r3, r0, #2
10004fc8:	f04f 0c01 	mov.w	ip, #1
10004fcc:	fa0c fc03 	lsl.w	ip, ip, r3
10004fd0:	45f4      	cmp	ip, lr
10004fd2:	d834      	bhi.n	1000503e <_malloc_r+0x18e>
10004fd4:	ea1c 0f0e 	tst.w	ip, lr
10004fd8:	d107      	bne.n	10004fea <_malloc_r+0x13a>
10004fda:	f020 0003 	bic.w	r0, r0, #3
10004fde:	ea4f 0c4c 	mov.w	ip, ip, lsl #1
10004fe2:	3004      	adds	r0, #4
10004fe4:	ea1c 0f0e 	tst.w	ip, lr
10004fe8:	d0f9      	beq.n	10004fde <_malloc_r+0x12e>
10004fea:	eb06 0ac0 	add.w	sl, r6, r0, lsl #3
10004fee:	4681      	mov	r9, r0
10004ff0:	46d6      	mov	lr, sl
10004ff2:	f8de 300c 	ldr.w	r3, [lr, #12]
10004ff6:	e00b      	b.n	10005010 <_malloc_r+0x160>
10004ff8:	685a      	ldr	r2, [r3, #4]
10004ffa:	461c      	mov	r4, r3
10004ffc:	68db      	ldr	r3, [r3, #12]
10004ffe:	f022 0203 	bic.w	r2, r2, #3
10005002:	1b51      	subs	r1, r2, r5
10005004:	290f      	cmp	r1, #15
10005006:	f300 8101 	bgt.w	1000520c <_malloc_r+0x35c>
1000500a:	2900      	cmp	r1, #0
1000500c:	f280 8115 	bge.w	1000523a <_malloc_r+0x38a>
10005010:	459e      	cmp	lr, r3
10005012:	d1f1      	bne.n	10004ff8 <_malloc_r+0x148>
10005014:	f109 0901 	add.w	r9, r9, #1
10005018:	f10e 0e08 	add.w	lr, lr, #8
1000501c:	f019 0f03 	tst.w	r9, #3
10005020:	d1e7      	bne.n	10004ff2 <_malloc_r+0x142>
10005022:	e158      	b.n	100052d6 <_malloc_r+0x426>
10005024:	230c      	movs	r3, #12
10005026:	603b      	str	r3, [r7, #0]
10005028:	2400      	movs	r4, #0
1000502a:	4620      	mov	r0, r4
1000502c:	b003      	add	sp, #12
1000502e:	e8bd 8ff0 	ldmia.w	sp!, {r4, r5, r6, r7, r8, r9, sl, fp, pc}
10005032:	f44f 7300 	mov.w	r3, #512	@ 0x200
10005036:	2040      	movs	r0, #64	@ 0x40
10005038:	f04f 0e3f 	mov.w	lr, #63	@ 0x3f
1000503c:	e77e      	b.n	10004f3c <_malloc_r+0x8c>
1000503e:	68b4      	ldr	r4, [r6, #8]
10005040:	6863      	ldr	r3, [r4, #4]
10005042:	f023 0903 	bic.w	r9, r3, #3
10005046:	45a9      	cmp	r9, r5
10005048:	eba9 0305 	sub.w	r3, r9, r5
1000504c:	d302      	bcc.n	10005054 <_malloc_r+0x1a4>
1000504e:	2b0f      	cmp	r3, #15
10005050:	f300 8085 	bgt.w	1000515e <_malloc_r+0x2ae>
10005054:	4b5a      	ldr	r3, [pc, #360]	@ (100051c0 <_malloc_r+0x310>)
10005056:	2008      	movs	r0, #8
10005058:	681b      	ldr	r3, [r3, #0]
1000505a:	f103 0810 	add.w	r8, r3, #16
1000505e:	eb04 0309 	add.w	r3, r4, r9
10005062:	9300      	str	r3, [sp, #0]
10005064:	f000 fa56 	bl	10005514 <sysconf>
10005068:	4a56      	ldr	r2, [pc, #344]	@ (100051c4 <_malloc_r+0x314>)
1000506a:	44a8      	add	r8, r5
1000506c:	4683      	mov	fp, r0
1000506e:	6813      	ldr	r3, [r2, #0]
10005070:	3301      	adds	r3, #1
10005072:	d005      	beq.n	10005080 <_malloc_r+0x1d0>
10005074:	f108 38ff 	add.w	r8, r8, #4294967295	@ 0xffffffff
10005078:	4243      	negs	r3, r0
1000507a:	4480      	add	r8, r0
1000507c:	ea03 0808 	and.w	r8, r3, r8
10005080:	4641      	mov	r1, r8
10005082:	4638      	mov	r0, r7
10005084:	f000 fa2a 	bl	100054dc <_sbrk_r>
10005088:	f1b0 3fff 	cmp.w	r0, #4294967295	@ 0xffffffff
1000508c:	4682      	mov	sl, r0
1000508e:	4a4d      	ldr	r2, [pc, #308]	@ (100051c4 <_malloc_r+0x314>)
10005090:	f000 8107 	beq.w	100052a2 <_malloc_r+0x3f2>
10005094:	eb04 0309 	add.w	r3, r4, r9
10005098:	4283      	cmp	r3, r0
1000509a:	f200 8100 	bhi.w	1000529e <_malloc_r+0x3ee>
1000509e:	4b4a      	ldr	r3, [pc, #296]	@ (100051c8 <_malloc_r+0x318>)
100050a0:	f10b 3cff 	add.w	ip, fp, #4294967295	@ 0xffffffff
100050a4:	6818      	ldr	r0, [r3, #0]
100050a6:	4440      	add	r0, r8
100050a8:	6018      	str	r0, [r3, #0]
100050aa:	f000 8164 	beq.w	10005376 <_malloc_r+0x4c6>
100050ae:	6811      	ldr	r1, [r2, #0]
100050b0:	3101      	adds	r1, #1
100050b2:	f000 816c 	beq.w	1000538e <_malloc_r+0x4de>
100050b6:	eb04 0209 	add.w	r2, r4, r9
100050ba:	ebaa 0202 	sub.w	r2, sl, r2
100050be:	4402      	add	r2, r0
100050c0:	601a      	str	r2, [r3, #0]
100050c2:	f01a 0207 	ands.w	r2, sl, #7
100050c6:	e9cd 2300 	strd	r2, r3, [sp]
100050ca:	f000 8127 	beq.w	1000531c <_malloc_r+0x46c>
100050ce:	f1c2 0208 	rsb	r2, r2, #8
100050d2:	4638      	mov	r0, r7
100050d4:	4492      	add	sl, r2
100050d6:	445a      	add	r2, fp
100050d8:	44d0      	add	r8, sl
100050da:	ea08 010c 	and.w	r1, r8, ip
100050de:	1a52      	subs	r2, r2, r1
100050e0:	ea02 0b0c 	and.w	fp, r2, ip
100050e4:	4659      	mov	r1, fp
100050e6:	f000 f9f9 	bl	100054dc <_sbrk_r>
100050ea:	1c42      	adds	r2, r0, #1
100050ec:	9b01      	ldr	r3, [sp, #4]
100050ee:	f000 816a 	beq.w	100053c6 <_malloc_r+0x516>
100050f2:	eba0 000a 	sub.w	r0, r0, sl
100050f6:	eb00 080b 	add.w	r8, r0, fp
100050fa:	6818      	ldr	r0, [r3, #0]
100050fc:	f048 0201 	orr.w	r2, r8, #1
10005100:	42b4      	cmp	r4, r6
10005102:	f8c6 a008 	str.w	sl, [r6, #8]
10005106:	4458      	add	r0, fp
10005108:	f8ca 2004 	str.w	r2, [sl, #4]
1000510c:	6018      	str	r0, [r3, #0]
1000510e:	d017      	beq.n	10005140 <_malloc_r+0x290>
10005110:	f1b9 0f0f 	cmp.w	r9, #15
10005114:	f240 813e 	bls.w	10005394 <_malloc_r+0x4e4>
10005118:	6861      	ldr	r1, [r4, #4]
1000511a:	f1a9 020c 	sub.w	r2, r9, #12
1000511e:	f04f 0c05 	mov.w	ip, #5
10005122:	f022 0207 	bic.w	r2, r2, #7
10005126:	f001 0101 	and.w	r1, r1, #1
1000512a:	4311      	orrs	r1, r2
1000512c:	2a0f      	cmp	r2, #15
1000512e:	6061      	str	r1, [r4, #4]
10005130:	eb04 0102 	add.w	r1, r4, r2
10005134:	e9c1 cc01 	strd	ip, ip, [r1, #4]
10005138:	f200 814d 	bhi.w	100053d6 <_malloc_r+0x526>
1000513c:	f8da 2004 	ldr.w	r2, [sl, #4]
10005140:	4b22      	ldr	r3, [pc, #136]	@ (100051cc <_malloc_r+0x31c>)
10005142:	4654      	mov	r4, sl
10005144:	6819      	ldr	r1, [r3, #0]
10005146:	4281      	cmp	r1, r0
10005148:	bf38      	it	cc
1000514a:	6018      	strcc	r0, [r3, #0]
1000514c:	4b20      	ldr	r3, [pc, #128]	@ (100051d0 <_malloc_r+0x320>)
1000514e:	6819      	ldr	r1, [r3, #0]
10005150:	4281      	cmp	r1, r0
10005152:	bf38      	it	cc
10005154:	6018      	strcc	r0, [r3, #0]
10005156:	e0a6      	b.n	100052a6 <_malloc_r+0x3f6>
10005158:	f8d6 e004 	ldr.w	lr, [r6, #4]
1000515c:	e733      	b.n	10004fc6 <_malloc_r+0x116>
1000515e:	1962      	adds	r2, r4, r5
10005160:	f045 0501 	orr.w	r5, r5, #1
10005164:	f043 0301 	orr.w	r3, r3, #1
10005168:	3408      	adds	r4, #8
1000516a:	f844 5c04 	str.w	r5, [r4, #-4]
1000516e:	4638      	mov	r0, r7
10005170:	60b2      	str	r2, [r6, #8]
10005172:	6053      	str	r3, [r2, #4]
10005174:	f000 f95e 	bl	10005434 <__malloc_unlock>
10005178:	4620      	mov	r0, r4
1000517a:	b003      	add	sp, #12
1000517c:	e8bd 8ff0 	ldmia.w	sp!, {r4, r5, r6, r7, r8, r9, sl, fp, pc}
10005180:	68a2      	ldr	r2, [r4, #8]
10005182:	4423      	add	r3, r4
10005184:	4638      	mov	r0, r7
10005186:	60d1      	str	r1, [r2, #12]
10005188:	608a      	str	r2, [r1, #8]
1000518a:	e6b2      	b.n	10004ef2 <_malloc_r+0x42>
1000518c:	68dc      	ldr	r4, [r3, #12]
1000518e:	42a3      	cmp	r3, r4
10005190:	f47f aea6 	bne.w	10004ee0 <_malloc_r+0x30>
10005194:	3002      	adds	r0, #2
10005196:	e6e7      	b.n	10004f68 <_malloc_r+0xb8>
10005198:	f5bc 6f20 	cmp.w	ip, #2560	@ 0xa00
1000519c:	ea4f 225c 	mov.w	r2, ip, lsr #9
100051a0:	d376      	bcc.n	10005290 <_malloc_r+0x3e0>
100051a2:	2a14      	cmp	r2, #20
100051a4:	f200 80cd 	bhi.w	10005342 <_malloc_r+0x492>
100051a8:	f102 035c 	add.w	r3, r2, #92	@ 0x5c
100051ac:	325b      	adds	r2, #91	@ 0x5b
100051ae:	00db      	lsls	r3, r3, #3
100051b0:	18f1      	adds	r1, r6, r3
100051b2:	58f3      	ldr	r3, [r6, r3]
100051b4:	3908      	subs	r1, #8
100051b6:	4299      	cmp	r1, r3
100051b8:	d111      	bne.n	100051de <_malloc_r+0x32e>
100051ba:	e0a5      	b.n	10005308 <_malloc_r+0x458>
100051bc:	20001358 	.word	0x20001358
100051c0:	20001a6c 	.word	0x20001a6c
100051c4:	2000134c 	.word	0x2000134c
100051c8:	20001a3c 	.word	0x20001a3c
100051cc:	20001a64 	.word	0x20001a64
100051d0:	20001a68 	.word	0x20001a68
100051d4:	20001360 	.word	0x20001360
100051d8:	689b      	ldr	r3, [r3, #8]
100051da:	4299      	cmp	r1, r3
100051dc:	d004      	beq.n	100051e8 <_malloc_r+0x338>
100051de:	685a      	ldr	r2, [r3, #4]
100051e0:	f022 0203 	bic.w	r2, r2, #3
100051e4:	4562      	cmp	r2, ip
100051e6:	d8f7      	bhi.n	100051d8 <_malloc_r+0x328>
100051e8:	68d9      	ldr	r1, [r3, #12]
100051ea:	e9c4 3102 	strd	r3, r1, [r4, #8]
100051ee:	608c      	str	r4, [r1, #8]
100051f0:	60dc      	str	r4, [r3, #12]
100051f2:	e6e8      	b.n	10004fc6 <_malloc_r+0x116>
100051f4:	2b14      	cmp	r3, #20
100051f6:	d963      	bls.n	100052c0 <_malloc_r+0x410>
100051f8:	2b54      	cmp	r3, #84	@ 0x54
100051fa:	f200 80ab 	bhi.w	10005354 <_malloc_r+0x4a4>
100051fe:	0b2b      	lsrs	r3, r5, #12
10005200:	f103 006f 	add.w	r0, r3, #111	@ 0x6f
10005204:	f103 0e6e 	add.w	lr, r3, #110	@ 0x6e
10005208:	00c3      	lsls	r3, r0, #3
1000520a:	e697      	b.n	10004f3c <_malloc_r+0x8c>
1000520c:	f8d4 c008 	ldr.w	ip, [r4, #8]
10005210:	4638      	mov	r0, r7
10005212:	1967      	adds	r7, r4, r5
10005214:	f045 0501 	orr.w	r5, r5, #1
10005218:	6065      	str	r5, [r4, #4]
1000521a:	f8cc 300c 	str.w	r3, [ip, #12]
1000521e:	f8c3 c008 	str.w	ip, [r3, #8]
10005222:	f041 0301 	orr.w	r3, r1, #1
10005226:	e9c6 7704 	strd	r7, r7, [r6, #16]
1000522a:	e9c7 8802 	strd	r8, r8, [r7, #8]
1000522e:	607b      	str	r3, [r7, #4]
10005230:	50a1      	str	r1, [r4, r2]
10005232:	3408      	adds	r4, #8
10005234:	f000 f8fe 	bl	10005434 <__malloc_unlock>
10005238:	e6f7      	b.n	1000502a <_malloc_r+0x17a>
1000523a:	4422      	add	r2, r4
1000523c:	4638      	mov	r0, r7
1000523e:	6851      	ldr	r1, [r2, #4]
10005240:	f041 0101 	orr.w	r1, r1, #1
10005244:	6051      	str	r1, [r2, #4]
10005246:	f854 2f08 	ldr.w	r2, [r4, #8]!
1000524a:	60d3      	str	r3, [r2, #12]
1000524c:	609a      	str	r2, [r3, #8]
1000524e:	f000 f8f1 	bl	10005434 <__malloc_unlock>
10005252:	e6ea      	b.n	1000502a <_malloc_r+0x17a>
10005254:	44a4      	add	ip, r4
10005256:	4638      	mov	r0, r7
10005258:	3408      	adds	r4, #8
1000525a:	f8dc 3004 	ldr.w	r3, [ip, #4]
1000525e:	f043 0301 	orr.w	r3, r3, #1
10005262:	f8cc 3004 	str.w	r3, [ip, #4]
10005266:	f000 f8e5 	bl	10005434 <__malloc_unlock>
1000526a:	e6de      	b.n	1000502a <_malloc_r+0x17a>
1000526c:	1962      	adds	r2, r4, r5
1000526e:	f043 0101 	orr.w	r1, r3, #1
10005272:	f045 0501 	orr.w	r5, r5, #1
10005276:	4638      	mov	r0, r7
10005278:	6065      	str	r5, [r4, #4]
1000527a:	e9c6 2204 	strd	r2, r2, [r6, #16]
1000527e:	e9c2 8802 	strd	r8, r8, [r2, #8]
10005282:	6051      	str	r1, [r2, #4]
10005284:	f844 300c 	str.w	r3, [r4, ip]
10005288:	3408      	adds	r4, #8
1000528a:	f000 f8d3 	bl	10005434 <__malloc_unlock>
1000528e:	e6cc      	b.n	1000502a <_malloc_r+0x17a>
10005290:	ea4f 129c 	mov.w	r2, ip, lsr #6
10005294:	f102 0339 	add.w	r3, r2, #57	@ 0x39
10005298:	3238      	adds	r2, #56	@ 0x38
1000529a:	00db      	lsls	r3, r3, #3
1000529c:	e788      	b.n	100051b0 <_malloc_r+0x300>
1000529e:	42b4      	cmp	r4, r6
100052a0:	d062      	beq.n	10005368 <_malloc_r+0x4b8>
100052a2:	68b4      	ldr	r4, [r6, #8]
100052a4:	6862      	ldr	r2, [r4, #4]
100052a6:	f022 0803 	bic.w	r8, r2, #3
100052aa:	45a8      	cmp	r8, r5
100052ac:	eba8 0305 	sub.w	r3, r8, r5
100052b0:	d302      	bcc.n	100052b8 <_malloc_r+0x408>
100052b2:	2b0f      	cmp	r3, #15
100052b4:	f73f af53 	bgt.w	1000515e <_malloc_r+0x2ae>
100052b8:	4638      	mov	r0, r7
100052ba:	f000 f8bb 	bl	10005434 <__malloc_unlock>
100052be:	e6b3      	b.n	10005028 <_malloc_r+0x178>
100052c0:	f103 005c 	add.w	r0, r3, #92	@ 0x5c
100052c4:	f103 0e5b 	add.w	lr, r3, #91	@ 0x5b
100052c8:	00c3      	lsls	r3, r0, #3
100052ca:	e637      	b.n	10004f3c <_malloc_r+0x8c>
100052cc:	f85a 3908 	ldr.w	r3, [sl], #-8
100052d0:	4553      	cmp	r3, sl
100052d2:	f040 80a0 	bne.w	10005416 <_malloc_r+0x566>
100052d6:	f010 0f03 	tst.w	r0, #3
100052da:	f100 30ff 	add.w	r0, r0, #4294967295	@ 0xffffffff
100052de:	d1f5      	bne.n	100052cc <_malloc_r+0x41c>
100052e0:	6873      	ldr	r3, [r6, #4]
100052e2:	ea23 030c 	bic.w	r3, r3, ip
100052e6:	6073      	str	r3, [r6, #4]
100052e8:	ea4f 0c4c 	mov.w	ip, ip, lsl #1
100052ec:	f10c 32ff 	add.w	r2, ip, #4294967295	@ 0xffffffff
100052f0:	429a      	cmp	r2, r3
100052f2:	d304      	bcc.n	100052fe <_malloc_r+0x44e>
100052f4:	e6a3      	b.n	1000503e <_malloc_r+0x18e>
100052f6:	ea4f 0c4c 	mov.w	ip, ip, lsl #1
100052fa:	f109 0904 	add.w	r9, r9, #4
100052fe:	ea1c 0f03 	tst.w	ip, r3
10005302:	d0f8      	beq.n	100052f6 <_malloc_r+0x446>
10005304:	4648      	mov	r0, r9
10005306:	e670      	b.n	10004fea <_malloc_r+0x13a>
10005308:	1092      	asrs	r2, r2, #2
1000530a:	f04f 0c01 	mov.w	ip, #1
1000530e:	fa0c f202 	lsl.w	r2, ip, r2
10005312:	ea4e 0e02 	orr.w	lr, lr, r2
10005316:	f8c6 e004 	str.w	lr, [r6, #4]
1000531a:	e766      	b.n	100051ea <_malloc_r+0x33a>
1000531c:	eb0a 0208 	add.w	r2, sl, r8
10005320:	4638      	mov	r0, r7
10005322:	ea02 020c 	and.w	r2, r2, ip
10005326:	ebab 0b02 	sub.w	fp, fp, r2
1000532a:	ea0b 0b0c 	and.w	fp, fp, ip
1000532e:	4659      	mov	r1, fp
10005330:	f000 f8d4 	bl	100054dc <_sbrk_r>
10005334:	1c43      	adds	r3, r0, #1
10005336:	9b01      	ldr	r3, [sp, #4]
10005338:	f47f aedb 	bne.w	100050f2 <_malloc_r+0x242>
1000533c:	f8dd b000 	ldr.w	fp, [sp]
10005340:	e6db      	b.n	100050fa <_malloc_r+0x24a>
10005342:	2a54      	cmp	r2, #84	@ 0x54
10005344:	d82a      	bhi.n	1000539c <_malloc_r+0x4ec>
10005346:	ea4f 321c 	mov.w	r2, ip, lsr #12
1000534a:	f102 036f 	add.w	r3, r2, #111	@ 0x6f
1000534e:	326e      	adds	r2, #110	@ 0x6e
10005350:	00db      	lsls	r3, r3, #3
10005352:	e72d      	b.n	100051b0 <_malloc_r+0x300>
10005354:	f5b3 7faa 	cmp.w	r3, #340	@ 0x154
10005358:	d82a      	bhi.n	100053b0 <_malloc_r+0x500>
1000535a:	0beb      	lsrs	r3, r5, #15
1000535c:	f103 0078 	add.w	r0, r3, #120	@ 0x78
10005360:	f103 0e77 	add.w	lr, r3, #119	@ 0x77
10005364:	00c3      	lsls	r3, r0, #3
10005366:	e5e9      	b.n	10004f3c <_malloc_r+0x8c>
10005368:	4b2e      	ldr	r3, [pc, #184]	@ (10005424 <_malloc_r+0x574>)
1000536a:	f10b 3cff 	add.w	ip, fp, #4294967295	@ 0xffffffff
1000536e:	6818      	ldr	r0, [r3, #0]
10005370:	4440      	add	r0, r8
10005372:	6018      	str	r0, [r3, #0]
10005374:	e69b      	b.n	100050ae <_malloc_r+0x1fe>
10005376:	ea1a 0f0c 	tst.w	sl, ip
1000537a:	f47f ae98 	bne.w	100050ae <_malloc_r+0x1fe>
1000537e:	44c8      	add	r8, r9
10005380:	f8d6 a008 	ldr.w	sl, [r6, #8]
10005384:	f048 0201 	orr.w	r2, r8, #1
10005388:	f8ca 2004 	str.w	r2, [sl, #4]
1000538c:	e6d8      	b.n	10005140 <_malloc_r+0x290>
1000538e:	f8c2 a000 	str.w	sl, [r2]
10005392:	e696      	b.n	100050c2 <_malloc_r+0x212>
10005394:	2301      	movs	r3, #1
10005396:	f8ca 3004 	str.w	r3, [sl, #4]
1000539a:	e78d      	b.n	100052b8 <_malloc_r+0x408>
1000539c:	f5b2 7faa 	cmp.w	r2, #340	@ 0x154
100053a0:	d824      	bhi.n	100053ec <_malloc_r+0x53c>
100053a2:	ea4f 32dc 	mov.w	r2, ip, lsr #15
100053a6:	f102 0378 	add.w	r3, r2, #120	@ 0x78
100053aa:	3277      	adds	r2, #119	@ 0x77
100053ac:	00db      	lsls	r3, r3, #3
100053ae:	e6ff      	b.n	100051b0 <_malloc_r+0x300>
100053b0:	f240 5254 	movw	r2, #1364	@ 0x554
100053b4:	4293      	cmp	r3, r2
100053b6:	d824      	bhi.n	10005402 <_malloc_r+0x552>
100053b8:	0cab      	lsrs	r3, r5, #18
100053ba:	f103 007d 	add.w	r0, r3, #125	@ 0x7d
100053be:	f103 0e7c 	add.w	lr, r3, #124	@ 0x7c
100053c2:	00c3      	lsls	r3, r0, #3
100053c4:	e5ba      	b.n	10004f3c <_malloc_r+0x8c>
100053c6:	9a00      	ldr	r2, [sp, #0]
100053c8:	f04f 0b00 	mov.w	fp, #0
100053cc:	3a08      	subs	r2, #8
100053ce:	4490      	add	r8, r2
100053d0:	eba8 080a 	sub.w	r8, r8, sl
100053d4:	e691      	b.n	100050fa <_malloc_r+0x24a>
100053d6:	4638      	mov	r0, r7
100053d8:	f104 0108 	add.w	r1, r4, #8
100053dc:	9300      	str	r3, [sp, #0]
100053de:	f000 f9a7 	bl	10005730 <_free_r>
100053e2:	9b00      	ldr	r3, [sp, #0]
100053e4:	f8d6 a008 	ldr.w	sl, [r6, #8]
100053e8:	6818      	ldr	r0, [r3, #0]
100053ea:	e6a7      	b.n	1000513c <_malloc_r+0x28c>
100053ec:	f240 5354 	movw	r3, #1364	@ 0x554
100053f0:	429a      	cmp	r2, r3
100053f2:	d80c      	bhi.n	1000540e <_malloc_r+0x55e>
100053f4:	ea4f 429c 	mov.w	r2, ip, lsr #18
100053f8:	f102 037d 	add.w	r3, r2, #125	@ 0x7d
100053fc:	327c      	adds	r2, #124	@ 0x7c
100053fe:	00db      	lsls	r3, r3, #3
10005400:	e6d6      	b.n	100051b0 <_malloc_r+0x300>
10005402:	f44f 737e 	mov.w	r3, #1016	@ 0x3f8
10005406:	207f      	movs	r0, #127	@ 0x7f
10005408:	f04f 0e7e 	mov.w	lr, #126	@ 0x7e
1000540c:	e596      	b.n	10004f3c <_malloc_r+0x8c>
1000540e:	f44f 737e 	mov.w	r3, #1016	@ 0x3f8
10005412:	227e      	movs	r2, #126	@ 0x7e
10005414:	e6cc      	b.n	100051b0 <_malloc_r+0x300>
10005416:	6873      	ldr	r3, [r6, #4]
10005418:	e766      	b.n	100052e8 <_malloc_r+0x438>
1000541a:	08e8      	lsrs	r0, r5, #3
1000541c:	f105 0308 	add.w	r3, r5, #8
10005420:	e556      	b.n	10004ed0 <_malloc_r+0x20>
10005422:	bf00      	nop
10005424:	20001a3c 	.word	0x20001a3c

10005428 <__malloc_lock>:
10005428:	4801      	ldr	r0, [pc, #4]	@ (10005430 <__malloc_lock+0x8>)
1000542a:	f000 b86f 	b.w	1000550c <__retarget_lock_acquire_recursive>
1000542e:	bf00      	nop
10005430:	20001a38 	.word	0x20001a38

10005434 <__malloc_unlock>:
10005434:	4801      	ldr	r0, [pc, #4]	@ (1000543c <__malloc_unlock+0x8>)
10005436:	f000 b86b 	b.w	10005510 <__retarget_lock_release_recursive>
1000543a:	bf00      	nop
1000543c:	20001a38 	.word	0x20001a38

10005440 <memset>:
10005440:	0783      	lsls	r3, r0, #30
10005442:	b530      	push	{r4, r5, lr}
10005444:	d046      	beq.n	100054d4 <memset+0x94>
10005446:	1884      	adds	r4, r0, r2
10005448:	4684      	mov	ip, r0
1000544a:	e004      	b.n	10005456 <memset+0x16>
1000544c:	f803 1b01 	strb.w	r1, [r3], #1
10005450:	079d      	lsls	r5, r3, #30
10005452:	d004      	beq.n	1000545e <memset+0x1e>
10005454:	469c      	mov	ip, r3
10005456:	45a4      	cmp	ip, r4
10005458:	4663      	mov	r3, ip
1000545a:	d1f7      	bne.n	1000544c <memset+0xc>
1000545c:	bd30      	pop	{r4, r5, pc}
1000545e:	3a01      	subs	r2, #1
10005460:	4402      	add	r2, r0
10005462:	eba2 020c 	sub.w	r2, r2, ip
10005466:	2a03      	cmp	r2, #3
10005468:	d929      	bls.n	100054be <memset+0x7e>
1000546a:	b2cc      	uxtb	r4, r1
1000546c:	2a0f      	cmp	r2, #15
1000546e:	eb04 2404 	add.w	r4, r4, r4, lsl #8
10005472:	eb04 4404 	add.w	r4, r4, r4, lsl #16
10005476:	d92f      	bls.n	100054d8 <memset+0x98>
10005478:	f1a2 0c10 	sub.w	ip, r2, #16
1000547c:	f103 0510 	add.w	r5, r3, #16
10005480:	f02c 0c0f 	bic.w	ip, ip, #15
10005484:	44ac      	add	ip, r5
10005486:	e9c3 4400 	strd	r4, r4, [r3]
1000548a:	e9c3 4402 	strd	r4, r4, [r3, #8]
1000548e:	3310      	adds	r3, #16
10005490:	4563      	cmp	r3, ip
10005492:	d1f8      	bne.n	10005486 <memset+0x46>
10005494:	f012 0f0c 	tst.w	r2, #12
10005498:	f002 0e0f 	and.w	lr, r2, #15
1000549c:	d018      	beq.n	100054d0 <memset+0x90>
1000549e:	f02e 0c03 	bic.w	ip, lr, #3
100054a2:	f1ae 0504 	sub.w	r5, lr, #4
100054a6:	461a      	mov	r2, r3
100054a8:	449c      	add	ip, r3
100054aa:	f842 4b04 	str.w	r4, [r2], #4
100054ae:	4562      	cmp	r2, ip
100054b0:	d1fb      	bne.n	100054aa <memset+0x6a>
100054b2:	f025 0403 	bic.w	r4, r5, #3
100054b6:	3304      	adds	r3, #4
100054b8:	f00e 0203 	and.w	r2, lr, #3
100054bc:	4423      	add	r3, r4
100054be:	2a00      	cmp	r2, #0
100054c0:	d0cc      	beq.n	1000545c <memset+0x1c>
100054c2:	b2c9      	uxtb	r1, r1
100054c4:	441a      	add	r2, r3
100054c6:	f803 1b01 	strb.w	r1, [r3], #1
100054ca:	4293      	cmp	r3, r2
100054cc:	d1fb      	bne.n	100054c6 <memset+0x86>
100054ce:	bd30      	pop	{r4, r5, pc}
100054d0:	4672      	mov	r2, lr
100054d2:	e7f4      	b.n	100054be <memset+0x7e>
100054d4:	4603      	mov	r3, r0
100054d6:	e7c6      	b.n	10005466 <memset+0x26>
100054d8:	4696      	mov	lr, r2
100054da:	e7e0      	b.n	1000549e <memset+0x5e>

100054dc <_sbrk_r>:
100054dc:	b538      	push	{r3, r4, r5, lr}
100054de:	2200      	movs	r2, #0
100054e0:	4d06      	ldr	r5, [pc, #24]	@ (100054fc <_sbrk_r+0x20>)
100054e2:	4604      	mov	r4, r0
100054e4:	4608      	mov	r0, r1
100054e6:	602a      	str	r2, [r5, #0]
100054e8:	f7fc ff18 	bl	1000231c <_sbrk>
100054ec:	1c43      	adds	r3, r0, #1
100054ee:	d000      	beq.n	100054f2 <_sbrk_r+0x16>
100054f0:	bd38      	pop	{r3, r4, r5, pc}
100054f2:	682b      	ldr	r3, [r5, #0]
100054f4:	2b00      	cmp	r3, #0
100054f6:	d0fb      	beq.n	100054f0 <_sbrk_r+0x14>
100054f8:	6023      	str	r3, [r4, #0]
100054fa:	bd38      	pop	{r3, r4, r5, pc}
100054fc:	200021d0 	.word	0x200021d0

10005500 <__errno>:
10005500:	4b01      	ldr	r3, [pc, #4]	@ (10005508 <__errno+0x8>)
10005502:	6818      	ldr	r0, [r3, #0]
10005504:	4770      	bx	lr
10005506:	bf00      	nop
10005508:	20001760 	.word	0x20001760

1000550c <__retarget_lock_acquire_recursive>:
1000550c:	4770      	bx	lr
1000550e:	bf00      	nop

10005510 <__retarget_lock_release_recursive>:
10005510:	4770      	bx	lr
10005512:	bf00      	nop

10005514 <sysconf>:
10005514:	2808      	cmp	r0, #8
10005516:	d102      	bne.n	1000551e <sysconf+0xa>
10005518:	f44f 5080 	mov.w	r0, #4096	@ 0x1000
1000551c:	4770      	bx	lr
1000551e:	b508      	push	{r3, lr}
10005520:	f7ff ffee 	bl	10005500 <__errno>
10005524:	2216      	movs	r2, #22
10005526:	4603      	mov	r3, r0
10005528:	f04f 30ff 	mov.w	r0, #4294967295	@ 0xffffffff
1000552c:	601a      	str	r2, [r3, #0]
1000552e:	bd08      	pop	{r3, pc}

10005530 <memcpy>:
10005530:	4684      	mov	ip, r0
10005532:	ea41 0300 	orr.w	r3, r1, r0
10005536:	f013 0303 	ands.w	r3, r3, #3
1000553a:	d149      	bne.n	100055d0 <memcpy+0xa0>
1000553c:	3a40      	subs	r2, #64	@ 0x40
1000553e:	d323      	bcc.n	10005588 <memcpy+0x58>
10005540:	680b      	ldr	r3, [r1, #0]
10005542:	6003      	str	r3, [r0, #0]
10005544:	684b      	ldr	r3, [r1, #4]
10005546:	6043      	str	r3, [r0, #4]
10005548:	688b      	ldr	r3, [r1, #8]
1000554a:	6083      	str	r3, [r0, #8]
1000554c:	68cb      	ldr	r3, [r1, #12]
1000554e:	60c3      	str	r3, [r0, #12]
10005550:	690b      	ldr	r3, [r1, #16]
10005552:	6103      	str	r3, [r0, #16]
10005554:	694b      	ldr	r3, [r1, #20]
10005556:	6143      	str	r3, [r0, #20]
10005558:	698b      	ldr	r3, [r1, #24]
1000555a:	6183      	str	r3, [r0, #24]
1000555c:	69cb      	ldr	r3, [r1, #28]
1000555e:	61c3      	str	r3, [r0, #28]
10005560:	6a0b      	ldr	r3, [r1, #32]
10005562:	6203      	str	r3, [r0, #32]
10005564:	6a4b      	ldr	r3, [r1, #36]	@ 0x24
10005566:	6243      	str	r3, [r0, #36]	@ 0x24
10005568:	6a8b      	ldr	r3, [r1, #40]	@ 0x28
1000556a:	6283      	str	r3, [r0, #40]	@ 0x28
1000556c:	6acb      	ldr	r3, [r1, #44]	@ 0x2c
1000556e:	62c3      	str	r3, [r0, #44]	@ 0x2c
10005570:	6b0b      	ldr	r3, [r1, #48]	@ 0x30
10005572:	6303      	str	r3, [r0, #48]	@ 0x30
10005574:	6b4b      	ldr	r3, [r1, #52]	@ 0x34
10005576:	6343      	str	r3, [r0, #52]	@ 0x34
10005578:	6b8b      	ldr	r3, [r1, #56]	@ 0x38
1000557a:	6383      	str	r3, [r0, #56]	@ 0x38
1000557c:	6bcb      	ldr	r3, [r1, #60]	@ 0x3c
1000557e:	63c3      	str	r3, [r0, #60]	@ 0x3c
10005580:	3040      	adds	r0, #64	@ 0x40
10005582:	3140      	adds	r1, #64	@ 0x40
10005584:	3a40      	subs	r2, #64	@ 0x40
10005586:	d2db      	bcs.n	10005540 <memcpy+0x10>
10005588:	3230      	adds	r2, #48	@ 0x30
1000558a:	d30b      	bcc.n	100055a4 <memcpy+0x74>
1000558c:	680b      	ldr	r3, [r1, #0]
1000558e:	6003      	str	r3, [r0, #0]
10005590:	684b      	ldr	r3, [r1, #4]
10005592:	6043      	str	r3, [r0, #4]
10005594:	688b      	ldr	r3, [r1, #8]
10005596:	6083      	str	r3, [r0, #8]
10005598:	68cb      	ldr	r3, [r1, #12]
1000559a:	60c3      	str	r3, [r0, #12]
1000559c:	3010      	adds	r0, #16
1000559e:	3110      	adds	r1, #16
100055a0:	3a10      	subs	r2, #16
100055a2:	d2f3      	bcs.n	1000558c <memcpy+0x5c>
100055a4:	320c      	adds	r2, #12
100055a6:	d305      	bcc.n	100055b4 <memcpy+0x84>
100055a8:	f851 3b04 	ldr.w	r3, [r1], #4
100055ac:	f840 3b04 	str.w	r3, [r0], #4
100055b0:	3a04      	subs	r2, #4
100055b2:	d2f9      	bcs.n	100055a8 <memcpy+0x78>
100055b4:	3204      	adds	r2, #4
100055b6:	d008      	beq.n	100055ca <memcpy+0x9a>
100055b8:	07d2      	lsls	r2, r2, #31
100055ba:	bf1c      	itt	ne
100055bc:	f811 3b01 	ldrbne.w	r3, [r1], #1
100055c0:	f800 3b01 	strbne.w	r3, [r0], #1
100055c4:	d301      	bcc.n	100055ca <memcpy+0x9a>
100055c6:	880b      	ldrh	r3, [r1, #0]
100055c8:	8003      	strh	r3, [r0, #0]
100055ca:	4660      	mov	r0, ip
100055cc:	4770      	bx	lr
100055ce:	bf00      	nop
100055d0:	2a08      	cmp	r2, #8
100055d2:	d313      	bcc.n	100055fc <memcpy+0xcc>
100055d4:	078b      	lsls	r3, r1, #30
100055d6:	d0b1      	beq.n	1000553c <memcpy+0xc>
100055d8:	f010 0303 	ands.w	r3, r0, #3
100055dc:	d0ae      	beq.n	1000553c <memcpy+0xc>
100055de:	f1c3 0304 	rsb	r3, r3, #4
100055e2:	1ad2      	subs	r2, r2, r3
100055e4:	07db      	lsls	r3, r3, #31
100055e6:	bf1c      	itt	ne
100055e8:	f811 3b01 	ldrbne.w	r3, [r1], #1
100055ec:	f800 3b01 	strbne.w	r3, [r0], #1
100055f0:	d3a4      	bcc.n	1000553c <memcpy+0xc>
100055f2:	f831 3b02 	ldrh.w	r3, [r1], #2
100055f6:	f820 3b02 	strh.w	r3, [r0], #2
100055fa:	e79f      	b.n	1000553c <memcpy+0xc>
100055fc:	3a04      	subs	r2, #4
100055fe:	d3d9      	bcc.n	100055b4 <memcpy+0x84>
10005600:	3a01      	subs	r2, #1
10005602:	f811 3b01 	ldrb.w	r3, [r1], #1
10005606:	f800 3b01 	strb.w	r3, [r0], #1
1000560a:	d2f9      	bcs.n	10005600 <memcpy+0xd0>
1000560c:	780b      	ldrb	r3, [r1, #0]
1000560e:	7003      	strb	r3, [r0, #0]
10005610:	784b      	ldrb	r3, [r1, #1]
10005612:	7043      	strb	r3, [r0, #1]
10005614:	788b      	ldrb	r3, [r1, #2]
10005616:	7083      	strb	r3, [r0, #2]
10005618:	4660      	mov	r0, ip
1000561a:	4770      	bx	lr

1000561c <strlen>:
1000561c:	f020 0103 	bic.w	r1, r0, #3
10005620:	f010 0003 	ands.w	r0, r0, #3
10005624:	f1c0 0000 	rsb	r0, r0, #0
10005628:	f851 3b04 	ldr.w	r3, [r1], #4
1000562c:	f100 0c04 	add.w	ip, r0, #4
10005630:	ea4f 0ccc 	mov.w	ip, ip, lsl #3
10005634:	f06f 0200 	mvn.w	r2, #0
10005638:	bf1c      	itt	ne
1000563a:	fa22 f20c 	lsrne.w	r2, r2, ip
1000563e:	4313      	orrne	r3, r2
10005640:	f04f 0c01 	mov.w	ip, #1
10005644:	ea4c 2c0c 	orr.w	ip, ip, ip, lsl #8
10005648:	ea4c 4c0c 	orr.w	ip, ip, ip, lsl #16
1000564c:	eba3 020c 	sub.w	r2, r3, ip
10005650:	ea22 0203 	bic.w	r2, r2, r3
10005654:	ea12 12cc 	ands.w	r2, r2, ip, lsl #7
10005658:	bf04      	itt	eq
1000565a:	f851 3b04 	ldreq.w	r3, [r1], #4
1000565e:	3004      	addeq	r0, #4
10005660:	d0f4      	beq.n	1000564c <strlen+0x30>
10005662:	f1c2 0100 	rsb	r1, r2, #0
10005666:	ea02 0201 	and.w	r2, r2, r1
1000566a:	fab2 f282 	clz	r2, r2
1000566e:	f1c2 021f 	rsb	r2, r2, #31
10005672:	eb00 00d2 	add.w	r0, r0, r2, lsr #3
10005676:	4770      	bx	lr

10005678 <_malloc_trim_r>:
10005678:	e92d 43f8 	stmdb	sp!, {r3, r4, r5, r6, r7, r8, r9, lr}
1000567c:	4606      	mov	r6, r0
1000567e:	f8df 80ac 	ldr.w	r8, [pc, #172]	@ 1000572c <_malloc_trim_r+0xb4>
10005682:	2008      	movs	r0, #8
10005684:	4689      	mov	r9, r1
10005686:	f7ff ff45 	bl	10005514 <sysconf>
1000568a:	4605      	mov	r5, r0
1000568c:	4630      	mov	r0, r6
1000568e:	f7ff fecb 	bl	10005428 <__malloc_lock>
10005692:	f8d8 3008 	ldr.w	r3, [r8, #8]
10005696:	685f      	ldr	r7, [r3, #4]
10005698:	f027 0703 	bic.w	r7, r7, #3
1000569c:	f1a7 0411 	sub.w	r4, r7, #17
100056a0:	eba4 0409 	sub.w	r4, r4, r9
100056a4:	442c      	add	r4, r5
100056a6:	fbb4 f4f5 	udiv	r4, r4, r5
100056aa:	3c01      	subs	r4, #1
100056ac:	fb05 f404 	mul.w	r4, r5, r4
100056b0:	42a5      	cmp	r5, r4
100056b2:	dc08      	bgt.n	100056c6 <_malloc_trim_r+0x4e>
100056b4:	2100      	movs	r1, #0
100056b6:	4630      	mov	r0, r6
100056b8:	f7ff ff10 	bl	100054dc <_sbrk_r>
100056bc:	f8d8 3008 	ldr.w	r3, [r8, #8]
100056c0:	443b      	add	r3, r7
100056c2:	4298      	cmp	r0, r3
100056c4:	d005      	beq.n	100056d2 <_malloc_trim_r+0x5a>
100056c6:	4630      	mov	r0, r6
100056c8:	f7ff feb4 	bl	10005434 <__malloc_unlock>
100056cc:	2000      	movs	r0, #0
100056ce:	e8bd 83f8 	ldmia.w	sp!, {r3, r4, r5, r6, r7, r8, r9, pc}
100056d2:	4261      	negs	r1, r4
100056d4:	4630      	mov	r0, r6
100056d6:	f7ff ff01 	bl	100054dc <_sbrk_r>
100056da:	3001      	adds	r0, #1
100056dc:	d00f      	beq.n	100056fe <_malloc_trim_r+0x86>
100056de:	1b3f      	subs	r7, r7, r4
100056e0:	4a10      	ldr	r2, [pc, #64]	@ (10005724 <_malloc_trim_r+0xac>)
100056e2:	f8d8 3008 	ldr.w	r3, [r8, #8]
100056e6:	4630      	mov	r0, r6
100056e8:	f047 0701 	orr.w	r7, r7, #1
100056ec:	605f      	str	r7, [r3, #4]
100056ee:	6813      	ldr	r3, [r2, #0]
100056f0:	1b1b      	subs	r3, r3, r4
100056f2:	6013      	str	r3, [r2, #0]
100056f4:	f7ff fe9e 	bl	10005434 <__malloc_unlock>
100056f8:	2001      	movs	r0, #1
100056fa:	e8bd 83f8 	ldmia.w	sp!, {r3, r4, r5, r6, r7, r8, r9, pc}
100056fe:	2100      	movs	r1, #0
10005700:	4630      	mov	r0, r6
10005702:	f7ff feeb 	bl	100054dc <_sbrk_r>
10005706:	f8d8 2008 	ldr.w	r2, [r8, #8]
1000570a:	1a83      	subs	r3, r0, r2
1000570c:	2b0f      	cmp	r3, #15
1000570e:	ddda      	ble.n	100056c6 <_malloc_trim_r+0x4e>
10005710:	f043 0301 	orr.w	r3, r3, #1
10005714:	4903      	ldr	r1, [pc, #12]	@ (10005724 <_malloc_trim_r+0xac>)
10005716:	6053      	str	r3, [r2, #4]
10005718:	4b03      	ldr	r3, [pc, #12]	@ (10005728 <_malloc_trim_r+0xb0>)
1000571a:	681b      	ldr	r3, [r3, #0]
1000571c:	1ac0      	subs	r0, r0, r3
1000571e:	6008      	str	r0, [r1, #0]
10005720:	e7d1      	b.n	100056c6 <_malloc_trim_r+0x4e>
10005722:	bf00      	nop
10005724:	20001a3c 	.word	0x20001a3c
10005728:	2000134c 	.word	0x2000134c
1000572c:	20001358 	.word	0x20001358

10005730 <_free_r>:
10005730:	2900      	cmp	r1, #0
10005732:	d05a      	beq.n	100057ea <_free_r+0xba>
10005734:	b5f8      	push	{r3, r4, r5, r6, r7, lr}
10005736:	460c      	mov	r4, r1
10005738:	4607      	mov	r7, r0
1000573a:	f7ff fe75 	bl	10005428 <__malloc_lock>
1000573e:	4d73      	ldr	r5, [pc, #460]	@ (1000590c <_free_r+0x1dc>)
10005740:	f854 cc04 	ldr.w	ip, [r4, #-4]
10005744:	f1a4 0208 	sub.w	r2, r4, #8
10005748:	68a8      	ldr	r0, [r5, #8]
1000574a:	f02c 0301 	bic.w	r3, ip, #1
1000574e:	f00c 0e01 	and.w	lr, ip, #1
10005752:	18d1      	adds	r1, r2, r3
10005754:	684e      	ldr	r6, [r1, #4]
10005756:	4288      	cmp	r0, r1
10005758:	f026 0603 	bic.w	r6, r6, #3
1000575c:	d07c      	beq.n	10005858 <_free_r+0x128>
1000575e:	1988      	adds	r0, r1, r6
10005760:	604e      	str	r6, [r1, #4]
10005762:	6840      	ldr	r0, [r0, #4]
10005764:	f000 0001 	and.w	r0, r0, #1
10005768:	f1be 0f00 	cmp.w	lr, #0
1000576c:	d12e      	bne.n	100057cc <_free_r+0x9c>
1000576e:	f854 4c08 	ldr.w	r4, [r4, #-8]
10005772:	f105 0c08 	add.w	ip, r5, #8
10005776:	1b12      	subs	r2, r2, r4
10005778:	4423      	add	r3, r4
1000577a:	6894      	ldr	r4, [r2, #8]
1000577c:	4564      	cmp	r4, ip
1000577e:	d060      	beq.n	10005842 <_free_r+0x112>
10005780:	f8d2 e00c 	ldr.w	lr, [r2, #12]
10005784:	f8c4 e00c 	str.w	lr, [r4, #12]
10005788:	f8ce 4008 	str.w	r4, [lr, #8]
1000578c:	2800      	cmp	r0, #0
1000578e:	d07d      	beq.n	1000588c <_free_r+0x15c>
10005790:	f043 0001 	orr.w	r0, r3, #1
10005794:	6050      	str	r0, [r2, #4]
10005796:	600b      	str	r3, [r1, #0]
10005798:	f5b3 7f00 	cmp.w	r3, #512	@ 0x200
1000579c:	d22e      	bcs.n	100057fc <_free_r+0xcc>
1000579e:	0958      	lsrs	r0, r3, #5
100057a0:	08d9      	lsrs	r1, r3, #3
100057a2:	2301      	movs	r3, #1
100057a4:	4083      	lsls	r3, r0
100057a6:	6868      	ldr	r0, [r5, #4]
100057a8:	3101      	adds	r1, #1
100057aa:	4303      	orrs	r3, r0
100057ac:	f855 0031 	ldr.w	r0, [r5, r1, lsl #3]
100057b0:	606b      	str	r3, [r5, #4]
100057b2:	eb05 03c1 	add.w	r3, r5, r1, lsl #3
100057b6:	3b08      	subs	r3, #8
100057b8:	e9c2 0302 	strd	r0, r3, [r2, #8]
100057bc:	f845 2031 	str.w	r2, [r5, r1, lsl #3]
100057c0:	60c2      	str	r2, [r0, #12]
100057c2:	4638      	mov	r0, r7
100057c4:	e8bd 40f8 	ldmia.w	sp!, {r3, r4, r5, r6, r7, lr}
100057c8:	f7ff be34 	b.w	10005434 <__malloc_unlock>
100057cc:	b970      	cbnz	r0, 100057ec <_free_r+0xbc>
100057ce:	4433      	add	r3, r6
100057d0:	f105 0c08 	add.w	ip, r5, #8
100057d4:	6888      	ldr	r0, [r1, #8]
100057d6:	f043 0401 	orr.w	r4, r3, #1
100057da:	4560      	cmp	r0, ip
100057dc:	d06e      	beq.n	100058bc <_free_r+0x18c>
100057de:	68c9      	ldr	r1, [r1, #12]
100057e0:	60c1      	str	r1, [r0, #12]
100057e2:	6088      	str	r0, [r1, #8]
100057e4:	6054      	str	r4, [r2, #4]
100057e6:	50d3      	str	r3, [r2, r3]
100057e8:	e7d6      	b.n	10005798 <_free_r+0x68>
100057ea:	4770      	bx	lr
100057ec:	f04c 0101 	orr.w	r1, ip, #1
100057f0:	f5b3 7f00 	cmp.w	r3, #512	@ 0x200
100057f4:	f844 1c04 	str.w	r1, [r4, #-4]
100057f8:	50d3      	str	r3, [r2, r3]
100057fa:	d3d0      	bcc.n	1000579e <_free_r+0x6e>
100057fc:	f5b3 6f20 	cmp.w	r3, #2560	@ 0xa00
10005800:	ea4f 2153 	mov.w	r1, r3, lsr #9
10005804:	d244      	bcs.n	10005890 <_free_r+0x160>
10005806:	0999      	lsrs	r1, r3, #6
10005808:	f101 0039 	add.w	r0, r1, #57	@ 0x39
1000580c:	f101 0438 	add.w	r4, r1, #56	@ 0x38
10005810:	00c1      	lsls	r1, r0, #3
10005812:	1868      	adds	r0, r5, r1
10005814:	5869      	ldr	r1, [r5, r1]
10005816:	3808      	subs	r0, #8
10005818:	4288      	cmp	r0, r1
1000581a:	d103      	bne.n	10005824 <_free_r+0xf4>
1000581c:	e055      	b.n	100058ca <_free_r+0x19a>
1000581e:	6889      	ldr	r1, [r1, #8]
10005820:	4288      	cmp	r0, r1
10005822:	d004      	beq.n	1000582e <_free_r+0xfe>
10005824:	684c      	ldr	r4, [r1, #4]
10005826:	f024 0403 	bic.w	r4, r4, #3
1000582a:	429c      	cmp	r4, r3
1000582c:	d8f7      	bhi.n	1000581e <_free_r+0xee>
1000582e:	68c8      	ldr	r0, [r1, #12]
10005830:	e9c2 1002 	strd	r1, r0, [r2, #8]
10005834:	6082      	str	r2, [r0, #8]
10005836:	4638      	mov	r0, r7
10005838:	60ca      	str	r2, [r1, #12]
1000583a:	e8bd 40f8 	ldmia.w	sp!, {r3, r4, r5, r6, r7, lr}
1000583e:	f7ff bdf9 	b.w	10005434 <__malloc_unlock>
10005842:	bb80      	cbnz	r0, 100058a6 <_free_r+0x176>
10005844:	441e      	add	r6, r3
10005846:	e9d1 1302 	ldrd	r1, r3, [r1, #8]
1000584a:	60cb      	str	r3, [r1, #12]
1000584c:	6099      	str	r1, [r3, #8]
1000584e:	f046 0301 	orr.w	r3, r6, #1
10005852:	6053      	str	r3, [r2, #4]
10005854:	5196      	str	r6, [r2, r6]
10005856:	e7b4      	b.n	100057c2 <_free_r+0x92>
10005858:	441e      	add	r6, r3
1000585a:	f1be 0f00 	cmp.w	lr, #0
1000585e:	d107      	bne.n	10005870 <_free_r+0x140>
10005860:	f854 3c08 	ldr.w	r3, [r4, #-8]
10005864:	1ad2      	subs	r2, r2, r3
10005866:	441e      	add	r6, r3
10005868:	e9d2 1302 	ldrd	r1, r3, [r2, #8]
1000586c:	60cb      	str	r3, [r1, #12]
1000586e:	6099      	str	r1, [r3, #8]
10005870:	f046 0301 	orr.w	r3, r6, #1
10005874:	6053      	str	r3, [r2, #4]
10005876:	4b26      	ldr	r3, [pc, #152]	@ (10005910 <_free_r+0x1e0>)
10005878:	60aa      	str	r2, [r5, #8]
1000587a:	681b      	ldr	r3, [r3, #0]
1000587c:	42b3      	cmp	r3, r6
1000587e:	d8a0      	bhi.n	100057c2 <_free_r+0x92>
10005880:	4b24      	ldr	r3, [pc, #144]	@ (10005914 <_free_r+0x1e4>)
10005882:	4638      	mov	r0, r7
10005884:	6819      	ldr	r1, [r3, #0]
10005886:	f7ff fef7 	bl	10005678 <_malloc_trim_r>
1000588a:	e79a      	b.n	100057c2 <_free_r+0x92>
1000588c:	4433      	add	r3, r6
1000588e:	e7a1      	b.n	100057d4 <_free_r+0xa4>
10005890:	2914      	cmp	r1, #20
10005892:	d90d      	bls.n	100058b0 <_free_r+0x180>
10005894:	2954      	cmp	r1, #84	@ 0x54
10005896:	d81f      	bhi.n	100058d8 <_free_r+0x1a8>
10005898:	0b19      	lsrs	r1, r3, #12
1000589a:	f101 006f 	add.w	r0, r1, #111	@ 0x6f
1000589e:	f101 046e 	add.w	r4, r1, #110	@ 0x6e
100058a2:	00c1      	lsls	r1, r0, #3
100058a4:	e7b5      	b.n	10005812 <_free_r+0xe2>
100058a6:	f043 0001 	orr.w	r0, r3, #1
100058aa:	6050      	str	r0, [r2, #4]
100058ac:	600b      	str	r3, [r1, #0]
100058ae:	e788      	b.n	100057c2 <_free_r+0x92>
100058b0:	f101 005c 	add.w	r0, r1, #92	@ 0x5c
100058b4:	f101 045b 	add.w	r4, r1, #91	@ 0x5b
100058b8:	00c1      	lsls	r1, r0, #3
100058ba:	e7aa      	b.n	10005812 <_free_r+0xe2>
100058bc:	e9c5 2204 	strd	r2, r2, [r5, #16]
100058c0:	e9c2 cc02 	strd	ip, ip, [r2, #8]
100058c4:	6054      	str	r4, [r2, #4]
100058c6:	50d3      	str	r3, [r2, r3]
100058c8:	e77b      	b.n	100057c2 <_free_r+0x92>
100058ca:	10a4      	asrs	r4, r4, #2
100058cc:	2301      	movs	r3, #1
100058ce:	40a3      	lsls	r3, r4
100058d0:	686c      	ldr	r4, [r5, #4]
100058d2:	4323      	orrs	r3, r4
100058d4:	606b      	str	r3, [r5, #4]
100058d6:	e7ab      	b.n	10005830 <_free_r+0x100>
100058d8:	f5b1 7faa 	cmp.w	r1, #340	@ 0x154
100058dc:	d806      	bhi.n	100058ec <_free_r+0x1bc>
100058de:	0bd9      	lsrs	r1, r3, #15
100058e0:	f101 0078 	add.w	r0, r1, #120	@ 0x78
100058e4:	f101 0477 	add.w	r4, r1, #119	@ 0x77
100058e8:	00c1      	lsls	r1, r0, #3
100058ea:	e792      	b.n	10005812 <_free_r+0xe2>
100058ec:	f240 5054 	movw	r0, #1364	@ 0x554
100058f0:	4281      	cmp	r1, r0
100058f2:	d806      	bhi.n	10005902 <_free_r+0x1d2>
100058f4:	0c99      	lsrs	r1, r3, #18
100058f6:	f101 007d 	add.w	r0, r1, #125	@ 0x7d
100058fa:	f101 047c 	add.w	r4, r1, #124	@ 0x7c
100058fe:	00c1      	lsls	r1, r0, #3
10005900:	e787      	b.n	10005812 <_free_r+0xe2>
10005902:	f44f 717e 	mov.w	r1, #1016	@ 0x3f8
10005906:	247e      	movs	r4, #126	@ 0x7e
10005908:	e783      	b.n	10005812 <_free_r+0xe2>
1000590a:	bf00      	nop
1000590c:	20001358 	.word	0x20001358
10005910:	20001350 	.word	0x20001350
10005914:	20001a6c 	.word	0x20001a6c

10005918 <_fini>:
10005918:	b5f8      	push	{r3, r4, r5, r6, r7, lr}
1000591a:	bf00      	nop
1000591c:	0000      	movs	r0, r0
	...

10005920 <__e15_is_critical_frame_period_veneer>:
10005920:	f85f f000 	ldr.w	pc, [pc]	@ 10005924 <__e15_is_critical_frame_period_veneer+0x4>
10005924:	20000a95 	.word	0x20000a95

10005928 <__mutex_enter_timeout_ms_veneer>:
10005928:	f85f f000 	ldr.w	pc, [pc]	@ 1000592c <__mutex_enter_timeout_ms_veneer+0x4>
1000592c:	20000235 	.word	0x20000235

10005930 <__hw_endpoint_start_next_buffer_veneer>:
10005930:	f85f f000 	ldr.w	pc, [pc]	@ 10005934 <__hw_endpoint_start_next_buffer_veneer+0x4>
10005934:	20000b0d 	.word	0x20000b0d

10005938 <__reset_non_control_endpoints_veneer>:
10005938:	f85f f000 	ldr.w	pc, [pc]	@ 1000593c <__reset_non_control_endpoints_veneer+0x4>
1000593c:	200002a9 	.word	0x200002a9

10005940 <____aeabi_uldivmod_veneer>:
10005940:	f85f f000 	ldr.w	pc, [pc]	@ 10005944 <____aeabi_uldivmod_veneer+0x4>
10005944:	20000dd1 	.word	0x20000dd1

10005948 <__mutex_exit_veneer>:
10005948:	f85f f000 	ldr.w	pc, [pc]	@ 1000594c <__mutex_exit_veneer+0x4>
1000594c:	2000026d 	.word	0x2000026d

10005950 <___hw_endpoint_buffer_control_update32_veneer>:
10005950:	f85f f000 	ldr.w	pc, [pc]	@ 10005954 <___hw_endpoint_buffer_control_update32_veneer+0x4>
10005954:	20000ac9 	.word	0x20000ac9

10005958 <__mutex_try_enter_block_until_veneer>:
10005958:	f85f f000 	ldr.w	pc, [pc]	@ 1000595c <__mutex_try_enter_block_until_veneer+0x4>
1000595c:	200001cd 	.word	0x200001cd

10005960 <__mutex_try_enter_veneer>:
10005960:	f85f f000 	ldr.w	pc, [pc]	@ 10005964 <__mutex_try_enter_veneer+0x4>
10005964:	20000111 	.word	0x20000111

10005968 <__e15_is_bulkin_ep_veneer>:
10005968:	f85f f000 	ldr.w	pc, [pc]	@ 1000596c <__e15_is_bulkin_ep_veneer+0x4>
1000596c:	20000a6d 	.word	0x20000a6d

10005970 <__pre_init_runtime_init_bootrom_reset>:
10005970:	10002149                                I!..

10005974 <__pre_init_runtime_init_early_resets>:
10005974:	100020bd                                . ..

10005978 <__pre_init_runtime_init_usb_power_down>:
10005978:	100020f1                                . ..

1000597c <__pre_init_runtime_init_clocks>:
1000597c:	100021dd                                .!..

10005980 <__pre_init_runtime_init_post_clock_resets>:
10005980:	10002129                                )!..

10005984 <__pre_init_runtime_init_boot_locks_reset>:
10005984:	10002041                                A ..

10005988 <__pre_init_runtime_init_spin_locks_reset>:
10005988:	10002171                                q!..

1000598c <__pre_init_runtime_init_bootrom_locking_enable>:
1000598c:	1000202d                                - ..

10005990 <__pre_init_runtime_init_mutex>:
10005990:	10000ff5                                ....

10005994 <__pre_init_runtime_init_install_ram_vector_table>:
10005994:	10002175                                u!..

10005998 <__pre_init_runtime_init_default_alarm_pool>:
10005998:	100013b9                                ....

1000599c <__pre_init_first_per_core_initializer>:
1000599c:	1000208d                                . ..

100059a0 <__pre_init_runtime_init_per_core_bootrom_reset>:
100059a0:	1000215d                                ]!..

100059a4 <__pre_init_runtime_init_per_core_enable_coprocessors>:
100059a4:	1000210d                                .!..

100059a8 <__pre_init_spinlock_set_extexclall>:
100059a8:	10000bd1                                ....

100059ac <__pre_init_runtime_init_per_core_irq_priorities>:
100059ac:	10000bf9                                ....

100059b0 <__init_array_start>:
100059b0:	10002b89 	.word	0x10002b89

100059b4 <__frame_dummy_init_array_entry>:
100059b4:	10000211                                ....

Disassembly of section .data:

20000110 <mutex_try_enter>:
20000110:	4603      	mov	r3, r0
20000112:	b500      	push	{lr}
20000114:	6802      	ldr	r2, [r0, #0]
20000116:	f3ef 8c10 	mrs	ip, PRIMASK
2000011a:	b672      	cpsid	i
2000011c:	e8d2 efcf 	ldaexb	lr, [r2]
20000120:	2001      	movs	r0, #1
20000122:	f1be 0f00 	cmp.w	lr, #0
20000126:	d1f9      	bne.n	2000011c <mutex_try_enter+0xc>
20000128:	e8c2 0f4e 	strexb	lr, r0, [r2]
2000012c:	f1be 0f00 	cmp.w	lr, #0
20000130:	d1f4      	bne.n	2000011c <mutex_try_enter+0xc>
20000132:	f3bf 8f5f 	dmb	sy
20000136:	f993 2004 	ldrsb.w	r2, [r3, #4]
2000013a:	2a00      	cmp	r2, #0
2000013c:	db0a      	blt.n	20000154 <mutex_try_enter+0x44>
2000013e:	b101      	cbz	r1, 20000142 <mutex_try_enter+0x32>
20000140:	600a      	str	r2, [r1, #0]
20000142:	2000      	movs	r0, #0
20000144:	2200      	movs	r2, #0
20000146:	681b      	ldr	r3, [r3, #0]
20000148:	e8c3 2f8f 	stlb	r2, [r3]
2000014c:	f38c 8810 	msr	PRIMASK, ip
20000150:	f85d fb04 	ldr.w	pc, [sp], #4
20000154:	f04f 4250 	mov.w	r2, #3489660928	@ 0xd0000000
20000158:	6812      	ldr	r2, [r2, #0]
2000015a:	2001      	movs	r0, #1
2000015c:	711a      	strb	r2, [r3, #4]
2000015e:	e7f1      	b.n	20000144 <mutex_try_enter+0x34>

20000160 <mutex_enter_block_until>:
20000160:	f04f 4150 	mov.w	r1, #3489660928	@ 0xd0000000
20000164:	e92d 41f0 	stmdb	sp!, {r4, r5, r6, r7, r8, lr}
20000168:	2700      	movs	r7, #0
2000016a:	4604      	mov	r4, r0
2000016c:	4616      	mov	r6, r2
2000016e:	461d      	mov	r5, r3
20000170:	f8d1 8000 	ldr.w	r8, [r1]
20000174:	e008      	b.n	20000188 <mutex_enter_block_until+0x28>
20000176:	e8c1 7f8f 	stlb	r7, [r1]
2000017a:	f38c 8810 	msr	PRIMASK, ip
2000017e:	4630      	mov	r0, r6
20000180:	4629      	mov	r1, r5
20000182:	f000 ffed 	bl	20001160 <__best_effort_wfe_or_timeout_veneer>
20000186:	b9e8      	cbnz	r0, 200001c4 <mutex_enter_block_until+0x64>
20000188:	6821      	ldr	r1, [r4, #0]
2000018a:	f3ef 8c10 	mrs	ip, PRIMASK
2000018e:	b672      	cpsid	i
20000190:	e8d1 2fcf 	ldaexb	r2, [r1]
20000194:	2301      	movs	r3, #1
20000196:	2a00      	cmp	r2, #0
20000198:	d1fa      	bne.n	20000190 <mutex_enter_block_until+0x30>
2000019a:	e8c1 3f42 	strexb	r2, r3, [r1]
2000019e:	2a00      	cmp	r2, #0
200001a0:	d1f6      	bne.n	20000190 <mutex_enter_block_until+0x30>
200001a2:	f3bf 8f5f 	dmb	sy
200001a6:	f994 3004 	ldrsb.w	r3, [r4, #4]
200001aa:	6821      	ldr	r1, [r4, #0]
200001ac:	2b00      	cmp	r3, #0
200001ae:	dae2      	bge.n	20000176 <mutex_enter_block_until+0x16>
200001b0:	2300      	movs	r3, #0
200001b2:	f884 8004 	strb.w	r8, [r4, #4]
200001b6:	e8c1 3f8f 	stlb	r3, [r1]
200001ba:	f38c 8810 	msr	PRIMASK, ip
200001be:	2001      	movs	r0, #1
200001c0:	e8bd 81f0 	ldmia.w	sp!, {r4, r5, r6, r7, r8, pc}
200001c4:	2000      	movs	r0, #0
200001c6:	e8bd 81f0 	ldmia.w	sp!, {r4, r5, r6, r7, r8, pc}
200001ca:	bf00      	nop

200001cc <mutex_try_enter_block_until>:
200001cc:	b530      	push	{r4, r5, lr}
200001ce:	6804      	ldr	r4, [r0, #0]
200001d0:	f3ef 8c10 	mrs	ip, PRIMASK
200001d4:	b672      	cpsid	i
200001d6:	e8d4 efcf 	ldaexb	lr, [r4]
200001da:	2501      	movs	r5, #1
200001dc:	f1be 0f00 	cmp.w	lr, #0
200001e0:	d1f9      	bne.n	200001d6 <mutex_try_enter_block_until+0xa>
200001e2:	e8c4 5f4e 	strexb	lr, r5, [r4]
200001e6:	f1be 0f00 	cmp.w	lr, #0
200001ea:	d1f4      	bne.n	200001d6 <mutex_try_enter_block_until+0xa>
200001ec:	f3bf 8f5f 	dmb	sy
200001f0:	f990 4004 	ldrsb.w	r4, [r0, #4]
200001f4:	6805      	ldr	r5, [r0, #0]
200001f6:	2c00      	cmp	r4, #0
200001f8:	db10      	blt.n	2000021c <mutex_try_enter_block_until+0x50>
200001fa:	2100      	movs	r1, #0
200001fc:	e8c5 1f8f 	stlb	r1, [r5]
20000200:	f38c 8810 	msr	PRIMASK, ip
20000204:	f04f 4550 	mov.w	r5, #3489660928	@ 0xd0000000
20000208:	f995 5000 	ldrsb.w	r5, [r5]
2000020c:	42a5      	cmp	r5, r4
2000020e:	d101      	bne.n	20000214 <mutex_try_enter_block_until+0x48>
20000210:	4608      	mov	r0, r1
20000212:	bd30      	pop	{r4, r5, pc}
20000214:	e8bd 4030 	ldmia.w	sp!, {r4, r5, lr}
20000218:	f7ff bfa2 	b.w	20000160 <mutex_enter_block_until>
2000021c:	f04f 4250 	mov.w	r2, #3489660928	@ 0xd0000000
20000220:	6812      	ldr	r2, [r2, #0]
20000222:	2300      	movs	r3, #0
20000224:	7102      	strb	r2, [r0, #4]
20000226:	e8c5 3f8f 	stlb	r3, [r5]
2000022a:	f38c 8810 	msr	PRIMASK, ip
2000022e:	2001      	movs	r0, #1
20000230:	bd30      	pop	{r4, r5, pc}
20000232:	bf00      	nop

20000234 <mutex_enter_timeout_ms>:
20000234:	b570      	push	{r4, r5, r6, lr}
20000236:	4605      	mov	r5, r0
20000238:	460c      	mov	r4, r1
2000023a:	f000 ff99 	bl	20001170 <__time_us_64_veneer>
2000023e:	4602      	mov	r2, r0
20000240:	460b      	mov	r3, r1
20000242:	f44f 707a 	mov.w	r0, #1000	@ 0x3e8
20000246:	f04f 3eff 	mov.w	lr, #4294967295	@ 0xffffffff
2000024a:	f06f 4c00 	mvn.w	ip, #2147483648	@ 0x80000000
2000024e:	fbe4 2300 	umlal	r2, r3, r4, r0
20000252:	4596      	cmp	lr, r2
20000254:	eb7c 0103 	sbcs.w	r1, ip, r3
20000258:	bf38      	it	cc
2000025a:	4672      	movcc	r2, lr
2000025c:	4628      	mov	r0, r5
2000025e:	e8bd 4070 	ldmia.w	sp!, {r4, r5, r6, lr}
20000262:	bf38      	it	cc
20000264:	4663      	movcc	r3, ip
20000266:	f7ff bf7b 	b.w	20000160 <mutex_enter_block_until>
2000026a:	bf00      	nop

2000026c <mutex_exit>:
2000026c:	6803      	ldr	r3, [r0, #0]
2000026e:	f3ef 8210 	mrs	r2, PRIMASK
20000272:	b672      	cpsid	i
20000274:	e8d3 cfcf 	ldaexb	ip, [r3]
20000278:	2101      	movs	r1, #1
2000027a:	f1bc 0f00 	cmp.w	ip, #0
2000027e:	d1f9      	bne.n	20000274 <mutex_exit+0x8>
20000280:	e8c3 1f4c 	strexb	ip, r1, [r3]
20000284:	f1bc 0f00 	cmp.w	ip, #0
20000288:	d1f4      	bne.n	20000274 <mutex_exit+0x8>
2000028a:	f3bf 8f5f 	dmb	sy
2000028e:	f04f 0cff 	mov.w	ip, #255	@ 0xff
20000292:	2300      	movs	r3, #0
20000294:	6801      	ldr	r1, [r0, #0]
20000296:	f880 c004 	strb.w	ip, [r0, #4]
2000029a:	e8c1 3f8f 	stlb	r3, [r1]
2000029e:	f382 8810 	msr	PRIMASK, r2
200002a2:	bf40      	sev
200002a4:	4770      	bx	lr
200002a6:	bf00      	nop

200002a8 <reset_non_control_endpoints>:
200002a8:	2100      	movs	r1, #0
200002aa:	b508      	push	{r3, lr}
200002ac:	4b13      	ldr	r3, [pc, #76]	@ (200002fc <reset_non_control_endpoints+0x54>)
200002ae:	f44f 7270 	mov.w	r2, #960	@ 0x3c0
200002b2:	6099      	str	r1, [r3, #8]
200002b4:	4812      	ldr	r0, [pc, #72]	@ (20000300 <reset_non_control_endpoints+0x58>)
200002b6:	60d9      	str	r1, [r3, #12]
200002b8:	6119      	str	r1, [r3, #16]
200002ba:	6159      	str	r1, [r3, #20]
200002bc:	6199      	str	r1, [r3, #24]
200002be:	61d9      	str	r1, [r3, #28]
200002c0:	6219      	str	r1, [r3, #32]
200002c2:	6259      	str	r1, [r3, #36]	@ 0x24
200002c4:	6299      	str	r1, [r3, #40]	@ 0x28
200002c6:	62d9      	str	r1, [r3, #44]	@ 0x2c
200002c8:	6319      	str	r1, [r3, #48]	@ 0x30
200002ca:	6359      	str	r1, [r3, #52]	@ 0x34
200002cc:	6399      	str	r1, [r3, #56]	@ 0x38
200002ce:	63d9      	str	r1, [r3, #60]	@ 0x3c
200002d0:	6419      	str	r1, [r3, #64]	@ 0x40
200002d2:	6459      	str	r1, [r3, #68]	@ 0x44
200002d4:	6499      	str	r1, [r3, #72]	@ 0x48
200002d6:	64d9      	str	r1, [r3, #76]	@ 0x4c
200002d8:	6519      	str	r1, [r3, #80]	@ 0x50
200002da:	6559      	str	r1, [r3, #84]	@ 0x54
200002dc:	6599      	str	r1, [r3, #88]	@ 0x58
200002de:	65d9      	str	r1, [r3, #92]	@ 0x5c
200002e0:	6619      	str	r1, [r3, #96]	@ 0x60
200002e2:	6659      	str	r1, [r3, #100]	@ 0x64
200002e4:	6699      	str	r1, [r3, #104]	@ 0x68
200002e6:	66d9      	str	r1, [r3, #108]	@ 0x6c
200002e8:	6719      	str	r1, [r3, #112]	@ 0x70
200002ea:	6759      	str	r1, [r3, #116]	@ 0x74
200002ec:	6799      	str	r1, [r3, #120]	@ 0x78
200002ee:	67d9      	str	r1, [r3, #124]	@ 0x7c
200002f0:	f000 ff32 	bl	20001158 <__memset_veneer>
200002f4:	4b03      	ldr	r3, [pc, #12]	@ (20000304 <reset_non_control_endpoints+0x5c>)
200002f6:	4a04      	ldr	r2, [pc, #16]	@ (20000308 <reset_non_control_endpoints+0x60>)
200002f8:	601a      	str	r2, [r3, #0]
200002fa:	bd08      	pop	{r3, pc}
200002fc:	50100000 	.word	0x50100000
20000300:	2000241c 	.word	0x2000241c
20000304:	200027e4 	.word	0x200027e4
20000308:	50100180 	.word	0x50100180

2000030c <hw_handle_buff_status>:
2000030c:	e92d 4ff0 	stmdb	sp!, {r4, r5, r6, r7, r8, r9, sl, fp, lr}
20000310:	4b1f      	ldr	r3, [pc, #124]	@ (20000390 <hw_handle_buff_status+0x84>)
20000312:	b085      	sub	sp, #20
20000314:	f8d3 a058 	ldr.w	sl, [r3, #88]	@ 0x58
20000318:	f1ba 0f00 	cmp.w	sl, #0
2000031c:	d022      	beq.n	20000364 <hw_handle_buff_status+0x58>
2000031e:	2400      	movs	r4, #0
20000320:	2501      	movs	r5, #1
20000322:	f44f 69e0 	mov.w	r9, #1792	@ 0x700
20000326:	f8df 8070 	ldr.w	r8, [pc, #112]	@ 20000398 <hw_handle_buff_status+0x8c>
2000032a:	4f1a      	ldr	r7, [pc, #104]	@ (20000394 <hw_handle_buff_status+0x88>)
2000032c:	e001      	b.n	20000332 <hw_handle_buff_status+0x26>
2000032e:	2c20      	cmp	r4, #32
20000330:	d018      	beq.n	20000364 <hw_handle_buff_status+0x58>
20000332:	ea0a 0205 	and.w	r2, sl, r5
20000336:	1c61      	adds	r1, r4, #1
20000338:	4623      	mov	r3, r4
2000033a:	46ab      	mov	fp, r5
2000033c:	b2cc      	uxtb	r4, r1
2000033e:	006d      	lsls	r5, r5, #1
20000340:	2a00      	cmp	r2, #0
20000342:	d0f4      	beq.n	2000032e <hw_handle_buff_status+0x22>
20000344:	f004 0201 	and.w	r2, r4, #1
20000348:	f003 06fe 	and.w	r6, r3, #254	@ 0xfe
2000034c:	4416      	add	r6, r2
2000034e:	eb07 1646 	add.w	r6, r7, r6, lsl #5
20000352:	4630      	mov	r0, r6
20000354:	f8c8 b058 	str.w	fp, [r8, #88]	@ 0x58
20000358:	f000 fc0a 	bl	20000b70 <hw_endpoint_xfer_continue>
2000035c:	b928      	cbnz	r0, 2000036a <hw_handle_buff_status+0x5e>
2000035e:	ea3a 0a0b 	bics.w	sl, sl, fp
20000362:	d1e4      	bne.n	2000032e <hw_handle_buff_status+0x22>
20000364:	b005      	add	sp, #20
20000366:	e8bd 8ff0 	ldmia.w	sp!, {r4, r5, r6, r7, r8, r9, sl, fp, pc}
2000036a:	2300      	movs	r3, #0
2000036c:	f88d 3009 	strb.w	r3, [sp, #9]
20000370:	78b3      	ldrb	r3, [r6, #2]
20000372:	a801      	add	r0, sp, #4
20000374:	f88d 3008 	strb.w	r3, [sp, #8]
20000378:	8af3      	ldrh	r3, [r6, #22]
2000037a:	2101      	movs	r1, #1
2000037c:	f8ad 9004 	strh.w	r9, [sp, #4]
20000380:	9303      	str	r3, [sp, #12]
20000382:	f000 fc13 	bl	20000bac <dcd_event_handler>
20000386:	4630      	mov	r0, r6
20000388:	f000 fb98 	bl	20000abc <hw_endpoint_reset_transfer>
2000038c:	e7e7      	b.n	2000035e <hw_handle_buff_status+0x52>
2000038e:	bf00      	nop
20000390:	50110000 	.word	0x50110000
20000394:	200023dc 	.word	0x200023dc
20000398:	50113000 	.word	0x50113000

2000039c <dcd_rp2040_irq>:
2000039c:	b5f0      	push	{r4, r5, r6, r7, lr}
2000039e:	4bbb      	ldr	r3, [pc, #748]	@ (2000068c <dcd_rp2040_irq+0x2f0>)
200003a0:	b085      	sub	sp, #20
200003a2:	f8d3 5098 	ldr.w	r5, [r3, #152]	@ 0x98
200003a6:	f415 3600 	ands.w	r6, r5, #131072	@ 0x20000
200003aa:	d074      	beq.n	20000496 <dcd_rp2040_irq+0xfa>
200003ac:	4bb8      	ldr	r3, [pc, #736]	@ (20000690 <dcd_rp2040_irq+0x2f4>)
200003ae:	4cb9      	ldr	r4, [pc, #740]	@ (20000694 <dcd_rp2040_irq+0x2f8>)
200003b0:	6a99      	ldr	r1, [r3, #40]	@ 0x28
200003b2:	f894 303b 	ldrb.w	r3, [r4, #59]	@ 0x3b
200003b6:	4ab8      	ldr	r2, [pc, #736]	@ (20000698 <dcd_rp2040_irq+0x2fc>)
200003b8:	2b02      	cmp	r3, #2
200003ba:	6011      	str	r1, [r2, #0]
200003bc:	f000 80d4 	beq.w	20000568 <dcd_rp2040_irq+0x1cc>
200003c0:	2600      	movs	r6, #0
200003c2:	f894 307b 	ldrb.w	r3, [r4, #123]	@ 0x7b
200003c6:	2b02      	cmp	r3, #2
200003c8:	f000 813b 	beq.w	20000642 <dcd_rp2040_irq+0x2a6>
200003cc:	f894 30bb 	ldrb.w	r3, [r4, #187]	@ 0xbb
200003d0:	2b02      	cmp	r3, #2
200003d2:	f000 817d 	beq.w	200006d0 <dcd_rp2040_irq+0x334>
200003d6:	f894 30fb 	ldrb.w	r3, [r4, #251]	@ 0xfb
200003da:	2b02      	cmp	r3, #2
200003dc:	f000 816c 	beq.w	200006b8 <dcd_rp2040_irq+0x31c>
200003e0:	f894 313b 	ldrb.w	r3, [r4, #315]	@ 0x13b
200003e4:	2b02      	cmp	r3, #2
200003e6:	f000 8144 	beq.w	20000672 <dcd_rp2040_irq+0x2d6>
200003ea:	f894 317b 	ldrb.w	r3, [r4, #379]	@ 0x17b
200003ee:	2b02      	cmp	r3, #2
200003f0:	f000 8133 	beq.w	2000065a <dcd_rp2040_irq+0x2be>
200003f4:	f894 31bb 	ldrb.w	r3, [r4, #443]	@ 0x1bb
200003f8:	2b02      	cmp	r3, #2
200003fa:	f000 81b6 	beq.w	2000076a <dcd_rp2040_irq+0x3ce>
200003fe:	f894 31fb 	ldrb.w	r3, [r4, #507]	@ 0x1fb
20000402:	2b02      	cmp	r3, #2
20000404:	f000 81a6 	beq.w	20000754 <dcd_rp2040_irq+0x3b8>
20000408:	f894 323b 	ldrb.w	r3, [r4, #571]	@ 0x23b
2000040c:	2b02      	cmp	r3, #2
2000040e:	f000 8196 	beq.w	2000073e <dcd_rp2040_irq+0x3a2>
20000412:	f894 327b 	ldrb.w	r3, [r4, #635]	@ 0x27b
20000416:	2b02      	cmp	r3, #2
20000418:	f000 8186 	beq.w	20000728 <dcd_rp2040_irq+0x38c>
2000041c:	f894 32bb 	ldrb.w	r3, [r4, #699]	@ 0x2bb
20000420:	2b02      	cmp	r3, #2
20000422:	f000 8176 	beq.w	20000712 <dcd_rp2040_irq+0x376>
20000426:	f894 32fb 	ldrb.w	r3, [r4, #763]	@ 0x2fb
2000042a:	2b02      	cmp	r3, #2
2000042c:	f000 8166 	beq.w	200006fc <dcd_rp2040_irq+0x360>
20000430:	f894 333b 	ldrb.w	r3, [r4, #827]	@ 0x33b
20000434:	2b02      	cmp	r3, #2
20000436:	f000 8156 	beq.w	200006e6 <dcd_rp2040_irq+0x34a>
2000043a:	f894 337b 	ldrb.w	r3, [r4, #891]	@ 0x37b
2000043e:	2b02      	cmp	r3, #2
20000440:	f000 80a4 	beq.w	2000058c <dcd_rp2040_irq+0x1f0>
20000444:	f894 33bb 	ldrb.w	r3, [r4, #955]	@ 0x3bb
20000448:	2b02      	cmp	r3, #2
2000044a:	f000 8199 	beq.w	20000780 <dcd_rp2040_irq+0x3e4>
2000044e:	f894 33fb 	ldrb.w	r3, [r4, #1019]	@ 0x3fb
20000452:	2b02      	cmp	r3, #2
20000454:	f000 80b4 	beq.w	200005c0 <dcd_rp2040_irq+0x224>
20000458:	b93e      	cbnz	r6, 2000046a <dcd_rp2040_irq+0xce>
2000045a:	4b90      	ldr	r3, [pc, #576]	@ (2000069c <dcd_rp2040_irq+0x300>)
2000045c:	781b      	ldrb	r3, [r3, #0]
2000045e:	b923      	cbnz	r3, 2000046a <dcd_rp2040_irq+0xce>
20000460:	f44f 3200 	mov.w	r2, #131072	@ 0x20000
20000464:	4b8e      	ldr	r3, [pc, #568]	@ (200006a0 <dcd_rp2040_irq+0x304>)
20000466:	f8c3 2090 	str.w	r2, [r3, #144]	@ 0x90
2000046a:	f44f 7240 	mov.w	r2, #768	@ 0x300
2000046e:	4b87      	ldr	r3, [pc, #540]	@ (2000068c <dcd_rp2040_irq+0x2f0>)
20000470:	2101      	movs	r1, #1
20000472:	6c9b      	ldr	r3, [r3, #72]	@ 0x48
20000474:	a801      	add	r0, sp, #4
20000476:	f3c3 030a 	ubfx	r3, r3, #0, #11
2000047a:	f8ad 2004 	strh.w	r2, [sp, #4]
2000047e:	9302      	str	r3, [sp, #8]
20000480:	f000 fb94 	bl	20000bac <dcd_event_handler>
20000484:	06ea      	lsls	r2, r5, #27
20000486:	f44f 3600 	mov.w	r6, #131072	@ 0x20000
2000048a:	4c86      	ldr	r4, [pc, #536]	@ (200006a4 <dcd_rp2040_irq+0x308>)
2000048c:	d507      	bpl.n	2000049e <dcd_rp2040_irq+0x102>
2000048e:	f7ff ff3d 	bl	2000030c <hw_handle_buff_status>
20000492:	4626      	mov	r6, r4
20000494:	e003      	b.n	2000049e <dcd_rp2040_irq+0x102>
20000496:	06ea      	lsls	r2, r5, #27
20000498:	f04f 0410 	mov.w	r4, #16
2000049c:	d4f7      	bmi.n	2000048e <dcd_rp2040_irq+0xf2>
2000049e:	03eb      	lsls	r3, r5, #15
200004a0:	d522      	bpl.n	200004e8 <dcd_rp2040_irq+0x14c>
200004a2:	4c7c      	ldr	r4, [pc, #496]	@ (20000694 <dcd_rp2040_irq+0x2f8>)
200004a4:	f446 3680 	orr.w	r6, r6, #65536	@ 0x10000
200004a8:	7ea3      	ldrb	r3, [r4, #26]
200004aa:	2b00      	cmp	r3, #0
200004ac:	f040 8099 	bne.w	200005e2 <dcd_rp2040_irq+0x246>
200004b0:	2301      	movs	r3, #1
200004b2:	f894 203a 	ldrb.w	r2, [r4, #58]	@ 0x3a
200004b6:	70e3      	strb	r3, [r4, #3]
200004b8:	2a00      	cmp	r2, #0
200004ba:	f040 80ad 	bne.w	20000618 <dcd_rp2040_irq+0x27c>
200004be:	2301      	movs	r3, #1
200004c0:	f44f 61c0 	mov.w	r1, #1536	@ 0x600
200004c4:	4a78      	ldr	r2, [pc, #480]	@ (200006a8 <dcd_rp2040_irq+0x30c>)
200004c6:	f884 3023 	strb.w	r3, [r4, #35]	@ 0x23
200004ca:	f8ad 1004 	strh.w	r1, [sp, #4]
200004ce:	e892 0003 	ldmia.w	r2, {r0, r1}
200004d2:	aa04      	add	r2, sp, #16
200004d4:	e902 0003 	stmdb	r2, {r0, r1}
200004d8:	4619      	mov	r1, r3
200004da:	a801      	add	r0, sp, #4
200004dc:	f000 fb66 	bl	20000bac <dcd_event_handler>
200004e0:	f44f 3200 	mov.w	r2, #131072	@ 0x20000
200004e4:	4b6e      	ldr	r3, [pc, #440]	@ (200006a0 <dcd_rp2040_irq+0x304>)
200004e6:	651a      	str	r2, [r3, #80]	@ 0x50
200004e8:	04e9      	lsls	r1, r5, #19
200004ea:	d408      	bmi.n	200004fe <dcd_rp2040_irq+0x162>
200004ec:	046a      	lsls	r2, r5, #17
200004ee:	d41d      	bmi.n	2000052c <dcd_rp2040_irq+0x190>
200004f0:	042b      	lsls	r3, r5, #16
200004f2:	d42a      	bmi.n	2000054a <dcd_rp2040_irq+0x1ae>
200004f4:	42ae      	cmp	r6, r5
200004f6:	f040 81c5 	bne.w	20000884 <dcd_rp2040_irq+0x4e8>
200004fa:	b005      	add	sp, #20
200004fc:	bdf0      	pop	{r4, r5, r6, r7, pc}
200004fe:	2400      	movs	r4, #0
20000500:	4b62      	ldr	r3, [pc, #392]	@ (2000068c <dcd_rp2040_irq+0x2f0>)
20000502:	f446 5680 	orr.w	r6, r6, #4096	@ 0x1000
20000506:	601c      	str	r4, [r3, #0]
20000508:	f7ff fece 	bl	200002a8 <reset_non_control_endpoints>
2000050c:	f44f 7380 	mov.w	r3, #256	@ 0x100
20000510:	2101      	movs	r1, #1
20000512:	a801      	add	r0, sp, #4
20000514:	f8ad 3004 	strh.w	r3, [sp, #4]
20000518:	f88d 4008 	strb.w	r4, [sp, #8]
2000051c:	f000 fb46 	bl	20000bac <dcd_event_handler>
20000520:	f44f 2200 	mov.w	r2, #524288	@ 0x80000
20000524:	4b5e      	ldr	r3, [pc, #376]	@ (200006a0 <dcd_rp2040_irq+0x304>)
20000526:	651a      	str	r2, [r3, #80]	@ 0x50
20000528:	046a      	lsls	r2, r5, #17
2000052a:	d5e1      	bpl.n	200004f0 <dcd_rp2040_irq+0x154>
2000052c:	f44f 6380 	mov.w	r3, #1024	@ 0x400
20000530:	2101      	movs	r1, #1
20000532:	a801      	add	r0, sp, #4
20000534:	f8ad 3004 	strh.w	r3, [sp, #4]
20000538:	f000 fb38 	bl	20000bac <dcd_event_handler>
2000053c:	2210      	movs	r2, #16
2000053e:	4b58      	ldr	r3, [pc, #352]	@ (200006a0 <dcd_rp2040_irq+0x304>)
20000540:	f446 4680 	orr.w	r6, r6, #16384	@ 0x4000
20000544:	651a      	str	r2, [r3, #80]	@ 0x50
20000546:	042b      	lsls	r3, r5, #16
20000548:	d5d4      	bpl.n	200004f4 <dcd_rp2040_irq+0x158>
2000054a:	f44f 63a0 	mov.w	r3, #1280	@ 0x500
2000054e:	2101      	movs	r1, #1
20000550:	a801      	add	r0, sp, #4
20000552:	f8ad 3004 	strh.w	r3, [sp, #4]
20000556:	f000 fb29 	bl	20000bac <dcd_event_handler>
2000055a:	f44f 6200 	mov.w	r2, #2048	@ 0x800
2000055e:	4b50      	ldr	r3, [pc, #320]	@ (200006a0 <dcd_rp2040_irq+0x304>)
20000560:	f446 4600 	orr.w	r6, r6, #32768	@ 0x8000
20000564:	651a      	str	r2, [r3, #80]	@ 0x50
20000566:	e7c5      	b.n	200004f4 <dcd_rp2040_irq+0x158>
20000568:	f894 603a 	ldrb.w	r6, [r4, #58]	@ 0x3a
2000056c:	2e00      	cmp	r6, #0
2000056e:	f43f af28 	beq.w	200003c2 <dcd_rp2040_irq+0x26>
20000572:	f894 303c 	ldrb.w	r3, [r4, #60]	@ 0x3c
20000576:	2b00      	cmp	r3, #0
20000578:	f43f af23 	beq.w	200003c2 <dcd_rp2040_irq+0x26>
2000057c:	2300      	movs	r3, #0
2000057e:	f104 0020 	add.w	r0, r4, #32
20000582:	f884 303c 	strb.w	r3, [r4, #60]	@ 0x3c
20000586:	f000 fac1 	bl	20000b0c <hw_endpoint_start_next_buffer>
2000058a:	e71a      	b.n	200003c2 <dcd_rp2040_irq+0x26>
2000058c:	f894 737a 	ldrb.w	r7, [r4, #890]	@ 0x37a
20000590:	2f00      	cmp	r7, #0
20000592:	f43f af57 	beq.w	20000444 <dcd_rp2040_irq+0xa8>
20000596:	f894 337c 	ldrb.w	r3, [r4, #892]	@ 0x37c
2000059a:	2b00      	cmp	r3, #0
2000059c:	f040 8164 	bne.w	20000868 <dcd_rp2040_irq+0x4cc>
200005a0:	f894 33bb 	ldrb.w	r3, [r4, #955]	@ 0x3bb
200005a4:	2b02      	cmp	r3, #2
200005a6:	f040 80f4 	bne.w	20000792 <dcd_rp2040_irq+0x3f6>
200005aa:	f894 33ba 	ldrb.w	r3, [r4, #954]	@ 0x3ba
200005ae:	2b00      	cmp	r3, #0
200005b0:	f040 80eb 	bne.w	2000078a <dcd_rp2040_irq+0x3ee>
200005b4:	f894 33fb 	ldrb.w	r3, [r4, #1019]	@ 0x3fb
200005b8:	2b02      	cmp	r3, #2
200005ba:	f47f af56 	bne.w	2000046a <dcd_rp2040_irq+0xce>
200005be:	463e      	mov	r6, r7
200005c0:	f894 33fa 	ldrb.w	r3, [r4, #1018]	@ 0x3fa
200005c4:	2b00      	cmp	r3, #0
200005c6:	f43f af47 	beq.w	20000458 <dcd_rp2040_irq+0xbc>
200005ca:	f894 33fc 	ldrb.w	r3, [r4, #1020]	@ 0x3fc
200005ce:	2b00      	cmp	r3, #0
200005d0:	f43f af4b 	beq.w	2000046a <dcd_rp2040_irq+0xce>
200005d4:	2300      	movs	r3, #0
200005d6:	4835      	ldr	r0, [pc, #212]	@ (200006ac <dcd_rp2040_irq+0x310>)
200005d8:	f884 33fc 	strb.w	r3, [r4, #1020]	@ 0x3fc
200005dc:	f000 fa96 	bl	20000b0c <hw_endpoint_start_next_buffer>
200005e0:	e743      	b.n	2000046a <dcd_rp2040_irq+0xce>
200005e2:	2102      	movs	r1, #2
200005e4:	4b32      	ldr	r3, [pc, #200]	@ (200006b0 <dcd_rp2040_irq+0x314>)
200005e6:	4a29      	ldr	r2, [pc, #164]	@ (2000068c <dcd_rp2040_irq+0x2f0>)
200005e8:	6619      	str	r1, [r3, #96]	@ 0x60
200005ea:	6e53      	ldr	r3, [r2, #100]	@ 0x64
200005ec:	079f      	lsls	r7, r3, #30
200005ee:	d5fc      	bpl.n	200005ea <dcd_rp2040_irq+0x24e>
200005f0:	f44f 5240 	mov.w	r2, #12288	@ 0x3000
200005f4:	2100      	movs	r1, #0
200005f6:	4827      	ldr	r0, [pc, #156]	@ (20000694 <dcd_rp2040_irq+0x2f8>)
200005f8:	f000 fa66 	bl	20000ac8 <_hw_endpoint_buffer_control_update32>
200005fc:	4825      	ldr	r0, [pc, #148]	@ (20000694 <dcd_rp2040_irq+0x2f8>)
200005fe:	f000 fa5d 	bl	20000abc <hw_endpoint_reset_transfer>
20000602:	2202      	movs	r2, #2
20000604:	4b26      	ldr	r3, [pc, #152]	@ (200006a0 <dcd_rp2040_irq+0x304>)
20000606:	665a      	str	r2, [r3, #100]	@ 0x64
20000608:	661a      	str	r2, [r3, #96]	@ 0x60
2000060a:	2301      	movs	r3, #1
2000060c:	f894 203a 	ldrb.w	r2, [r4, #58]	@ 0x3a
20000610:	70e3      	strb	r3, [r4, #3]
20000612:	2a00      	cmp	r2, #0
20000614:	f43f af53 	beq.w	200004be <dcd_rp2040_irq+0x122>
20000618:	4a25      	ldr	r2, [pc, #148]	@ (200006b0 <dcd_rp2040_irq+0x314>)
2000061a:	6613      	str	r3, [r2, #96]	@ 0x60
2000061c:	f5a2 5200 	sub.w	r2, r2, #8192	@ 0x2000
20000620:	6e53      	ldr	r3, [r2, #100]	@ 0x64
20000622:	07d8      	lsls	r0, r3, #31
20000624:	d5fc      	bpl.n	20000620 <dcd_rp2040_irq+0x284>
20000626:	f44f 5240 	mov.w	r2, #12288	@ 0x3000
2000062a:	2100      	movs	r1, #0
2000062c:	4821      	ldr	r0, [pc, #132]	@ (200006b4 <dcd_rp2040_irq+0x318>)
2000062e:	f000 fa4b 	bl	20000ac8 <_hw_endpoint_buffer_control_update32>
20000632:	4820      	ldr	r0, [pc, #128]	@ (200006b4 <dcd_rp2040_irq+0x318>)
20000634:	f000 fa42 	bl	20000abc <hw_endpoint_reset_transfer>
20000638:	2201      	movs	r2, #1
2000063a:	4b19      	ldr	r3, [pc, #100]	@ (200006a0 <dcd_rp2040_irq+0x304>)
2000063c:	665a      	str	r2, [r3, #100]	@ 0x64
2000063e:	661a      	str	r2, [r3, #96]	@ 0x60
20000640:	e73d      	b.n	200004be <dcd_rp2040_irq+0x122>
20000642:	f894 707a 	ldrb.w	r7, [r4, #122]	@ 0x7a
20000646:	2f00      	cmp	r7, #0
20000648:	f43f aec0 	beq.w	200003cc <dcd_rp2040_irq+0x30>
2000064c:	f894 307c 	ldrb.w	r3, [r4, #124]	@ 0x7c
20000650:	2b00      	cmp	r3, #0
20000652:	f040 8101 	bne.w	20000858 <dcd_rp2040_irq+0x4bc>
20000656:	463e      	mov	r6, r7
20000658:	e6b8      	b.n	200003cc <dcd_rp2040_irq+0x30>
2000065a:	f894 717a 	ldrb.w	r7, [r4, #378]	@ 0x17a
2000065e:	2f00      	cmp	r7, #0
20000660:	f43f aec8 	beq.w	200003f4 <dcd_rp2040_irq+0x58>
20000664:	f894 317c 	ldrb.w	r3, [r4, #380]	@ 0x17c
20000668:	2b00      	cmp	r3, #0
2000066a:	f040 80ed 	bne.w	20000848 <dcd_rp2040_irq+0x4ac>
2000066e:	463e      	mov	r6, r7
20000670:	e6c0      	b.n	200003f4 <dcd_rp2040_irq+0x58>
20000672:	f894 713a 	ldrb.w	r7, [r4, #314]	@ 0x13a
20000676:	2f00      	cmp	r7, #0
20000678:	f43f aeb7 	beq.w	200003ea <dcd_rp2040_irq+0x4e>
2000067c:	f894 313c 	ldrb.w	r3, [r4, #316]	@ 0x13c
20000680:	2b00      	cmp	r3, #0
20000682:	f040 80d9 	bne.w	20000838 <dcd_rp2040_irq+0x49c>
20000686:	463e      	mov	r6, r7
20000688:	e6af      	b.n	200003ea <dcd_rp2040_irq+0x4e>
2000068a:	bf00      	nop
2000068c:	50110000 	.word	0x50110000
20000690:	400b0000 	.word	0x400b0000
20000694:	200023dc 	.word	0x200023dc
20000698:	200021cc 	.word	0x200021cc
2000069c:	20002896 	.word	0x20002896
200006a0:	50113000 	.word	0x50113000
200006a4:	00020010 	.word	0x00020010
200006a8:	50100000 	.word	0x50100000
200006ac:	200027bc 	.word	0x200027bc
200006b0:	50112000 	.word	0x50112000
200006b4:	200023fc 	.word	0x200023fc
200006b8:	f894 70fa 	ldrb.w	r7, [r4, #250]	@ 0xfa
200006bc:	2f00      	cmp	r7, #0
200006be:	f43f ae8f 	beq.w	200003e0 <dcd_rp2040_irq+0x44>
200006c2:	f894 30fc 	ldrb.w	r3, [r4, #252]	@ 0xfc
200006c6:	2b00      	cmp	r3, #0
200006c8:	f040 808e 	bne.w	200007e8 <dcd_rp2040_irq+0x44c>
200006cc:	463e      	mov	r6, r7
200006ce:	e687      	b.n	200003e0 <dcd_rp2040_irq+0x44>
200006d0:	f894 70ba 	ldrb.w	r7, [r4, #186]	@ 0xba
200006d4:	2f00      	cmp	r7, #0
200006d6:	f43f ae7e 	beq.w	200003d6 <dcd_rp2040_irq+0x3a>
200006da:	f894 30bc 	ldrb.w	r3, [r4, #188]	@ 0xbc
200006de:	2b00      	cmp	r3, #0
200006e0:	d17a      	bne.n	200007d8 <dcd_rp2040_irq+0x43c>
200006e2:	463e      	mov	r6, r7
200006e4:	e677      	b.n	200003d6 <dcd_rp2040_irq+0x3a>
200006e6:	f894 733a 	ldrb.w	r7, [r4, #826]	@ 0x33a
200006ea:	2f00      	cmp	r7, #0
200006ec:	f43f aea5 	beq.w	2000043a <dcd_rp2040_irq+0x9e>
200006f0:	f894 333c 	ldrb.w	r3, [r4, #828]	@ 0x33c
200006f4:	2b00      	cmp	r3, #0
200006f6:	d157      	bne.n	200007a8 <dcd_rp2040_irq+0x40c>
200006f8:	463e      	mov	r6, r7
200006fa:	e69e      	b.n	2000043a <dcd_rp2040_irq+0x9e>
200006fc:	f894 72fa 	ldrb.w	r7, [r4, #762]	@ 0x2fa
20000700:	2f00      	cmp	r7, #0
20000702:	f43f ae95 	beq.w	20000430 <dcd_rp2040_irq+0x94>
20000706:	f894 32fc 	ldrb.w	r3, [r4, #764]	@ 0x2fc
2000070a:	2b00      	cmp	r3, #0
2000070c:	d15c      	bne.n	200007c8 <dcd_rp2040_irq+0x42c>
2000070e:	463e      	mov	r6, r7
20000710:	e68e      	b.n	20000430 <dcd_rp2040_irq+0x94>
20000712:	f894 72ba 	ldrb.w	r7, [r4, #698]	@ 0x2ba
20000716:	2f00      	cmp	r7, #0
20000718:	f43f ae85 	beq.w	20000426 <dcd_rp2040_irq+0x8a>
2000071c:	f894 32bc 	ldrb.w	r3, [r4, #700]	@ 0x2bc
20000720:	2b00      	cmp	r3, #0
20000722:	d149      	bne.n	200007b8 <dcd_rp2040_irq+0x41c>
20000724:	463e      	mov	r6, r7
20000726:	e67e      	b.n	20000426 <dcd_rp2040_irq+0x8a>
20000728:	f894 727a 	ldrb.w	r7, [r4, #634]	@ 0x27a
2000072c:	2f00      	cmp	r7, #0
2000072e:	f43f ae75 	beq.w	2000041c <dcd_rp2040_irq+0x80>
20000732:	f894 327c 	ldrb.w	r3, [r4, #636]	@ 0x27c
20000736:	2b00      	cmp	r3, #0
20000738:	d176      	bne.n	20000828 <dcd_rp2040_irq+0x48c>
2000073a:	463e      	mov	r6, r7
2000073c:	e66e      	b.n	2000041c <dcd_rp2040_irq+0x80>
2000073e:	f894 723a 	ldrb.w	r7, [r4, #570]	@ 0x23a
20000742:	2f00      	cmp	r7, #0
20000744:	f43f ae65 	beq.w	20000412 <dcd_rp2040_irq+0x76>
20000748:	f894 323c 	ldrb.w	r3, [r4, #572]	@ 0x23c
2000074c:	2b00      	cmp	r3, #0
2000074e:	d163      	bne.n	20000818 <dcd_rp2040_irq+0x47c>
20000750:	463e      	mov	r6, r7
20000752:	e65e      	b.n	20000412 <dcd_rp2040_irq+0x76>
20000754:	f894 71fa 	ldrb.w	r7, [r4, #506]	@ 0x1fa
20000758:	2f00      	cmp	r7, #0
2000075a:	f43f ae55 	beq.w	20000408 <dcd_rp2040_irq+0x6c>
2000075e:	f894 31fc 	ldrb.w	r3, [r4, #508]	@ 0x1fc
20000762:	2b00      	cmp	r3, #0
20000764:	d150      	bne.n	20000808 <dcd_rp2040_irq+0x46c>
20000766:	463e      	mov	r6, r7
20000768:	e64e      	b.n	20000408 <dcd_rp2040_irq+0x6c>
2000076a:	f894 71ba 	ldrb.w	r7, [r4, #442]	@ 0x1ba
2000076e:	2f00      	cmp	r7, #0
20000770:	f43f ae45 	beq.w	200003fe <dcd_rp2040_irq+0x62>
20000774:	f894 31bc 	ldrb.w	r3, [r4, #444]	@ 0x1bc
20000778:	2b00      	cmp	r3, #0
2000077a:	d13d      	bne.n	200007f8 <dcd_rp2040_irq+0x45c>
2000077c:	463e      	mov	r6, r7
2000077e:	e63e      	b.n	200003fe <dcd_rp2040_irq+0x62>
20000780:	f894 33ba 	ldrb.w	r3, [r4, #954]	@ 0x3ba
20000784:	2b00      	cmp	r3, #0
20000786:	f43f ae62 	beq.w	2000044e <dcd_rp2040_irq+0xb2>
2000078a:	f894 33bc 	ldrb.w	r3, [r4, #956]	@ 0x3bc
2000078e:	2b00      	cmp	r3, #0
20000790:	d171      	bne.n	20000876 <dcd_rp2040_irq+0x4da>
20000792:	f894 33fb 	ldrb.w	r3, [r4, #1019]	@ 0x3fb
20000796:	2b02      	cmp	r3, #2
20000798:	f47f ae67 	bne.w	2000046a <dcd_rp2040_irq+0xce>
2000079c:	f894 33fa 	ldrb.w	r3, [r4, #1018]	@ 0x3fa
200007a0:	2b00      	cmp	r3, #0
200007a2:	f43f ae62 	beq.w	2000046a <dcd_rp2040_irq+0xce>
200007a6:	e710      	b.n	200005ca <dcd_rp2040_irq+0x22e>
200007a8:	2300      	movs	r3, #0
200007aa:	4839      	ldr	r0, [pc, #228]	@ (20000890 <dcd_rp2040_irq+0x4f4>)
200007ac:	f884 333c 	strb.w	r3, [r4, #828]	@ 0x33c
200007b0:	463e      	mov	r6, r7
200007b2:	f000 f9ab 	bl	20000b0c <hw_endpoint_start_next_buffer>
200007b6:	e640      	b.n	2000043a <dcd_rp2040_irq+0x9e>
200007b8:	2300      	movs	r3, #0
200007ba:	4836      	ldr	r0, [pc, #216]	@ (20000894 <dcd_rp2040_irq+0x4f8>)
200007bc:	f884 32bc 	strb.w	r3, [r4, #700]	@ 0x2bc
200007c0:	463e      	mov	r6, r7
200007c2:	f000 f9a3 	bl	20000b0c <hw_endpoint_start_next_buffer>
200007c6:	e62e      	b.n	20000426 <dcd_rp2040_irq+0x8a>
200007c8:	2300      	movs	r3, #0
200007ca:	4833      	ldr	r0, [pc, #204]	@ (20000898 <dcd_rp2040_irq+0x4fc>)
200007cc:	f884 32fc 	strb.w	r3, [r4, #764]	@ 0x2fc
200007d0:	463e      	mov	r6, r7
200007d2:	f000 f99b 	bl	20000b0c <hw_endpoint_start_next_buffer>
200007d6:	e62b      	b.n	20000430 <dcd_rp2040_irq+0x94>
200007d8:	2300      	movs	r3, #0
200007da:	4830      	ldr	r0, [pc, #192]	@ (2000089c <dcd_rp2040_irq+0x500>)
200007dc:	f884 30bc 	strb.w	r3, [r4, #188]	@ 0xbc
200007e0:	463e      	mov	r6, r7
200007e2:	f000 f993 	bl	20000b0c <hw_endpoint_start_next_buffer>
200007e6:	e5f6      	b.n	200003d6 <dcd_rp2040_irq+0x3a>
200007e8:	2300      	movs	r3, #0
200007ea:	482d      	ldr	r0, [pc, #180]	@ (200008a0 <dcd_rp2040_irq+0x504>)
200007ec:	f884 30fc 	strb.w	r3, [r4, #252]	@ 0xfc
200007f0:	463e      	mov	r6, r7
200007f2:	f000 f98b 	bl	20000b0c <hw_endpoint_start_next_buffer>
200007f6:	e5f3      	b.n	200003e0 <dcd_rp2040_irq+0x44>
200007f8:	2300      	movs	r3, #0
200007fa:	482a      	ldr	r0, [pc, #168]	@ (200008a4 <dcd_rp2040_irq+0x508>)
200007fc:	f884 31bc 	strb.w	r3, [r4, #444]	@ 0x1bc
20000800:	463e      	mov	r6, r7
20000802:	f000 f983 	bl	20000b0c <hw_endpoint_start_next_buffer>
20000806:	e5fa      	b.n	200003fe <dcd_rp2040_irq+0x62>
20000808:	2300      	movs	r3, #0
2000080a:	4827      	ldr	r0, [pc, #156]	@ (200008a8 <dcd_rp2040_irq+0x50c>)
2000080c:	f884 31fc 	strb.w	r3, [r4, #508]	@ 0x1fc
20000810:	463e      	mov	r6, r7
20000812:	f000 f97b 	bl	20000b0c <hw_endpoint_start_next_buffer>
20000816:	e5f7      	b.n	20000408 <dcd_rp2040_irq+0x6c>
20000818:	2300      	movs	r3, #0
2000081a:	4824      	ldr	r0, [pc, #144]	@ (200008ac <dcd_rp2040_irq+0x510>)
2000081c:	f884 323c 	strb.w	r3, [r4, #572]	@ 0x23c
20000820:	463e      	mov	r6, r7
20000822:	f000 f973 	bl	20000b0c <hw_endpoint_start_next_buffer>
20000826:	e5f4      	b.n	20000412 <dcd_rp2040_irq+0x76>
20000828:	2300      	movs	r3, #0
2000082a:	4821      	ldr	r0, [pc, #132]	@ (200008b0 <dcd_rp2040_irq+0x514>)
2000082c:	f884 327c 	strb.w	r3, [r4, #636]	@ 0x27c
20000830:	463e      	mov	r6, r7
20000832:	f000 f96b 	bl	20000b0c <hw_endpoint_start_next_buffer>
20000836:	e5f1      	b.n	2000041c <dcd_rp2040_irq+0x80>
20000838:	2300      	movs	r3, #0
2000083a:	481e      	ldr	r0, [pc, #120]	@ (200008b4 <dcd_rp2040_irq+0x518>)
2000083c:	f884 313c 	strb.w	r3, [r4, #316]	@ 0x13c
20000840:	463e      	mov	r6, r7
20000842:	f000 f963 	bl	20000b0c <hw_endpoint_start_next_buffer>
20000846:	e5d0      	b.n	200003ea <dcd_rp2040_irq+0x4e>
20000848:	2300      	movs	r3, #0
2000084a:	481b      	ldr	r0, [pc, #108]	@ (200008b8 <dcd_rp2040_irq+0x51c>)
2000084c:	f884 317c 	strb.w	r3, [r4, #380]	@ 0x17c
20000850:	463e      	mov	r6, r7
20000852:	f000 f95b 	bl	20000b0c <hw_endpoint_start_next_buffer>
20000856:	e5cd      	b.n	200003f4 <dcd_rp2040_irq+0x58>
20000858:	2300      	movs	r3, #0
2000085a:	4818      	ldr	r0, [pc, #96]	@ (200008bc <dcd_rp2040_irq+0x520>)
2000085c:	f884 307c 	strb.w	r3, [r4, #124]	@ 0x7c
20000860:	463e      	mov	r6, r7
20000862:	f000 f953 	bl	20000b0c <hw_endpoint_start_next_buffer>
20000866:	e5b1      	b.n	200003cc <dcd_rp2040_irq+0x30>
20000868:	2300      	movs	r3, #0
2000086a:	4815      	ldr	r0, [pc, #84]	@ (200008c0 <dcd_rp2040_irq+0x524>)
2000086c:	f884 337c 	strb.w	r3, [r4, #892]	@ 0x37c
20000870:	f000 f94c 	bl	20000b0c <hw_endpoint_start_next_buffer>
20000874:	e694      	b.n	200005a0 <dcd_rp2040_irq+0x204>
20000876:	2300      	movs	r3, #0
20000878:	4812      	ldr	r0, [pc, #72]	@ (200008c4 <dcd_rp2040_irq+0x528>)
2000087a:	f884 33bc 	strb.w	r3, [r4, #956]	@ 0x3bc
2000087e:	f000 f945 	bl	20000b0c <hw_endpoint_start_next_buffer>
20000882:	e786      	b.n	20000792 <dcd_rp2040_irq+0x3f6>
20000884:	4810      	ldr	r0, [pc, #64]	@ (200008c8 <dcd_rp2040_irq+0x52c>)
20000886:	ea86 0105 	eor.w	r1, r6, r5
2000088a:	f000 fc6d 	bl	20001168 <__panic_veneer>
2000088e:	bf00      	nop
20000890:	200026fc 	.word	0x200026fc
20000894:	2000267c 	.word	0x2000267c
20000898:	200026bc 	.word	0x200026bc
2000089c:	2000247c 	.word	0x2000247c
200008a0:	200024bc 	.word	0x200024bc
200008a4:	2000257c 	.word	0x2000257c
200008a8:	200025bc 	.word	0x200025bc
200008ac:	200025fc 	.word	0x200025fc
200008b0:	2000263c 	.word	0x2000263c
200008b4:	200024fc 	.word	0x200024fc
200008b8:	2000253c 	.word	0x2000253c
200008bc:	2000243c 	.word	0x2000243c
200008c0:	2000273c 	.word	0x2000273c
200008c4:	2000277c 	.word	0x2000277c
200008c8:	10005b18 	.word	0x10005b18

200008cc <prepare_ep_buffer>:
200008cc:	e92d 47f0 	stmdb	sp!, {r4, r5, r6, r7, r8, r9, sl, lr}
200008d0:	8a84      	ldrh	r4, [r0, #20]
200008d2:	8b05      	ldrh	r5, [r0, #24]
200008d4:	78c2      	ldrb	r2, [r0, #3]
200008d6:	42a5      	cmp	r5, r4
200008d8:	bf28      	it	cs
200008da:	4625      	movcs	r5, r4
200008dc:	1e17      	subs	r7, r2, #0
200008de:	bf18      	it	ne
200008e0:	2701      	movne	r7, #1
200008e2:	1b64      	subs	r4, r4, r5
200008e4:	7846      	ldrb	r6, [r0, #1]
200008e6:	f082 0201 	eor.w	r2, r2, #1
200008ea:	b2a4      	uxth	r4, r4
200008ec:	4603      	mov	r3, r0
200008ee:	70c2      	strb	r2, [r0, #3]
200008f0:	8284      	strh	r4, [r0, #20]
200008f2:	f445 6080 	orr.w	r0, r5, #1024	@ 0x400
200008f6:	ea40 3047 	orr.w	r0, r0, r7, lsl #13
200008fa:	bba6      	cbnz	r6, 20000966 <prepare_ep_buffer+0x9a>
200008fc:	e9d3 2603 	ldrd	r2, r6, [r3, #12]
20000900:	1e6f      	subs	r7, r5, #1
20000902:	eb02 1e81 	add.w	lr, r2, r1, lsl #6
20000906:	b355      	cbz	r5, 2000095e <prepare_ep_buffer+0x92>
20000908:	2f05      	cmp	r7, #5
2000090a:	bf98      	it	ls
2000090c:	1c72      	addls	r2, r6, #1
2000090e:	d931      	bls.n	20000974 <prepare_ep_buffer+0xa8>
20000910:	eb02 1c81 	add.w	ip, r2, r1, lsl #6
20000914:	1c72      	adds	r2, r6, #1
20000916:	ebac 0402 	sub.w	r4, ip, r2
2000091a:	2c02      	cmp	r4, #2
2000091c:	d92a      	bls.n	20000974 <prepare_ep_buffer+0xa8>
2000091e:	4632      	mov	r2, r6
20000920:	ea4f 0995 	mov.w	r9, r5, lsr #2
20000924:	ea4f 0a89 	mov.w	sl, r9, lsl #2
20000928:	eb06 0889 	add.w	r8, r6, r9, lsl #2
2000092c:	f852 4b04 	ldr.w	r4, [r2], #4
20000930:	4542      	cmp	r2, r8
20000932:	f84c 4b04 	str.w	r4, [ip], #4
20000936:	d1f9      	bne.n	2000092c <prepare_ep_buffer+0x60>
20000938:	4555      	cmp	r5, sl
2000093a:	eba7 070a 	sub.w	r7, r7, sl
2000093e:	eb0e 040a 	add.w	r4, lr, sl
20000942:	d00a      	beq.n	2000095a <prepare_ep_buffer+0x8e>
20000944:	f816 6029 	ldrb.w	r6, [r6, r9, lsl #2]
20000948:	f80e 6029 	strb.w	r6, [lr, r9, lsl #2]
2000094c:	b12f      	cbz	r7, 2000095a <prepare_ep_buffer+0x8e>
2000094e:	7856      	ldrb	r6, [r2, #1]
20000950:	2f01      	cmp	r7, #1
20000952:	7066      	strb	r6, [r4, #1]
20000954:	d001      	beq.n	2000095a <prepare_ep_buffer+0x8e>
20000956:	7892      	ldrb	r2, [r2, #2]
20000958:	70a2      	strb	r2, [r4, #2]
2000095a:	691e      	ldr	r6, [r3, #16]
2000095c:	8a9c      	ldrh	r4, [r3, #20]
2000095e:	442e      	add	r6, r5
20000960:	611e      	str	r6, [r3, #16]
20000962:	f440 4000 	orr.w	r0, r0, #32768	@ 0x8000
20000966:	b90c      	cbnz	r4, 2000096c <prepare_ep_buffer+0xa0>
20000968:	f440 4080 	orr.w	r0, r0, #16384	@ 0x4000
2000096c:	b101      	cbz	r1, 20000970 <prepare_ep_buffer+0xa4>
2000096e:	0400      	lsls	r0, r0, #16
20000970:	e8bd 87f0 	ldmia.w	sp!, {r4, r5, r6, r7, r8, r9, sl, pc}
20000974:	f10e 3eff 	add.w	lr, lr, #4294967295	@ 0xffffffff
20000978:	442e      	add	r6, r5
2000097a:	e000      	b.n	2000097e <prepare_ep_buffer+0xb2>
2000097c:	3201      	adds	r2, #1
2000097e:	f812 4c01 	ldrb.w	r4, [r2, #-1]
20000982:	42b2      	cmp	r2, r6
20000984:	f80e 4f01 	strb.w	r4, [lr, #1]!
20000988:	d1f8      	bne.n	2000097c <prepare_ep_buffer+0xb0>
2000098a:	e7e6      	b.n	2000095a <prepare_ep_buffer+0x8e>

2000098c <sync_ep_buffer>:
2000098c:	6883      	ldr	r3, [r0, #8]
2000098e:	4602      	mov	r2, r0
20000990:	6818      	ldr	r0, [r3, #0]
20000992:	b101      	cbz	r1, 20000996 <sync_ep_buffer+0xa>
20000994:	0c00      	lsrs	r0, r0, #16
20000996:	7853      	ldrb	r3, [r2, #1]
20000998:	f3c0 0009 	ubfx	r0, r0, #0, #10
2000099c:	2b00      	cmp	r3, #0
2000099e:	d03c      	beq.n	20000a1a <sync_ep_buffer+0x8e>
200009a0:	e92d 41f0 	stmdb	sp!, {r4, r5, r6, r7, r8, lr}
200009a4:	e9d2 3403 	ldrd	r3, r4, [r2, #12]
200009a8:	1e46      	subs	r6, r0, #1
200009aa:	eb03 1e81 	add.w	lr, r3, r1, lsl #6
200009ae:	b340      	cbz	r0, 20000a02 <sync_ep_buffer+0x76>
200009b0:	2e05      	cmp	r6, #5
200009b2:	d93b      	bls.n	20000a2c <sync_ep_buffer+0xa0>
200009b4:	0189      	lsls	r1, r1, #6
200009b6:	1c4d      	adds	r5, r1, #1
200009b8:	441d      	add	r5, r3
200009ba:	1b65      	subs	r5, r4, r5
200009bc:	2d02      	cmp	r5, #2
200009be:	d935      	bls.n	20000a2c <sync_ep_buffer+0xa0>
200009c0:	4673      	mov	r3, lr
200009c2:	4621      	mov	r1, r4
200009c4:	f400 777f 	and.w	r7, r0, #1020	@ 0x3fc
200009c8:	ea4f 0890 	mov.w	r8, r0, lsr #2
200009cc:	18fd      	adds	r5, r7, r3
200009ce:	f853 cb04 	ldr.w	ip, [r3], #4
200009d2:	42ab      	cmp	r3, r5
200009d4:	f841 cb04 	str.w	ip, [r1], #4
200009d8:	d1f9      	bne.n	200009ce <sync_ep_buffer+0x42>
200009da:	42b8      	cmp	r0, r7
200009dc:	eba6 0607 	sub.w	r6, r6, r7
200009e0:	eb04 0307 	add.w	r3, r4, r7
200009e4:	eb0e 0107 	add.w	r1, lr, r7
200009e8:	d00a      	beq.n	20000a00 <sync_ep_buffer+0x74>
200009ea:	f81e 5028 	ldrb.w	r5, [lr, r8, lsl #2]
200009ee:	f804 5028 	strb.w	r5, [r4, r8, lsl #2]
200009f2:	b12e      	cbz	r6, 20000a00 <sync_ep_buffer+0x74>
200009f4:	784c      	ldrb	r4, [r1, #1]
200009f6:	2e01      	cmp	r6, #1
200009f8:	705c      	strb	r4, [r3, #1]
200009fa:	d001      	beq.n	20000a00 <sync_ep_buffer+0x74>
200009fc:	7889      	ldrb	r1, [r1, #2]
200009fe:	7099      	strb	r1, [r3, #2]
20000a00:	6914      	ldr	r4, [r2, #16]
20000a02:	8ad3      	ldrh	r3, [r2, #22]
20000a04:	4404      	add	r4, r0
20000a06:	4403      	add	r3, r0
20000a08:	82d3      	strh	r3, [r2, #22]
20000a0a:	8b13      	ldrh	r3, [r2, #24]
20000a0c:	6114      	str	r4, [r2, #16]
20000a0e:	4283      	cmp	r3, r0
20000a10:	bf84      	itt	hi
20000a12:	2300      	movhi	r3, #0
20000a14:	8293      	strhhi	r3, [r2, #20]
20000a16:	e8bd 81f0 	ldmia.w	sp!, {r4, r5, r6, r7, r8, pc}
20000a1a:	8ad3      	ldrh	r3, [r2, #22]
20000a1c:	4403      	add	r3, r0
20000a1e:	82d3      	strh	r3, [r2, #22]
20000a20:	8b13      	ldrh	r3, [r2, #24]
20000a22:	4283      	cmp	r3, r0
20000a24:	bf84      	itt	hi
20000a26:	2300      	movhi	r3, #0
20000a28:	8293      	strhhi	r3, [r2, #20]
20000a2a:	4770      	bx	lr
20000a2c:	3c01      	subs	r4, #1
20000a2e:	eb0e 0100 	add.w	r1, lr, r0
20000a32:	f81e 3b01 	ldrb.w	r3, [lr], #1
20000a36:	4571      	cmp	r1, lr
20000a38:	f804 3f01 	strb.w	r3, [r4, #1]!
20000a3c:	d1f9      	bne.n	20000a32 <sync_ep_buffer+0xa6>
20000a3e:	e7df      	b.n	20000a00 <sync_ep_buffer+0x74>

20000a40 <_hw_endpoint_xfer_sync>:
20000a40:	b510      	push	{r4, lr}
20000a42:	4604      	mov	r4, r0
20000a44:	6883      	ldr	r3, [r0, #8]
20000a46:	2100      	movs	r1, #0
20000a48:	681b      	ldr	r3, [r3, #0]
20000a4a:	f7ff ff9f 	bl	2000098c <sync_ep_buffer>
20000a4e:	6863      	ldr	r3, [r4, #4]
20000a50:	681b      	ldr	r3, [r3, #0]
20000a52:	005b      	lsls	r3, r3, #1
20000a54:	d502      	bpl.n	20000a5c <_hw_endpoint_xfer_sync+0x1c>
20000a56:	8b23      	ldrh	r3, [r4, #24]
20000a58:	4283      	cmp	r3, r0
20000a5a:	d000      	beq.n	20000a5e <_hw_endpoint_xfer_sync+0x1e>
20000a5c:	bd10      	pop	{r4, pc}
20000a5e:	4620      	mov	r0, r4
20000a60:	e8bd 4010 	ldmia.w	sp!, {r4, lr}
20000a64:	2101      	movs	r1, #1
20000a66:	f7ff bf91 	b.w	2000098c <sync_ep_buffer>
20000a6a:	bf00      	nop

20000a6c <e15_is_bulkin_ep>:
20000a6c:	4b08      	ldr	r3, [pc, #32]	@ (20000a90 <e15_is_bulkin_ep+0x24>)
20000a6e:	6c1b      	ldr	r3, [r3, #64]	@ 0x40
20000a70:	f013 0302 	ands.w	r3, r3, #2
20000a74:	d102      	bne.n	20000a7c <e15_is_bulkin_ep+0x10>
20000a76:	7882      	ldrb	r2, [r0, #2]
20000a78:	09d2      	lsrs	r2, r2, #7
20000a7a:	d101      	bne.n	20000a80 <e15_is_bulkin_ep+0x14>
20000a7c:	2000      	movs	r0, #0
20000a7e:	4770      	bx	lr
20000a80:	7ec0      	ldrb	r0, [r0, #27]
20000a82:	f1a0 0002 	sub.w	r0, r0, #2
20000a86:	fab0 f080 	clz	r0, r0
20000a8a:	0940      	lsrs	r0, r0, #5
20000a8c:	4770      	bx	lr
20000a8e:	bf00      	nop
20000a90:	50110000 	.word	0x50110000

20000a94 <e15_is_critical_frame_period>:
20000a94:	b508      	push	{r3, lr}
20000a96:	f7ff ffe9 	bl	20000a6c <e15_is_bulkin_ep>
20000a9a:	b150      	cbz	r0, 20000ab2 <e15_is_critical_frame_period+0x1e>
20000a9c:	4a05      	ldr	r2, [pc, #20]	@ (20000ab4 <e15_is_critical_frame_period+0x20>)
20000a9e:	4b06      	ldr	r3, [pc, #24]	@ (20000ab8 <e15_is_critical_frame_period+0x24>)
20000aa0:	6a90      	ldr	r0, [r2, #40]	@ 0x28
20000aa2:	681b      	ldr	r3, [r3, #0]
20000aa4:	f5a0 7048 	sub.w	r0, r0, #800	@ 0x320
20000aa8:	1ac0      	subs	r0, r0, r3
20000aaa:	28c6      	cmp	r0, #198	@ 0xc6
20000aac:	bf8c      	ite	hi
20000aae:	2000      	movhi	r0, #0
20000ab0:	2001      	movls	r0, #1
20000ab2:	bd08      	pop	{r3, pc}
20000ab4:	400b0000 	.word	0x400b0000
20000ab8:	200021cc 	.word	0x200021cc

20000abc <hw_endpoint_reset_transfer>:
20000abc:	2300      	movs	r3, #0
20000abe:	e9c0 3304 	strd	r3, r3, [r0, #16]
20000ac2:	7683      	strb	r3, [r0, #26]
20000ac4:	4770      	bx	lr
20000ac6:	bf00      	nop

20000ac8 <_hw_endpoint_buffer_control_update32>:
20000ac8:	b510      	push	{r4, lr}
20000aca:	6883      	ldr	r3, [r0, #8]
20000acc:	b109      	cbz	r1, 20000ad2 <_hw_endpoint_buffer_control_update32+0xa>
20000ace:	681c      	ldr	r4, [r3, #0]
20000ad0:	4021      	ands	r1, r4
20000ad2:	b182      	cbz	r2, 20000af6 <_hw_endpoint_buffer_control_update32+0x2e>
20000ad4:	4311      	orrs	r1, r2
20000ad6:	0552      	lsls	r2, r2, #21
20000ad8:	d50d      	bpl.n	20000af6 <_hw_endpoint_buffer_control_update32+0x2e>
20000ada:	681a      	ldr	r2, [r3, #0]
20000adc:	0554      	lsls	r4, r2, #21
20000ade:	d40c      	bmi.n	20000afa <_hw_endpoint_buffer_control_update32+0x32>
20000ae0:	4a08      	ldr	r2, [pc, #32]	@ (20000b04 <_hw_endpoint_buffer_control_update32+0x3c>)
20000ae2:	f421 6480 	bic.w	r4, r1, #1024	@ 0x400
20000ae6:	601c      	str	r4, [r3, #0]
20000ae8:	6c12      	ldr	r2, [r2, #64]	@ 0x40
20000aea:	0792      	lsls	r2, r2, #30
20000aec:	d403      	bmi.n	20000af6 <_hw_endpoint_buffer_control_update32+0x2e>
20000aee:	230c      	movs	r3, #12
20000af0:	3b03      	subs	r3, #3
20000af2:	d2fd      	bcs.n	20000af0 <_hw_endpoint_buffer_control_update32+0x28>
20000af4:	6883      	ldr	r3, [r0, #8]
20000af6:	6019      	str	r1, [r3, #0]
20000af8:	bd10      	pop	{r4, pc}
20000afa:	7881      	ldrb	r1, [r0, #2]
20000afc:	4802      	ldr	r0, [pc, #8]	@ (20000b08 <_hw_endpoint_buffer_control_update32+0x40>)
20000afe:	f000 fb33 	bl	20001168 <__panic_veneer>
20000b02:	bf00      	nop
20000b04:	50110000 	.word	0x50110000
20000b08:	10005b2c 	.word	0x10005b2c

20000b0c <hw_endpoint_start_next_buffer>:
20000b0c:	b530      	push	{r4, r5, lr}
20000b0e:	6843      	ldr	r3, [r0, #4]
20000b10:	2100      	movs	r1, #0
20000b12:	b083      	sub	sp, #12
20000b14:	4604      	mov	r4, r0
20000b16:	681d      	ldr	r5, [r3, #0]
20000b18:	f7ff fed8 	bl	200008cc <prepare_ep_buffer>
20000b1c:	4b13      	ldr	r3, [pc, #76]	@ (20000b6c <hw_endpoint_start_next_buffer+0x60>)
20000b1e:	f440 5280 	orr.w	r2, r0, #4096	@ 0x1000
20000b22:	6c19      	ldr	r1, [r3, #64]	@ 0x40
20000b24:	78a3      	ldrb	r3, [r4, #2]
20000b26:	0789      	lsls	r1, r1, #30
20000b28:	d50e      	bpl.n	20000b48 <hw_endpoint_start_next_buffer+0x3c>
20000b2a:	065b      	lsls	r3, r3, #25
20000b2c:	d00e      	beq.n	20000b4c <hw_endpoint_start_next_buffer+0x40>
20000b2e:	f025 45a0 	bic.w	r5, r5, #1342177280	@ 0x50000000
20000b32:	f045 5500 	orr.w	r5, r5, #536870912	@ 0x20000000
20000b36:	2100      	movs	r1, #0
20000b38:	4620      	mov	r0, r4
20000b3a:	6863      	ldr	r3, [r4, #4]
20000b3c:	601d      	str	r5, [r3, #0]
20000b3e:	b003      	add	sp, #12
20000b40:	e8bd 4030 	ldmia.w	sp!, {r4, r5, lr}
20000b44:	f7ff bfc0 	b.w	20000ac8 <_hw_endpoint_buffer_control_update32>
20000b48:	09db      	lsrs	r3, r3, #7
20000b4a:	d0f0      	beq.n	20000b2e <hw_endpoint_start_next_buffer+0x22>
20000b4c:	8aa3      	ldrh	r3, [r4, #20]
20000b4e:	2b00      	cmp	r3, #0
20000b50:	d0ed      	beq.n	20000b2e <hw_endpoint_start_next_buffer+0x22>
20000b52:	2101      	movs	r1, #1
20000b54:	4620      	mov	r0, r4
20000b56:	9201      	str	r2, [sp, #4]
20000b58:	f7ff feb8 	bl	200008cc <prepare_ep_buffer>
20000b5c:	9a01      	ldr	r2, [sp, #4]
20000b5e:	f025 5500 	bic.w	r5, r5, #536870912	@ 0x20000000
20000b62:	4302      	orrs	r2, r0
20000b64:	f045 45a0 	orr.w	r5, r5, #1342177280	@ 0x50000000
20000b68:	e7e5      	b.n	20000b36 <hw_endpoint_start_next_buffer+0x2a>
20000b6a:	bf00      	nop
20000b6c:	50110000 	.word	0x50110000

20000b70 <hw_endpoint_xfer_continue>:
20000b70:	b538      	push	{r3, r4, r5, lr}
20000b72:	7e85      	ldrb	r5, [r0, #26]
20000b74:	4604      	mov	r4, r0
20000b76:	b195      	cbz	r5, 20000b9e <hw_endpoint_xfer_continue+0x2e>
20000b78:	f7ff ff62 	bl	20000a40 <_hw_endpoint_xfer_sync>
20000b7c:	8aa3      	ldrh	r3, [r4, #20]
20000b7e:	b90b      	cbnz	r3, 20000b84 <hw_endpoint_xfer_continue+0x14>
20000b80:	4628      	mov	r0, r5
20000b82:	bd38      	pop	{r3, r4, r5, pc}
20000b84:	4620      	mov	r0, r4
20000b86:	f7ff ff85 	bl	20000a94 <e15_is_critical_frame_period>
20000b8a:	b120      	cbz	r0, 20000b96 <hw_endpoint_xfer_continue+0x26>
20000b8c:	2301      	movs	r3, #1
20000b8e:	7723      	strb	r3, [r4, #28]
20000b90:	2500      	movs	r5, #0
20000b92:	4628      	mov	r0, r5
20000b94:	bd38      	pop	{r3, r4, r5, pc}
20000b96:	4620      	mov	r0, r4
20000b98:	f7ff ffb8 	bl	20000b0c <hw_endpoint_start_next_buffer>
20000b9c:	e7f8      	b.n	20000b90 <hw_endpoint_xfer_continue+0x20>
20000b9e:	7881      	ldrb	r1, [r0, #2]
20000ba0:	4801      	ldr	r0, [pc, #4]	@ (20000ba8 <hw_endpoint_xfer_continue+0x38>)
20000ba2:	f000 fae1 	bl	20001168 <__panic_veneer>
20000ba6:	bf00      	nop
20000ba8:	10005b4c 	.word	0x10005b4c

20000bac <dcd_event_handler>:
20000bac:	e92d 43f0 	stmdb	sp!, {r4, r5, r6, r7, r8, r9, lr}
20000bb0:	7843      	ldrb	r3, [r0, #1]
20000bb2:	4681      	mov	r9, r0
20000bb4:	3b02      	subs	r3, #2
20000bb6:	460d      	mov	r5, r1
20000bb8:	b085      	sub	sp, #20
20000bba:	2b04      	cmp	r3, #4
20000bbc:	d813      	bhi.n	20000be6 <dcd_event_handler+0x3a>
20000bbe:	e8df f003 	tbb	[pc, r3]
20000bc2:	4a03      	.short	0x4a03
20000bc4:	736a      	.short	0x736a
20000bc6:	44          	.byte	0x44
20000bc7:	00          	.byte	0x00
20000bc8:	2100      	movs	r1, #0
20000bca:	4b7b      	ldr	r3, [pc, #492]	@ (20000db8 <dcd_event_handler+0x20c>)
20000bcc:	781a      	ldrb	r2, [r3, #0]
20000bce:	f022 0201 	bic.w	r2, r2, #1
20000bd2:	701a      	strb	r2, [r3, #0]
20000bd4:	781a      	ldrb	r2, [r3, #0]
20000bd6:	f022 0202 	bic.w	r2, r2, #2
20000bda:	701a      	strb	r2, [r3, #0]
20000bdc:	7059      	strb	r1, [r3, #1]
20000bde:	781a      	ldrb	r2, [r3, #0]
20000be0:	f361 0282 	bfi	r2, r1, #2, #1
20000be4:	701a      	strb	r2, [r3, #0]
20000be6:	4b75      	ldr	r3, [pc, #468]	@ (20000dbc <dcd_event_handler+0x210>)
20000be8:	681c      	ldr	r4, [r3, #0]
20000bea:	6963      	ldr	r3, [r4, #20]
20000bec:	f3ef 8210 	mrs	r2, PRIMASK
20000bf0:	b672      	cpsid	i
20000bf2:	e8d3 0fcf 	ldaexb	r0, [r3]
20000bf6:	2101      	movs	r1, #1
20000bf8:	2800      	cmp	r0, #0
20000bfa:	d1fa      	bne.n	20000bf2 <dcd_event_handler+0x46>
20000bfc:	e8c3 1f40 	strexb	r0, r1, [r3]
20000c00:	2800      	cmp	r0, #0
20000c02:	d1f6      	bne.n	20000bf2 <dcd_event_handler+0x46>
20000c04:	f3bf 8f5f 	dmb	sy
20000c08:	61a2      	str	r2, [r4, #24]
20000c0a:	4649      	mov	r1, r9
20000c0c:	4620      	mov	r0, r4
20000c0e:	f000 fab3 	bl	20001178 <__tu_fifo_write_veneer>
20000c12:	2300      	movs	r3, #0
20000c14:	6962      	ldr	r2, [r4, #20]
20000c16:	e8c2 3f8f 	stlb	r3, [r2]
20000c1a:	69a3      	ldr	r3, [r4, #24]
20000c1c:	f383 8810 	msr	PRIMASK, r3
20000c20:	b948      	cbnz	r0, 20000c36 <dcd_event_handler+0x8a>
20000c22:	f04f 23e0 	mov.w	r3, #3758153728	@ 0xe000e000
20000c26:	f8d3 3df0 	ldr.w	r3, [r3, #3568]	@ 0xdf0
20000c2a:	07db      	lsls	r3, r3, #31
20000c2c:	d50a      	bpl.n	20000c44 <dcd_event_handler+0x98>
20000c2e:	be00      	bkpt	0x0000
20000c30:	b005      	add	sp, #20
20000c32:	e8bd 83f0 	ldmia.w	sp!, {r4, r5, r6, r7, r8, r9, pc}
20000c36:	462a      	mov	r2, r5
20000c38:	f899 1001 	ldrb.w	r1, [r9, #1]
20000c3c:	f899 0000 	ldrb.w	r0, [r9]
20000c40:	f000 fa86 	bl	20001150 <__tud_event_hook_cb_veneer>
20000c44:	b005      	add	sp, #20
20000c46:	e8bd 83f0 	ldmia.w	sp!, {r4, r5, r6, r7, r8, r9, pc}
20000c4a:	4a5d      	ldr	r2, [pc, #372]	@ (20000dc0 <dcd_event_handler+0x214>)
20000c4c:	7813      	ldrb	r3, [r2, #0]
20000c4e:	3301      	adds	r3, #1
20000c50:	b2db      	uxtb	r3, r3
20000c52:	7013      	strb	r3, [r2, #0]
20000c54:	e7c7      	b.n	20000be6 <dcd_event_handler+0x3a>
20000c56:	2400      	movs	r4, #0
20000c58:	4e5a      	ldr	r6, [pc, #360]	@ (20000dc4 <dcd_event_handler+0x218>)
20000c5a:	4623      	mov	r3, r4
20000c5c:	7831      	ldrb	r1, [r6, #0]
20000c5e:	f8df 816c 	ldr.w	r8, [pc, #364]	@ 20000dcc <dcd_event_handler+0x220>
20000c62:	4f59      	ldr	r7, [pc, #356]	@ (20000dc8 <dcd_event_handler+0x21c>)
20000c64:	e011      	b.n	20000c8a <dcd_event_handler+0xde>
20000c66:	683b      	ldr	r3, [r7, #0]
20000c68:	eb13 1344 	adds.w	r3, r3, r4, lsl #5
20000c6c:	d007      	beq.n	20000c7e <dcd_event_handler+0xd2>
20000c6e:	69db      	ldr	r3, [r3, #28]
20000c70:	b12b      	cbz	r3, 20000c7e <dcd_event_handler+0xd2>
20000c72:	f8d9 1004 	ldr.w	r1, [r9, #4]
20000c76:	f899 0000 	ldrb.w	r0, [r9]
20000c7a:	4798      	blx	r3
20000c7c:	7831      	ldrb	r1, [r6, #0]
20000c7e:	3401      	adds	r4, #1
20000c80:	b2e4      	uxtb	r4, r4
20000c82:	1c4a      	adds	r2, r1, #1
20000c84:	42a2      	cmp	r2, r4
20000c86:	4623      	mov	r3, r4
20000c88:	db17      	blt.n	20000cba <dcd_event_handler+0x10e>
20000c8a:	42a1      	cmp	r1, r4
20000c8c:	d8eb      	bhi.n	20000c66 <dcd_event_handler+0xba>
20000c8e:	1a5b      	subs	r3, r3, r1
20000c90:	eb08 1343 	add.w	r3, r8, r3, lsl #5
20000c94:	e7eb      	b.n	20000c6e <dcd_event_handler+0xc2>
20000c96:	4b48      	ldr	r3, [pc, #288]	@ (20000db8 <dcd_event_handler+0x20c>)
20000c98:	781a      	ldrb	r2, [r3, #0]
20000c9a:	07d6      	lsls	r6, r2, #31
20000c9c:	d5d2      	bpl.n	20000c44 <dcd_event_handler+0x98>
20000c9e:	781a      	ldrb	r2, [r3, #0]
20000ca0:	f042 0204 	orr.w	r2, r2, #4
20000ca4:	701a      	strb	r2, [r3, #0]
20000ca6:	e79e      	b.n	20000be6 <dcd_event_handler+0x3a>
20000ca8:	4b43      	ldr	r3, [pc, #268]	@ (20000db8 <dcd_event_handler+0x20c>)
20000caa:	781a      	ldrb	r2, [r3, #0]
20000cac:	07d4      	lsls	r4, r2, #31
20000cae:	d5c9      	bpl.n	20000c44 <dcd_event_handler+0x98>
20000cb0:	781a      	ldrb	r2, [r3, #0]
20000cb2:	f022 0204 	bic.w	r2, r2, #4
20000cb6:	701a      	strb	r2, [r3, #0]
20000cb8:	e795      	b.n	20000be6 <dcd_event_handler+0x3a>
20000cba:	4c3f      	ldr	r4, [pc, #252]	@ (20000db8 <dcd_event_handler+0x20c>)
20000cbc:	7823      	ldrb	r3, [r4, #0]
20000cbe:	0758      	lsls	r0, r3, #29
20000cc0:	d43a      	bmi.n	20000d38 <dcd_event_handler+0x18c>
20000cc2:	78e3      	ldrb	r3, [r4, #3]
20000cc4:	07da      	lsls	r2, r3, #31
20000cc6:	d5bd      	bpl.n	20000c44 <dcd_event_handler+0x98>
20000cc8:	2303      	movs	r3, #3
20000cca:	2600      	movs	r6, #0
20000ccc:	4a3b      	ldr	r2, [pc, #236]	@ (20000dbc <dcd_event_handler+0x210>)
20000cce:	f899 1000 	ldrb.w	r1, [r9]
20000cd2:	6814      	ldr	r4, [r2, #0]
20000cd4:	f8d9 2004 	ldr.w	r2, [r9, #4]
20000cd8:	f88d 1004 	strb.w	r1, [sp, #4]
20000cdc:	f88d 3005 	strb.w	r3, [sp, #5]
20000ce0:	6963      	ldr	r3, [r4, #20]
20000ce2:	f8cd 6006 	str.w	r6, [sp, #6]
20000ce6:	f8cd 600a 	str.w	r6, [sp, #10]
20000cea:	f8ad 600e 	strh.w	r6, [sp, #14]
20000cee:	9202      	str	r2, [sp, #8]
20000cf0:	f3ef 8210 	mrs	r2, PRIMASK
20000cf4:	b672      	cpsid	i
20000cf6:	e8d3 0fcf 	ldaexb	r0, [r3]
20000cfa:	2101      	movs	r1, #1
20000cfc:	2800      	cmp	r0, #0
20000cfe:	d1fa      	bne.n	20000cf6 <dcd_event_handler+0x14a>
20000d00:	e8c3 1f40 	strexb	r0, r1, [r3]
20000d04:	2800      	cmp	r0, #0
20000d06:	d1f6      	bne.n	20000cf6 <dcd_event_handler+0x14a>
20000d08:	f3bf 8f5f 	dmb	sy
20000d0c:	4620      	mov	r0, r4
20000d0e:	61a2      	str	r2, [r4, #24]
20000d10:	a901      	add	r1, sp, #4
20000d12:	f000 fa31 	bl	20001178 <__tu_fifo_write_veneer>
20000d16:	6963      	ldr	r3, [r4, #20]
20000d18:	e8c3 6f8f 	stlb	r6, [r3]
20000d1c:	69a3      	ldr	r3, [r4, #24]
20000d1e:	f383 8810 	msr	PRIMASK, r3
20000d22:	2800      	cmp	r0, #0
20000d24:	f43f af7d 	beq.w	20000c22 <dcd_event_handler+0x76>
20000d28:	462a      	mov	r2, r5
20000d2a:	f89d 1005 	ldrb.w	r1, [sp, #5]
20000d2e:	f89d 0004 	ldrb.w	r0, [sp, #4]
20000d32:	f000 fa0d 	bl	20001150 <__tud_event_hook_cb_veneer>
20000d36:	e785      	b.n	20000c44 <dcd_event_handler+0x98>
20000d38:	7823      	ldrb	r3, [r4, #0]
20000d3a:	2700      	movs	r7, #0
20000d3c:	f023 0304 	bic.w	r3, r3, #4
20000d40:	7023      	strb	r3, [r4, #0]
20000d42:	2305      	movs	r3, #5
20000d44:	4a1d      	ldr	r2, [pc, #116]	@ (20000dbc <dcd_event_handler+0x210>)
20000d46:	f88d 3005 	strb.w	r3, [sp, #5]
20000d4a:	6816      	ldr	r6, [r2, #0]
20000d4c:	f899 2000 	ldrb.w	r2, [r9]
20000d50:	f8ad 700e 	strh.w	r7, [sp, #14]
20000d54:	f88d 2004 	strb.w	r2, [sp, #4]
20000d58:	6973      	ldr	r3, [r6, #20]
20000d5a:	f8cd 7006 	str.w	r7, [sp, #6]
20000d5e:	f8cd 700a 	str.w	r7, [sp, #10]
20000d62:	f3ef 8210 	mrs	r2, PRIMASK
20000d66:	b672      	cpsid	i
20000d68:	e8d3 0fcf 	ldaexb	r0, [r3]
20000d6c:	2101      	movs	r1, #1
20000d6e:	2800      	cmp	r0, #0
20000d70:	d1fa      	bne.n	20000d68 <dcd_event_handler+0x1bc>
20000d72:	e8c3 1f40 	strexb	r0, r1, [r3]
20000d76:	2800      	cmp	r0, #0
20000d78:	d1f6      	bne.n	20000d68 <dcd_event_handler+0x1bc>
20000d7a:	f3bf 8f5f 	dmb	sy
20000d7e:	4630      	mov	r0, r6
20000d80:	61b2      	str	r2, [r6, #24]
20000d82:	a901      	add	r1, sp, #4
20000d84:	f000 f9f8 	bl	20001178 <__tu_fifo_write_veneer>
20000d88:	6973      	ldr	r3, [r6, #20]
20000d8a:	e8c3 7f8f 	stlb	r7, [r3]
20000d8e:	69b3      	ldr	r3, [r6, #24]
20000d90:	f383 8810 	msr	PRIMASK, r3
20000d94:	b938      	cbnz	r0, 20000da6 <dcd_event_handler+0x1fa>
20000d96:	f04f 23e0 	mov.w	r3, #3758153728	@ 0xe000e000
20000d9a:	f8d3 3df0 	ldr.w	r3, [r3, #3568]	@ 0xdf0
20000d9e:	07d9      	lsls	r1, r3, #31
20000da0:	d58f      	bpl.n	20000cc2 <dcd_event_handler+0x116>
20000da2:	be00      	bkpt	0x0000
20000da4:	e78d      	b.n	20000cc2 <dcd_event_handler+0x116>
20000da6:	462a      	mov	r2, r5
20000da8:	f89d 1005 	ldrb.w	r1, [sp, #5]
20000dac:	f89d 0004 	ldrb.w	r0, [sp, #4]
20000db0:	f000 f9ce 	bl	20001150 <__tud_event_hook_cb_veneer>
20000db4:	e785      	b.n	20000cc2 <dcd_event_handler+0x116>
20000db6:	bf00      	nop
20000db8:	20001d78 	.word	0x20001d78
20000dbc:	20001dd0 	.word	0x20001dd0
20000dc0:	20002897 	.word	0x20002897
20000dc4:	20002895 	.word	0x20002895
20000dc8:	20001ba8 	.word	0x20001ba8
20000dcc:	10005d7c 	.word	0x10005d7c

20000dd0 <__aeabi_uldivmod>:
20000dd0:	b953      	cbnz	r3, 20000de8 <__aeabi_uldivmod+0x18>
20000dd2:	b94a      	cbnz	r2, 20000de8 <__aeabi_uldivmod+0x18>
20000dd4:	2900      	cmp	r1, #0
20000dd6:	bf08      	it	eq
20000dd8:	2800      	cmpeq	r0, #0
20000dda:	bf1c      	itt	ne
20000ddc:	f04f 31ff 	movne.w	r1, #4294967295	@ 0xffffffff
20000de0:	f04f 30ff 	movne.w	r0, #4294967295	@ 0xffffffff
20000de4:	f000 b9b2 	b.w	2000114c <__aeabi_idiv0>
20000de8:	f1ad 0c08 	sub.w	ip, sp, #8
20000dec:	e96d ce04 	strd	ip, lr, [sp, #-16]!
20000df0:	f000 f806 	bl	20000e00 <__udivmoddi4>
20000df4:	f8dd e004 	ldr.w	lr, [sp, #4]
20000df8:	e9dd 2302 	ldrd	r2, r3, [sp, #8]
20000dfc:	b004      	add	sp, #16
20000dfe:	4770      	bx	lr

20000e00 <__udivmoddi4>:
20000e00:	e92d 4ff0 	stmdb	sp!, {r4, r5, r6, r7, r8, r9, sl, fp, lr}
20000e04:	468c      	mov	ip, r1
20000e06:	9e09      	ldr	r6, [sp, #36]	@ 0x24
20000e08:	4604      	mov	r4, r0
20000e0a:	460f      	mov	r7, r1
20000e0c:	2b00      	cmp	r3, #0
20000e0e:	d148      	bne.n	20000ea2 <__udivmoddi4+0xa2>
20000e10:	428a      	cmp	r2, r1
20000e12:	4615      	mov	r5, r2
20000e14:	d95e      	bls.n	20000ed4 <__udivmoddi4+0xd4>
20000e16:	fab2 f382 	clz	r3, r2
20000e1a:	b13b      	cbz	r3, 20000e2c <__udivmoddi4+0x2c>
20000e1c:	f1c3 0220 	rsb	r2, r3, #32
20000e20:	409f      	lsls	r7, r3
20000e22:	409d      	lsls	r5, r3
20000e24:	409c      	lsls	r4, r3
20000e26:	fa20 f202 	lsr.w	r2, r0, r2
20000e2a:	4317      	orrs	r7, r2
20000e2c:	ea4f 4e15 	mov.w	lr, r5, lsr #16
20000e30:	fa1f fc85 	uxth.w	ip, r5
20000e34:	0c22      	lsrs	r2, r4, #16
20000e36:	fbb7 f1fe 	udiv	r1, r7, lr
20000e3a:	fb0e 7711 	mls	r7, lr, r1, r7
20000e3e:	fb01 f00c 	mul.w	r0, r1, ip
20000e42:	ea42 4207 	orr.w	r2, r2, r7, lsl #16
20000e46:	4290      	cmp	r0, r2
20000e48:	d907      	bls.n	20000e5a <__udivmoddi4+0x5a>
20000e4a:	18aa      	adds	r2, r5, r2
20000e4c:	f101 37ff 	add.w	r7, r1, #4294967295	@ 0xffffffff
20000e50:	d202      	bcs.n	20000e58 <__udivmoddi4+0x58>
20000e52:	4290      	cmp	r0, r2
20000e54:	f200 8158 	bhi.w	20001108 <__udivmoddi4+0x308>
20000e58:	4639      	mov	r1, r7
20000e5a:	1a12      	subs	r2, r2, r0
20000e5c:	b2a4      	uxth	r4, r4
20000e5e:	fbb2 f0fe 	udiv	r0, r2, lr
20000e62:	fb0e 2210 	mls	r2, lr, r0, r2
20000e66:	fb00 fc0c 	mul.w	ip, r0, ip
20000e6a:	ea44 4402 	orr.w	r4, r4, r2, lsl #16
20000e6e:	45a4      	cmp	ip, r4
20000e70:	d90b      	bls.n	20000e8a <__udivmoddi4+0x8a>
20000e72:	192c      	adds	r4, r5, r4
20000e74:	f100 32ff 	add.w	r2, r0, #4294967295	@ 0xffffffff
20000e78:	bf2c      	ite	cs
20000e7a:	2701      	movcs	r7, #1
20000e7c:	2700      	movcc	r7, #0
20000e7e:	45a4      	cmp	ip, r4
20000e80:	d902      	bls.n	20000e88 <__udivmoddi4+0x88>
20000e82:	2f00      	cmp	r7, #0
20000e84:	f000 8143 	beq.w	2000110e <__udivmoddi4+0x30e>
20000e88:	4610      	mov	r0, r2
20000e8a:	ea40 4001 	orr.w	r0, r0, r1, lsl #16
20000e8e:	eba4 040c 	sub.w	r4, r4, ip
20000e92:	2100      	movs	r1, #0
20000e94:	b11e      	cbz	r6, 20000e9e <__udivmoddi4+0x9e>
20000e96:	40dc      	lsrs	r4, r3
20000e98:	2300      	movs	r3, #0
20000e9a:	e9c6 4300 	strd	r4, r3, [r6]
20000e9e:	e8bd 8ff0 	ldmia.w	sp!, {r4, r5, r6, r7, r8, r9, sl, fp, pc}
20000ea2:	428b      	cmp	r3, r1
20000ea4:	d906      	bls.n	20000eb4 <__udivmoddi4+0xb4>
20000ea6:	b10e      	cbz	r6, 20000eac <__udivmoddi4+0xac>
20000ea8:	e9c6 0100 	strd	r0, r1, [r6]
20000eac:	2100      	movs	r1, #0
20000eae:	4608      	mov	r0, r1
20000eb0:	e8bd 8ff0 	ldmia.w	sp!, {r4, r5, r6, r7, r8, r9, sl, fp, pc}
20000eb4:	fab3 f183 	clz	r1, r3
20000eb8:	2900      	cmp	r1, #0
20000eba:	d151      	bne.n	20000f60 <__udivmoddi4+0x160>
20000ebc:	4563      	cmp	r3, ip
20000ebe:	f0c0 8116 	bcc.w	200010ee <__udivmoddi4+0x2ee>
20000ec2:	4282      	cmp	r2, r0
20000ec4:	f240 8113 	bls.w	200010ee <__udivmoddi4+0x2ee>
20000ec8:	4608      	mov	r0, r1
20000eca:	2e00      	cmp	r6, #0
20000ecc:	d0e7      	beq.n	20000e9e <__udivmoddi4+0x9e>
20000ece:	e9c6 4700 	strd	r4, r7, [r6]
20000ed2:	e7e4      	b.n	20000e9e <__udivmoddi4+0x9e>
20000ed4:	2a00      	cmp	r2, #0
20000ed6:	f000 80af 	beq.w	20001038 <__udivmoddi4+0x238>
20000eda:	fab2 f382 	clz	r3, r2
20000ede:	2b00      	cmp	r3, #0
20000ee0:	f040 80c2 	bne.w	20001068 <__udivmoddi4+0x268>
20000ee4:	1a8a      	subs	r2, r1, r2
20000ee6:	ea4f 4e15 	mov.w	lr, r5, lsr #16
20000eea:	b2af      	uxth	r7, r5
20000eec:	2101      	movs	r1, #1
20000eee:	0c20      	lsrs	r0, r4, #16
20000ef0:	fbb2 fcfe 	udiv	ip, r2, lr
20000ef4:	fb0e 221c 	mls	r2, lr, ip, r2
20000ef8:	ea40 4202 	orr.w	r2, r0, r2, lsl #16
20000efc:	fb07 f00c 	mul.w	r0, r7, ip
20000f00:	4290      	cmp	r0, r2
20000f02:	d90e      	bls.n	20000f22 <__udivmoddi4+0x122>
20000f04:	18aa      	adds	r2, r5, r2
20000f06:	f10c 38ff 	add.w	r8, ip, #4294967295	@ 0xffffffff
20000f0a:	bf2c      	ite	cs
20000f0c:	f04f 0901 	movcs.w	r9, #1
20000f10:	f04f 0900 	movcc.w	r9, #0
20000f14:	4290      	cmp	r0, r2
20000f16:	d903      	bls.n	20000f20 <__udivmoddi4+0x120>
20000f18:	f1b9 0f00 	cmp.w	r9, #0
20000f1c:	f000 80f0 	beq.w	20001100 <__udivmoddi4+0x300>
20000f20:	46c4      	mov	ip, r8
20000f22:	1a12      	subs	r2, r2, r0
20000f24:	b2a4      	uxth	r4, r4
20000f26:	fbb2 f0fe 	udiv	r0, r2, lr
20000f2a:	fb0e 2210 	mls	r2, lr, r0, r2
20000f2e:	fb00 f707 	mul.w	r7, r0, r7
20000f32:	ea44 4402 	orr.w	r4, r4, r2, lsl #16
20000f36:	42a7      	cmp	r7, r4
20000f38:	d90e      	bls.n	20000f58 <__udivmoddi4+0x158>
20000f3a:	192c      	adds	r4, r5, r4
20000f3c:	f100 32ff 	add.w	r2, r0, #4294967295	@ 0xffffffff
20000f40:	bf2c      	ite	cs
20000f42:	f04f 0e01 	movcs.w	lr, #1
20000f46:	f04f 0e00 	movcc.w	lr, #0
20000f4a:	42a7      	cmp	r7, r4
20000f4c:	d903      	bls.n	20000f56 <__udivmoddi4+0x156>
20000f4e:	f1be 0f00 	cmp.w	lr, #0
20000f52:	f000 80d2 	beq.w	200010fa <__udivmoddi4+0x2fa>
20000f56:	4610      	mov	r0, r2
20000f58:	1be4      	subs	r4, r4, r7
20000f5a:	ea40 400c 	orr.w	r0, r0, ip, lsl #16
20000f5e:	e799      	b.n	20000e94 <__udivmoddi4+0x94>
20000f60:	f1c1 0520 	rsb	r5, r1, #32
20000f64:	408b      	lsls	r3, r1
20000f66:	fa0c f401 	lsl.w	r4, ip, r1
20000f6a:	fa00 f901 	lsl.w	r9, r0, r1
20000f6e:	fa22 f705 	lsr.w	r7, r2, r5
20000f72:	fa2c fc05 	lsr.w	ip, ip, r5
20000f76:	408a      	lsls	r2, r1
20000f78:	431f      	orrs	r7, r3
20000f7a:	fa20 f305 	lsr.w	r3, r0, r5
20000f7e:	0c38      	lsrs	r0, r7, #16
20000f80:	4323      	orrs	r3, r4
20000f82:	fa1f fe87 	uxth.w	lr, r7
20000f86:	0c1c      	lsrs	r4, r3, #16
20000f88:	fbbc f8f0 	udiv	r8, ip, r0
20000f8c:	fb00 cc18 	mls	ip, r0, r8, ip
20000f90:	ea44 440c 	orr.w	r4, r4, ip, lsl #16
20000f94:	fb08 fc0e 	mul.w	ip, r8, lr
20000f98:	45a4      	cmp	ip, r4
20000f9a:	d90e      	bls.n	20000fba <__udivmoddi4+0x1ba>
20000f9c:	193c      	adds	r4, r7, r4
20000f9e:	f108 3aff 	add.w	sl, r8, #4294967295	@ 0xffffffff
20000fa2:	bf2c      	ite	cs
20000fa4:	f04f 0b01 	movcs.w	fp, #1
20000fa8:	f04f 0b00 	movcc.w	fp, #0
20000fac:	45a4      	cmp	ip, r4
20000fae:	d903      	bls.n	20000fb8 <__udivmoddi4+0x1b8>
20000fb0:	f1bb 0f00 	cmp.w	fp, #0
20000fb4:	f000 80b8 	beq.w	20001128 <__udivmoddi4+0x328>
20000fb8:	46d0      	mov	r8, sl
20000fba:	eba4 040c 	sub.w	r4, r4, ip
20000fbe:	fa1f fc83 	uxth.w	ip, r3
20000fc2:	fbb4 f3f0 	udiv	r3, r4, r0
20000fc6:	fb00 4413 	mls	r4, r0, r3, r4
20000fca:	fb03 fe0e 	mul.w	lr, r3, lr
20000fce:	ea4c 4404 	orr.w	r4, ip, r4, lsl #16
20000fd2:	45a6      	cmp	lr, r4
20000fd4:	d90e      	bls.n	20000ff4 <__udivmoddi4+0x1f4>
20000fd6:	193c      	adds	r4, r7, r4
20000fd8:	f103 30ff 	add.w	r0, r3, #4294967295	@ 0xffffffff
20000fdc:	bf2c      	ite	cs
20000fde:	f04f 0c01 	movcs.w	ip, #1
20000fe2:	f04f 0c00 	movcc.w	ip, #0
20000fe6:	45a6      	cmp	lr, r4
20000fe8:	d903      	bls.n	20000ff2 <__udivmoddi4+0x1f2>
20000fea:	f1bc 0f00 	cmp.w	ip, #0
20000fee:	f000 809f 	beq.w	20001130 <__udivmoddi4+0x330>
20000ff2:	4603      	mov	r3, r0
20000ff4:	ea43 4008 	orr.w	r0, r3, r8, lsl #16
20000ff8:	eba4 040e 	sub.w	r4, r4, lr
20000ffc:	fba0 ec02 	umull	lr, ip, r0, r2
20001000:	4564      	cmp	r4, ip
20001002:	4673      	mov	r3, lr
20001004:	46e0      	mov	r8, ip
20001006:	d302      	bcc.n	2000100e <__udivmoddi4+0x20e>
20001008:	d107      	bne.n	2000101a <__udivmoddi4+0x21a>
2000100a:	45f1      	cmp	r9, lr
2000100c:	d205      	bcs.n	2000101a <__udivmoddi4+0x21a>
2000100e:	ebbe 0302 	subs.w	r3, lr, r2
20001012:	eb6c 0c07 	sbc.w	ip, ip, r7
20001016:	3801      	subs	r0, #1
20001018:	46e0      	mov	r8, ip
2000101a:	b15e      	cbz	r6, 20001034 <__udivmoddi4+0x234>
2000101c:	ebb9 0203 	subs.w	r2, r9, r3
20001020:	eb64 0408 	sbc.w	r4, r4, r8
20001024:	fa04 f505 	lsl.w	r5, r4, r5
20001028:	fa22 f301 	lsr.w	r3, r2, r1
2000102c:	40cc      	lsrs	r4, r1
2000102e:	431d      	orrs	r5, r3
20001030:	e9c6 5400 	strd	r5, r4, [r6]
20001034:	2100      	movs	r1, #0
20001036:	e732      	b.n	20000e9e <__udivmoddi4+0x9e>
20001038:	0842      	lsrs	r2, r0, #1
2000103a:	462f      	mov	r7, r5
2000103c:	084b      	lsrs	r3, r1, #1
2000103e:	46ac      	mov	ip, r5
20001040:	ea42 72c1 	orr.w	r2, r2, r1, lsl #31
20001044:	46ae      	mov	lr, r5
20001046:	07c4      	lsls	r4, r0, #31
20001048:	0c11      	lsrs	r1, r2, #16
2000104a:	b292      	uxth	r2, r2
2000104c:	ea41 4103 	orr.w	r1, r1, r3, lsl #16
20001050:	ea42 4201 	orr.w	r2, r2, r1, lsl #16
20001054:	fbb1 f1f5 	udiv	r1, r1, r5
20001058:	fbb3 f0f5 	udiv	r0, r3, r5
2000105c:	231f      	movs	r3, #31
2000105e:	eba2 020c 	sub.w	r2, r2, ip
20001062:	ea41 4100 	orr.w	r1, r1, r0, lsl #16
20001066:	e742      	b.n	20000eee <__udivmoddi4+0xee>
20001068:	409d      	lsls	r5, r3
2000106a:	f1c3 0220 	rsb	r2, r3, #32
2000106e:	4099      	lsls	r1, r3
20001070:	409c      	lsls	r4, r3
20001072:	fa2c fc02 	lsr.w	ip, ip, r2
20001076:	ea4f 4e15 	mov.w	lr, r5, lsr #16
2000107a:	fa20 f202 	lsr.w	r2, r0, r2
2000107e:	b2af      	uxth	r7, r5
20001080:	fbbc f8fe 	udiv	r8, ip, lr
20001084:	430a      	orrs	r2, r1
20001086:	fb0e cc18 	mls	ip, lr, r8, ip
2000108a:	0c11      	lsrs	r1, r2, #16
2000108c:	ea41 410c 	orr.w	r1, r1, ip, lsl #16
20001090:	fb08 fc07 	mul.w	ip, r8, r7
20001094:	458c      	cmp	ip, r1
20001096:	d950      	bls.n	2000113a <__udivmoddi4+0x33a>
20001098:	1869      	adds	r1, r5, r1
2000109a:	f108 30ff 	add.w	r0, r8, #4294967295	@ 0xffffffff
2000109e:	bf2c      	ite	cs
200010a0:	f04f 0901 	movcs.w	r9, #1
200010a4:	f04f 0900 	movcc.w	r9, #0
200010a8:	458c      	cmp	ip, r1
200010aa:	d902      	bls.n	200010b2 <__udivmoddi4+0x2b2>
200010ac:	f1b9 0f00 	cmp.w	r9, #0
200010b0:	d030      	beq.n	20001114 <__udivmoddi4+0x314>
200010b2:	eba1 010c 	sub.w	r1, r1, ip
200010b6:	fbb1 f8fe 	udiv	r8, r1, lr
200010ba:	fb08 fc07 	mul.w	ip, r8, r7
200010be:	fb0e 1118 	mls	r1, lr, r8, r1
200010c2:	b292      	uxth	r2, r2
200010c4:	ea42 4201 	orr.w	r2, r2, r1, lsl #16
200010c8:	4562      	cmp	r2, ip
200010ca:	d234      	bcs.n	20001136 <__udivmoddi4+0x336>
200010cc:	18aa      	adds	r2, r5, r2
200010ce:	f108 31ff 	add.w	r1, r8, #4294967295	@ 0xffffffff
200010d2:	bf2c      	ite	cs
200010d4:	f04f 0901 	movcs.w	r9, #1
200010d8:	f04f 0900 	movcc.w	r9, #0
200010dc:	4562      	cmp	r2, ip
200010de:	d2be      	bcs.n	2000105e <__udivmoddi4+0x25e>
200010e0:	f1b9 0f00 	cmp.w	r9, #0
200010e4:	d1bb      	bne.n	2000105e <__udivmoddi4+0x25e>
200010e6:	f1a8 0102 	sub.w	r1, r8, #2
200010ea:	442a      	add	r2, r5
200010ec:	e7b7      	b.n	2000105e <__udivmoddi4+0x25e>
200010ee:	1a84      	subs	r4, r0, r2
200010f0:	eb6c 0203 	sbc.w	r2, ip, r3
200010f4:	2001      	movs	r0, #1
200010f6:	4617      	mov	r7, r2
200010f8:	e6e7      	b.n	20000eca <__udivmoddi4+0xca>
200010fa:	442c      	add	r4, r5
200010fc:	3802      	subs	r0, #2
200010fe:	e72b      	b.n	20000f58 <__udivmoddi4+0x158>
20001100:	f1ac 0c02 	sub.w	ip, ip, #2
20001104:	442a      	add	r2, r5
20001106:	e70c      	b.n	20000f22 <__udivmoddi4+0x122>
20001108:	3902      	subs	r1, #2
2000110a:	442a      	add	r2, r5
2000110c:	e6a5      	b.n	20000e5a <__udivmoddi4+0x5a>
2000110e:	442c      	add	r4, r5
20001110:	3802      	subs	r0, #2
20001112:	e6ba      	b.n	20000e8a <__udivmoddi4+0x8a>
20001114:	eba5 0c0c 	sub.w	ip, r5, ip
20001118:	f1a8 0002 	sub.w	r0, r8, #2
2000111c:	4461      	add	r1, ip
2000111e:	fbb1 f8fe 	udiv	r8, r1, lr
20001122:	fb08 fc07 	mul.w	ip, r8, r7
20001126:	e7ca      	b.n	200010be <__udivmoddi4+0x2be>
20001128:	f1a8 0802 	sub.w	r8, r8, #2
2000112c:	443c      	add	r4, r7
2000112e:	e744      	b.n	20000fba <__udivmoddi4+0x1ba>
20001130:	3b02      	subs	r3, #2
20001132:	443c      	add	r4, r7
20001134:	e75e      	b.n	20000ff4 <__udivmoddi4+0x1f4>
20001136:	4641      	mov	r1, r8
20001138:	e791      	b.n	2000105e <__udivmoddi4+0x25e>
2000113a:	eba1 010c 	sub.w	r1, r1, ip
2000113e:	4640      	mov	r0, r8
20001140:	fbb1 f8fe 	udiv	r8, r1, lr
20001144:	fb08 fc07 	mul.w	ip, r8, r7
20001148:	e7b9      	b.n	200010be <__udivmoddi4+0x2be>
2000114a:	bf00      	nop

2000114c <__aeabi_idiv0>:
2000114c:	4770      	bx	lr
2000114e:	bf00      	nop

20001150 <__tud_event_hook_cb_veneer>:
20001150:	f85f f000 	ldr.w	pc, [pc]	@ 20001154 <__tud_event_hook_cb_veneer+0x4>
20001154:	100030a9 	.word	0x100030a9

20001158 <__memset_veneer>:
20001158:	f85f f000 	ldr.w	pc, [pc]	@ 2000115c <__memset_veneer+0x4>
2000115c:	10005441 	.word	0x10005441

20001160 <__best_effort_wfe_or_timeout_veneer>:
20001160:	f85f f000 	ldr.w	pc, [pc]	@ 20001164 <__best_effort_wfe_or_timeout_veneer+0x4>
20001164:	100017c5 	.word	0x100017c5

20001168 <__panic_veneer>:
20001168:	f85f f000 	ldr.w	pc, [pc]	@ 2000116c <__panic_veneer+0x4>
2000116c:	10000a91 	.word	0x10000a91

20001170 <__time_us_64_veneer>:
20001170:	f85f f000 	ldr.w	pc, [pc]	@ 20001174 <__time_us_64_veneer+0x4>
20001174:	100018cd 	.word	0x100018cd

20001178 <__tu_fifo_write_veneer>:
20001178:	f85f f000 	ldr.w	pc, [pc]	@ 2000117c <__tu_fifo_write_veneer+0x4>
2000117c:	10004a81 	.word	0x10004a81

20001180 <font>:
	...
20001188:	11121478 00781412 4949497f 007f4949     x.....x..IIIII..
20001198:	4141417e 00414141 4141417f 007e4141     ~AAAAAA..AAAAA~.
200011a8:	4949497f 00494949 0909097f 00010109     .IIIIII.........
200011b8:	4141417f 00735151 0808087f 007f0808     .AAAQQs.........
200011c8:	7f000000 00000000 3f414121 00010101     ........!AA?....
200011d8:	08087f00 00412214 4040407f 00404040     ....."A..@@@@@@.
200011e8:	0804027f 007f0204 0804027f 007f2010     ............. ..
200011f8:	4141413e 003e4141 1111117f 000e1111     >AAAAA>.........
20001208:	4941413e 007e6151 1111117f 000e5131     >AAIQa~.....1Q..
20001218:	49494946 00003049 7f010101 00010101     FIIII0..........
20001228:	4040403f 003f4040 4020100f 000f1020     ?@@@@@?... @ ...
20001238:	0810207f 007f2010 14224100 00412214     . ... ...A".."A.
20001248:	78040201 00010204 45596141 00004143     ...x....AaYECA..
20001258:	4941413e 003e4141 7f420000 00000040     >AAIAA>...B.@...
20001268:	49494930 00004649 49494949 00364949     0IIIIF..IIIIII6.
20001278:	7820203f 00002020 4949494f 00003049     ?  x  ..OIIII0..
20001288:	4848483f 00304848 61010101 00030d31     ?HHHHH0....a1...
20001298:	49494936 00364949 09090906 007f0909     6IIIII6.........

200012a8 <striped_spin_lock_num>:
200012a8:	00000010                                ....

200012ac <irq_handler_chain_slots>:
200012ac:	00000000 	.word	0x00000000
200012b0:	00010000 	.word	0x00010000
	...
200012bc:	00020000 	.word	0x00020000
	...
200012c8:	00030000 	.word	0x00030000
	...
200012d4:	00ff0000 	.word	0x00ff0000
200012d8:	00000000 	.word	0x00000000

200012dc <irq_handler_chain_first_slot>:
200012dc:	b501      	push	{r0, lr}
200012de:	6848      	ldr	r0, [r1, #4]
200012e0:	3101      	adds	r1, #1
200012e2:	468e      	mov	lr, r1
200012e4:	4700      	bx	r0

200012e6 <irq_handler_chain_remove_tail>:
200012e6:	4670      	mov	r0, lr
200012e8:	3809      	subs	r0, #9
200012ea:	4901      	ldr	r1, [pc, #4]	@ (200012f0 <irq_handler_chain_remove_tail+0xa>)
200012ec:	4788      	blx	r1
200012ee:	bd01      	pop	{r0, pc}
200012f0:	10000f05 	.word	0x10000f05

200012f4 <default_alarm_pool>:
	...
20001308:	200018b0                                ... 

2000130c <stdio_usb>:
2000130c:	10002855 10002801 10002779 100026e9     U(...(..y'...&..
2000131c:	00000000 00000100                       ........

20001324 <_usbd_qdef>:
20001324:	20001dd4 000c0010 00000000 00000000     ... ............
	...

20001340 <_usbd_rhport>:
20001340:	000000ff                                ....

20001344 <i2c0_inst>:
20001344:	40090000 00000000                       ...@....

2000134c <__malloc_sbrk_base>:
2000134c:	ffffffff                                ....

20001350 <__malloc_trim_threshold>:
20001350:	00020000 00000000                       ........

20001358 <__malloc_av_>:
	...
20001360:	20001358 20001358 20001360 20001360     X.. X.. `.. `.. 
20001370:	20001368 20001368 20001370 20001370     h.. h.. p.. p.. 
20001380:	20001378 20001378 20001380 20001380     x.. x.. ... ... 
20001390:	20001388 20001388 20001390 20001390     ... ... ... ... 
200013a0:	20001398 20001398 200013a0 200013a0     ... ... ... ... 
200013b0:	200013a8 200013a8 200013b0 200013b0     ... ... ... ... 
200013c0:	200013b8 200013b8 200013c0 200013c0     ... ... ... ... 
200013d0:	200013c8 200013c8 200013d0 200013d0     ... ... ... ... 
200013e0:	200013d8 200013d8 200013e0 200013e0     ... ... ... ... 
200013f0:	200013e8 200013e8 200013f0 200013f0     ... ... ... ... 
20001400:	200013f8 200013f8 20001400 20001400     ... ... ... ... 
20001410:	20001408 20001408 20001410 20001410     ... ... ... ... 
20001420:	20001418 20001418 20001420 20001420     ... ...  ..  .. 
20001430:	20001428 20001428 20001430 20001430     (.. (.. 0.. 0.. 
20001440:	20001438 20001438 20001440 20001440     8.. 8.. @.. @.. 
20001450:	20001448 20001448 20001450 20001450     H.. H.. P.. P.. 
20001460:	20001458 20001458 20001460 20001460     X.. X.. `.. `.. 
20001470:	20001468 20001468 20001470 20001470     h.. h.. p.. p.. 
20001480:	20001478 20001478 20001480 20001480     x.. x.. ... ... 
20001490:	20001488 20001488 20001490 20001490     ... ... ... ... 
200014a0:	20001498 20001498 200014a0 200014a0     ... ... ... ... 
200014b0:	200014a8 200014a8 200014b0 200014b0     ... ... ... ... 
200014c0:	200014b8 200014b8 200014c0 200014c0     ... ... ... ... 
200014d0:	200014c8 200014c8 200014d0 200014d0     ... ... ... ... 
200014e0:	200014d8 200014d8 200014e0 200014e0     ... ... ... ... 
200014f0:	200014e8 200014e8 200014f0 200014f0     ... ... ... ... 
20001500:	200014f8 200014f8 20001500 20001500     ... ... ... ... 
20001510:	20001508 20001508 20001510 20001510     ... ... ... ... 
20001520:	20001518 20001518 20001520 20001520     ... ...  ..  .. 
20001530:	20001528 20001528 20001530 20001530     (.. (.. 0.. 0.. 
20001540:	20001538 20001538 20001540 20001540     8.. 8.. @.. @.. 
20001550:	20001548 20001548 20001550 20001550     H.. H.. P.. P.. 
20001560:	20001558 20001558 20001560 20001560     X.. X.. `.. `.. 
20001570:	20001568 20001568 20001570 20001570     h.. h.. p.. p.. 
20001580:	20001578 20001578 20001580 20001580     x.. x.. ... ... 
20001590:	20001588 20001588 20001590 20001590     ... ... ... ... 
200015a0:	20001598 20001598 200015a0 200015a0     ... ... ... ... 
200015b0:	200015a8 200015a8 200015b0 200015b0     ... ... ... ... 
200015c0:	200015b8 200015b8 200015c0 200015c0     ... ... ... ... 
200015d0:	200015c8 200015c8 200015d0 200015d0     ... ... ... ... 
200015e0:	200015d8 200015d8 200015e0 200015e0     ... ... ... ... 
200015f0:	200015e8 200015e8 200015f0 200015f0     ... ... ... ... 
20001600:	200015f8 200015f8 20001600 20001600     ... ... ... ... 
20001610:	20001608 20001608 20001610 20001610     ... ... ... ... 
20001620:	20001618 20001618 20001620 20001620     ... ...  ..  .. 
20001630:	20001628 20001628 20001630 20001630     (.. (.. 0.. 0.. 
20001640:	20001638 20001638 20001640 20001640     8.. 8.. @.. @.. 
20001650:	20001648 20001648 20001650 20001650     H.. H.. P.. P.. 
20001660:	20001658 20001658 20001660 20001660     X.. X.. `.. `.. 
20001670:	20001668 20001668 20001670 20001670     h.. h.. p.. p.. 
20001680:	20001678 20001678 20001680 20001680     x.. x.. ... ... 
20001690:	20001688 20001688 20001690 20001690     ... ... ... ... 
200016a0:	20001698 20001698 200016a0 200016a0     ... ... ... ... 
200016b0:	200016a8 200016a8 200016b0 200016b0     ... ... ... ... 
200016c0:	200016b8 200016b8 200016c0 200016c0     ... ... ... ... 
200016d0:	200016c8 200016c8 200016d0 200016d0     ... ... ... ... 
200016e0:	200016d8 200016d8 200016e0 200016e0     ... ... ... ... 
200016f0:	200016e8 200016e8 200016f0 200016f0     ... ... ... ... 
20001700:	200016f8 200016f8 20001700 20001700     ... ... ... ... 
20001710:	20001708 20001708 20001710 20001710     ... ... ... ... 
20001720:	20001718 20001718 20001720 20001720     ... ...  ..  .. 
20001730:	20001728 20001728 20001730 20001730     (.. (.. 0.. 0.. 
20001740:	20001738 20001738 20001740 20001740     8.. 8.. @.. @.. 
20001750:	20001748 20001748 20001750 20001750     H.. H.. P.. P.. 

20001760 <_impure_ptr>:
20001760:	20001768 00000000                       h.. ....

20001768 <_impure_data>:
20001768:	00000000 20001a70 20001ad8 20001b40     ....p.. ... @.. 
	...
20001800:	00000001 00000000 abcd330e e66d1234     .........3..4.m.
20001810:	0005deec 0000000b 00000000 00000000     ................
	...

200018a8 <print_mutex>:
	...
